ARM GAS  C:\Users\user\AppData\Local\Temp\ccRSwC4J.s 			page 1


   1              		.syntax unified
   2              		.cpu cortex-m3
   3              		.fpu softvfp
   4              		.eabi_attribute 20, 1
   5              		.eabi_attribute 21, 1
   6              		.eabi_attribute 23, 3
   7              		.eabi_attribute 24, 1
   8              		.eabi_attribute 25, 1
   9              		.eabi_attribute 26, 1
  10              		.eabi_attribute 30, 1
  11              		.eabi_attribute 34, 1
  12              		.eabi_attribute 18, 4
  13              		.thumb
  14              		.file	"main.c"
  15              		.text
  16              	.Ltext0:
  17              		.cfi_sections	.debug_frame
  18              		.section	.text.DMA_1_Config,"ax",%progbits
  19              		.align	2
  20              		.global	DMA_1_Config
  21              		.thumb
  22              		.thumb_func
  23              		.type	DMA_1_Config, %function
  24              	DMA_1_Config:
  25              	.LFB63:
  26              		.file 1 ".\\main.c"
   1:.\main.c      **** /* ========================================
   2:.\main.c      ****  *
   3:.\main.c      ****  * Copyright YOUR COMPANY, THE YEAR
   4:.\main.c      ****  * All Rights Reserved
   5:.\main.c      ****  * UNPUBLISHED, LICENSED SOFTWARE.
   6:.\main.c      ****  *
   7:.\main.c      ****  * CONFIDENTIAL AND PROPRIETARY INFORMATION
   8:.\main.c      ****  * WHICH IS THE PROPERTY OF your company.
   9:.\main.c      ****  *
  10:.\main.c      ****  * ========================================
  11:.\main.c      **** */
  12:.\main.c      **** // INCLUDES ---------------------------------------------------------------------------------------
  13:.\main.c      **** #include <project.h>
  14:.\main.c      **** 
  15:.\main.c      **** // DEFINE -----------------------------------------------------------------------------------------
  16:.\main.c      **** #define SINUSTABLE_ARRAY 10
  17:.\main.c      **** 
  18:.\main.c      **** // GLOBALES VARIABLES -----------------------------------------------------------------------------
  19:.\main.c      **** uint8_t g_sinus_table[SINUSTABLE_ARRAY] = {0x0, 0x4E, 0x95, 0xCE, 0xF2, 0xFE, 0xF2, 0xCE, 0x96, 0x4
  20:.\main.c      **** 
  21:.\main.c      **** // PRIVATE FUNCTIONS ------------------------------------------------------------------------------
  22:.\main.c      **** void DMA_1_Config(void)
  23:.\main.c      **** {
  27              		.loc 1 23 0
  28              		.cfi_startproc
  29              		@ args = 0, pretend = 0, frame = 0
  30              		@ frame_needed = 0, uses_anonymous_args = 0
  31 0000 38B5     		push	{r3, r4, r5, lr}
  32              		.cfi_def_cfa_offset 16
  33              		.cfi_offset 3, -16
  34              		.cfi_offset 4, -12
ARM GAS  C:\Users\user\AppData\Local\Temp\ccRSwC4J.s 			page 2


  35              		.cfi_offset 5, -8
  36              		.cfi_offset 14, -4
  24:.\main.c      ****     /* Defines for DMA_1 */
  25:.\main.c      ****     #define DMA_1_BYTES_PER_BURST 1
  26:.\main.c      ****     #define DMA_1_REQUEST_PER_BURST 1
  27:.\main.c      ****     #define DMA_1_SRC_BASE (CYDEV_SRAM_BASE)
  28:.\main.c      ****     #define DMA_1_DST_BASE (CYDEV_PERIPH_BASE)
  29:.\main.c      **** 
  30:.\main.c      ****     /* Variable declarations for DMA_1 */
  31:.\main.c      ****     /* Move these variable declarations to the top of the function */
  32:.\main.c      ****     uint8 DMA_1_Chan;
  33:.\main.c      ****     uint8 DMA_1_TD[1];
  34:.\main.c      **** 
  35:.\main.c      ****     /* DMA Configuration for DMA_1 */
  36:.\main.c      ****     DMA_1_Chan = DMA_1_DmaInitialize(DMA_1_BYTES_PER_BURST, DMA_1_REQUEST_PER_BURST, 
  37              		.loc 1 36 0
  38 0002 0120     		movs	r0, #1
  39 0004 0146     		mov	r1, r0
  40 0006 41F6FF72 		movw	r2, #8191
  41 000a 4FF48043 		mov	r3, #16384
  42 000e FFF7FEFF 		bl	DMA_1_DmaInitialize
  43              	.LVL0:
  44 0012 0546     		mov	r5, r0
  45              	.LVL1:
  37:.\main.c      ****         HI16(DMA_1_SRC_BASE), HI16(DMA_1_DST_BASE));
  38:.\main.c      ****     DMA_1_TD[0] = CyDmaTdAllocate();
  46              		.loc 1 38 0
  47 0014 FFF7FEFF 		bl	CyDmaTdAllocate
  48              	.LVL2:
  49 0018 0446     		mov	r4, r0
  39:.\main.c      ****     CyDmaTdSetConfiguration(DMA_1_TD[0], 10, DMA_1_TD[0], TD_INC_SRC_ADR);
  50              		.loc 1 39 0
  51 001a 0A21     		movs	r1, #10
  52 001c 0246     		mov	r2, r0
  53 001e 0123     		movs	r3, #1
  54 0020 FFF7FEFF 		bl	CyDmaTdSetConfiguration
  55              	.LVL3:
  40:.\main.c      ****     CyDmaTdSetAddress(DMA_1_TD[0], LO16((uint32)g_sinus_table), LO16((uint32)VDAC8_1_Data_PTR));
  56              		.loc 1 40 0
  57 0024 2046     		mov	r0, r4
  58 0026 0749     		ldr	r1, .L3
  59 0028 89B2     		uxth	r1, r1
  60 002a 45F68332 		movw	r2, #23427
  61 002e FFF7FEFF 		bl	CyDmaTdSetAddress
  62              	.LVL4:
  41:.\main.c      ****     CyDmaChSetInitialTd(DMA_1_Chan, DMA_1_TD[0]);
  63              		.loc 1 41 0
  64 0032 2846     		mov	r0, r5
  65 0034 2146     		mov	r1, r4
  66 0036 FFF7FEFF 		bl	CyDmaChSetInitialTd
  67              	.LVL5:
  42:.\main.c      ****     CyDmaChEnable(DMA_1_Chan, 1);
  68              		.loc 1 42 0
  69 003a 2846     		mov	r0, r5
  70 003c 0121     		movs	r1, #1
  71 003e FFF7FEFF 		bl	CyDmaChEnable
  72              	.LVL6:
ARM GAS  C:\Users\user\AppData\Local\Temp\ccRSwC4J.s 			page 3


  73 0042 38BD     		pop	{r3, r4, r5, pc}
  74              	.LVL7:
  75              	.L4:
  76              		.align	2
  77              	.L3:
  78 0044 00000000 		.word	.LANCHOR0
  79              		.cfi_endproc
  80              	.LFE63:
  81              		.size	DMA_1_Config, .-DMA_1_Config
  82              		.section	.text.main,"ax",%progbits
  83              		.align	2
  84              		.global	main
  85              		.thumb
  86              		.thumb_func
  87              		.type	main, %function
  88              	main:
  89              	.LFB64:
  43:.\main.c      **** }
  44:.\main.c      ****     
  45:.\main.c      **** // MAIN -------------------------------------------------------------------------------------------
  46:.\main.c      **** int main()
  47:.\main.c      **** {
  90              		.loc 1 47 0
  91              		.cfi_startproc
  92              		@ Volatile: function does not return.
  93              		@ args = 0, pretend = 0, frame = 0
  94              		@ frame_needed = 0, uses_anonymous_args = 0
  95 0000 08B5     		push	{r3, lr}
  96              		.cfi_def_cfa_offset 8
  97              		.cfi_offset 3, -8
  98              		.cfi_offset 14, -4
  48:.\main.c      ****     //-----------------------//
  49:.\main.c      ****     //   START ALL MODULES   //
  50:.\main.c      ****     //-----------------------//
  51:.\main.c      ****     CyGlobalIntEnable; /* Enable global interrupts. */
  99              		.loc 1 51 0
 100              	@ 51 ".\main.c" 1
 101 0002 62B6     		CPSIE   i
 102              	@ 0 "" 2
  52:.\main.c      **** 
  53:.\main.c      ****     // Start DAC
  54:.\main.c      ****     VDAC8_1_Start();
 103              		.loc 1 54 0
 104              		.thumb
 105 0004 FFF7FEFF 		bl	VDAC8_1_Start
 106              	.LVL8:
  55:.\main.c      ****     Timer_1_Start();
 107              		.loc 1 55 0
 108 0008 FFF7FEFF 		bl	Timer_1_Start
 109              	.LVL9:
  56:.\main.c      **** 
  57:.\main.c      ****     // Configure DMA
  58:.\main.c      ****     DMA_1_Config();
 110              		.loc 1 58 0
 111 000c FFF7FEFF 		bl	DMA_1_Config
 112              	.LVL10:
 113              	.L6:
ARM GAS  C:\Users\user\AppData\Local\Temp\ccRSwC4J.s 			page 4


  59:.\main.c      ****     
  60:.\main.c      ****     
  61:.\main.c      ****     //-----------------------//
  62:.\main.c      ****     //     INIFINIT LOOP     //
  63:.\main.c      ****     //-----------------------//
  64:.\main.c      ****     for(;;)
  65:.\main.c      ****     {
  66:.\main.c      ****         
  67:.\main.c      ****     }
 114              		.loc 1 67 0 discriminator 1
 115 0010 FEE7     		b	.L6
 116              		.cfi_endproc
 117              	.LFE64:
 118              		.size	main, .-main
 119              		.global	g_sinus_table
 120 0012 00BF     		.data
 121              		.align	2
 122              		.set	.LANCHOR0,. + 0
 123              		.type	g_sinus_table, %object
 124              		.size	g_sinus_table, 10
 125              	g_sinus_table:
 126 0000 00       		.byte	0
 127 0001 4E       		.byte	78
 128 0002 95       		.byte	-107
 129 0003 CE       		.byte	-50
 130 0004 F2       		.byte	-14
 131 0005 FE       		.byte	-2
 132 0006 F2       		.byte	-14
 133 0007 CE       		.byte	-50
 134 0008 96       		.byte	-106
 135 0009 4F       		.byte	79
 136 000a 0000     		.text
 137              	.Letext0:
 138              		.file 2 "c:\\program files (x86)\\cypress\\psoc creator\\3.3\\psoc creator\\import\\gnu\\arm\\4.9.
 139              		.file 3 "c:\\program files (x86)\\cypress\\psoc creator\\3.3\\psoc creator\\import\\gnu\\arm\\4.9.
 140              		.file 4 "Generated_Source\\PSoC5/cytypes.h"
 141              		.file 5 "Generated_Source\\PSoC5/core_cm3.h"
 142              		.file 6 "Generated_Source\\PSoC5/DMA_1_dma.h"
 143              		.file 7 "Generated_Source\\PSoC5/CYDMAC.H"
 144              		.file 8 "Generated_Source\\PSoC5/VDAC8_1.h"
 145              		.file 9 "Generated_Source\\PSoC5/Timer_1.h"