ARM GAS  C:\Users\user\AppData\Local\Temp\ccxeGpeX.s 			page 1


   1              		.syntax unified
   2              		.cpu cortex-m3
   3              		.fpu softvfp
   4              		.eabi_attribute 20, 1
   5              		.eabi_attribute 21, 1
   6              		.eabi_attribute 23, 3
   7              		.eabi_attribute 24, 1
   8              		.eabi_attribute 25, 1
   9              		.eabi_attribute 26, 1
  10              		.eabi_attribute 30, 1
  11              		.eabi_attribute 34, 1
  12              		.eabi_attribute 18, 4
  13              		.thumb
  14              		.file	"CapSense_1_CSHL.c"
  15              		.text
  16              	.Ltext0:
  17              		.cfi_sections	.debug_frame
  18              		.section	.text.CapSense_1_BaseInit,"ax",%progbits
  19              		.align	2
  20              		.global	CapSense_1_BaseInit
  21              		.thumb
  22              		.thumb_func
  23              		.type	CapSense_1_BaseInit, %function
  24              	CapSense_1_BaseInit:
  25              	.LFB0:
  26              		.file 1 ".\\Generated_Source\\PSoC5\\CapSense_1_CSHL.c"
   1:.\Generated_Source\PSoC5/CapSense_1_CSHL.c **** /*******************************************************************************
   2:.\Generated_Source\PSoC5/CapSense_1_CSHL.c **** * File Name: CapSense_1_CSHL.c
   3:.\Generated_Source\PSoC5/CapSense_1_CSHL.c **** * Version 3.50
   4:.\Generated_Source\PSoC5/CapSense_1_CSHL.c **** *
   5:.\Generated_Source\PSoC5/CapSense_1_CSHL.c **** * Description:
   6:.\Generated_Source\PSoC5/CapSense_1_CSHL.c **** *  This file provides the source code to the High Level APIs for the CapSesne
   7:.\Generated_Source\PSoC5/CapSense_1_CSHL.c **** *  CSD component.
   8:.\Generated_Source\PSoC5/CapSense_1_CSHL.c **** *
   9:.\Generated_Source\PSoC5/CapSense_1_CSHL.c **** * Note:
  10:.\Generated_Source\PSoC5/CapSense_1_CSHL.c **** *
  11:.\Generated_Source\PSoC5/CapSense_1_CSHL.c **** ********************************************************************************
  12:.\Generated_Source\PSoC5/CapSense_1_CSHL.c **** * Copyright 2008-2013, Cypress Semiconductor Corporation.  All rights reserved.
  13:.\Generated_Source\PSoC5/CapSense_1_CSHL.c **** * You may use this file only in accordance with the license, terms, conditions,
  14:.\Generated_Source\PSoC5/CapSense_1_CSHL.c **** * disclaimers, and limitations in the end user license agreement accompanying
  15:.\Generated_Source\PSoC5/CapSense_1_CSHL.c **** * the software package with which this file was provided.
  16:.\Generated_Source\PSoC5/CapSense_1_CSHL.c **** *******************************************************************************/
  17:.\Generated_Source\PSoC5/CapSense_1_CSHL.c **** 
  18:.\Generated_Source\PSoC5/CapSense_1_CSHL.c **** #include "CapSense_1_CSHL.h"
  19:.\Generated_Source\PSoC5/CapSense_1_CSHL.c **** 
  20:.\Generated_Source\PSoC5/CapSense_1_CSHL.c **** /* Storage of filters data */
  21:.\Generated_Source\PSoC5/CapSense_1_CSHL.c **** #if ( (CapSense_1_RAW_FILTER_MASK & CapSense_1_MEDIAN_FILTER) | \
  22:.\Generated_Source\PSoC5/CapSense_1_CSHL.c ****       (CapSense_1_RAW_FILTER_MASK & CapSense_1_AVERAGING_FILTER) )
  23:.\Generated_Source\PSoC5/CapSense_1_CSHL.c **** 
  24:.\Generated_Source\PSoC5/CapSense_1_CSHL.c ****     uint16 CapSense_1_rawFilterData1[CapSense_1_TOTAL_SENSOR_COUNT];
  25:.\Generated_Source\PSoC5/CapSense_1_CSHL.c ****     uint16 CapSense_1_rawFilterData2[CapSense_1_TOTAL_SENSOR_COUNT];
  26:.\Generated_Source\PSoC5/CapSense_1_CSHL.c **** 
  27:.\Generated_Source\PSoC5/CapSense_1_CSHL.c **** #elif ( (CapSense_1_RAW_FILTER_MASK & CapSense_1_IIR2_FILTER)   | \
  28:.\Generated_Source\PSoC5/CapSense_1_CSHL.c ****         (CapSense_1_RAW_FILTER_MASK & CapSense_1_IIR4_FILTER)   | \
  29:.\Generated_Source\PSoC5/CapSense_1_CSHL.c ****         (CapSense_1_RAW_FILTER_MASK & CapSense_1_JITTER_FILTER) | \
  30:.\Generated_Source\PSoC5/CapSense_1_CSHL.c ****         (CapSense_1_RAW_FILTER_MASK & CapSense_1_IIR8_FILTER)   | \
  31:.\Generated_Source\PSoC5/CapSense_1_CSHL.c ****         (CapSense_1_RAW_FILTER_MASK & CapSense_1_IIR16_FILTER) )
ARM GAS  C:\Users\user\AppData\Local\Temp\ccxeGpeX.s 			page 2


  32:.\Generated_Source\PSoC5/CapSense_1_CSHL.c ****         
  33:.\Generated_Source\PSoC5/CapSense_1_CSHL.c ****     uint16 CapSense_1_rawFilterData1[CapSense_1_TOTAL_SENSOR_COUNT];
  34:.\Generated_Source\PSoC5/CapSense_1_CSHL.c **** 
  35:.\Generated_Source\PSoC5/CapSense_1_CSHL.c **** #else
  36:.\Generated_Source\PSoC5/CapSense_1_CSHL.c ****     /* No Raw filters */
  37:.\Generated_Source\PSoC5/CapSense_1_CSHL.c **** #endif  /* ( (CapSense_1_RAW_FILTER_MASK & CapSense_1_MEDIAN_FILTER) || \
  38:.\Generated_Source\PSoC5/CapSense_1_CSHL.c ****         *    (CapSense_1_RAW_FILTER_MASK & CapSense_1_AVERAGING_FILTER) )
  39:.\Generated_Source\PSoC5/CapSense_1_CSHL.c ****         */
  40:.\Generated_Source\PSoC5/CapSense_1_CSHL.c **** 
  41:.\Generated_Source\PSoC5/CapSense_1_CSHL.c **** uint16 CapSense_1_sensorBaseline[CapSense_1_TOTAL_SENSOR_COUNT];
  42:.\Generated_Source\PSoC5/CapSense_1_CSHL.c **** uint8 CapSense_1_sensorBaselineLow[CapSense_1_TOTAL_SENSOR_COUNT];
  43:.\Generated_Source\PSoC5/CapSense_1_CSHL.c **** uint8 CapSense_1_sensorSignal[CapSense_1_TOTAL_SENSOR_COUNT];
  44:.\Generated_Source\PSoC5/CapSense_1_CSHL.c **** uint8 CapSense_1_sensorOnMask[(((CapSense_1_TOTAL_SENSOR_COUNT - 1u) / 8u) + 1u)];
  45:.\Generated_Source\PSoC5/CapSense_1_CSHL.c **** 
  46:.\Generated_Source\PSoC5/CapSense_1_CSHL.c **** uint8 CapSense_1_lowBaselineResetCnt[CapSense_1_TOTAL_SENSOR_COUNT];
  47:.\Generated_Source\PSoC5/CapSense_1_CSHL.c **** 
  48:.\Generated_Source\PSoC5/CapSense_1_CSHL.c **** const uint8 CYCODE CapSense_1_fingerThreshold[] = {
  49:.\Generated_Source\PSoC5/CapSense_1_CSHL.c ****     100u, 
  50:.\Generated_Source\PSoC5/CapSense_1_CSHL.c **** };
  51:.\Generated_Source\PSoC5/CapSense_1_CSHL.c **** 
  52:.\Generated_Source\PSoC5/CapSense_1_CSHL.c **** const uint8 CYCODE CapSense_1_noiseThreshold[] = {
  53:.\Generated_Source\PSoC5/CapSense_1_CSHL.c ****     20u, 
  54:.\Generated_Source\PSoC5/CapSense_1_CSHL.c **** };
  55:.\Generated_Source\PSoC5/CapSense_1_CSHL.c **** 
  56:.\Generated_Source\PSoC5/CapSense_1_CSHL.c **** const uint8 CYCODE CapSense_1_hysteresis[] = {
  57:.\Generated_Source\PSoC5/CapSense_1_CSHL.c ****     10u, 
  58:.\Generated_Source\PSoC5/CapSense_1_CSHL.c **** };
  59:.\Generated_Source\PSoC5/CapSense_1_CSHL.c **** 
  60:.\Generated_Source\PSoC5/CapSense_1_CSHL.c **** const uint8 CYCODE CapSense_1_debounce[] = {
  61:.\Generated_Source\PSoC5/CapSense_1_CSHL.c ****     5u, 
  62:.\Generated_Source\PSoC5/CapSense_1_CSHL.c **** };
  63:.\Generated_Source\PSoC5/CapSense_1_CSHL.c **** 
  64:.\Generated_Source\PSoC5/CapSense_1_CSHL.c **** uint8 CapSense_1_debounceCounter[] = {
  65:.\Generated_Source\PSoC5/CapSense_1_CSHL.c ****     0u, 0u, 
  66:.\Generated_Source\PSoC5/CapSense_1_CSHL.c **** };
  67:.\Generated_Source\PSoC5/CapSense_1_CSHL.c **** 
  68:.\Generated_Source\PSoC5/CapSense_1_CSHL.c **** const uint8 CYCODE CapSense_1_rawDataIndex[] = {
  69:.\Generated_Source\PSoC5/CapSense_1_CSHL.c ****     0u, /* ProximitySensor0__PROX */
  70:.\Generated_Source\PSoC5/CapSense_1_CSHL.c **** 
  71:.\Generated_Source\PSoC5/CapSense_1_CSHL.c **** };
  72:.\Generated_Source\PSoC5/CapSense_1_CSHL.c **** 
  73:.\Generated_Source\PSoC5/CapSense_1_CSHL.c **** const uint8 CYCODE CapSense_1_numberOfSensors[] = {
  74:.\Generated_Source\PSoC5/CapSense_1_CSHL.c ****     1u, /* ProximitySensor0__PROX */
  75:.\Generated_Source\PSoC5/CapSense_1_CSHL.c **** 
  76:.\Generated_Source\PSoC5/CapSense_1_CSHL.c **** };
  77:.\Generated_Source\PSoC5/CapSense_1_CSHL.c **** 
  78:.\Generated_Source\PSoC5/CapSense_1_CSHL.c **** 
  79:.\Generated_Source\PSoC5/CapSense_1_CSHL.c **** 
  80:.\Generated_Source\PSoC5/CapSense_1_CSHL.c **** 
  81:.\Generated_Source\PSoC5/CapSense_1_CSHL.c **** /*******************************************************************************
  82:.\Generated_Source\PSoC5/CapSense_1_CSHL.c **** * Function Name: CapSense_1_BaseInit
  83:.\Generated_Source\PSoC5/CapSense_1_CSHL.c **** ********************************************************************************
  84:.\Generated_Source\PSoC5/CapSense_1_CSHL.c **** *
  85:.\Generated_Source\PSoC5/CapSense_1_CSHL.c **** * Summary:
  86:.\Generated_Source\PSoC5/CapSense_1_CSHL.c **** *  Loads the CapSense_1_sensorBaseline[sensor] array element with an 
  87:.\Generated_Source\PSoC5/CapSense_1_CSHL.c **** *  initial value which is equal to raw count value. 
  88:.\Generated_Source\PSoC5/CapSense_1_CSHL.c **** *  Resets to zero CapSense_1_sensorBaselineLow[sensor] and 
ARM GAS  C:\Users\user\AppData\Local\Temp\ccxeGpeX.s 			page 3


  89:.\Generated_Source\PSoC5/CapSense_1_CSHL.c **** *  CapSense_1_sensorSignal[sensor] array element.
  90:.\Generated_Source\PSoC5/CapSense_1_CSHL.c **** *  Loads CapSense_1_debounceCounter[sensor] array element with initial 
  91:.\Generated_Source\PSoC5/CapSense_1_CSHL.c **** *  value equal CapSense_1_debounce[].
  92:.\Generated_Source\PSoC5/CapSense_1_CSHL.c **** *  Loads the CapSense_1_rawFilterData2[sensor] and 
  93:.\Generated_Source\PSoC5/CapSense_1_CSHL.c **** *  CapSense_1_rawFilterData2[sensor] array element with an 
  94:.\Generated_Source\PSoC5/CapSense_1_CSHL.c **** *  initial value which is equal raw count value if raw data filter is enabled.
  95:.\Generated_Source\PSoC5/CapSense_1_CSHL.c **** *
  96:.\Generated_Source\PSoC5/CapSense_1_CSHL.c **** * Parameters:
  97:.\Generated_Source\PSoC5/CapSense_1_CSHL.c **** *  sensor:  Sensor number.
  98:.\Generated_Source\PSoC5/CapSense_1_CSHL.c **** *
  99:.\Generated_Source\PSoC5/CapSense_1_CSHL.c **** * Return:
 100:.\Generated_Source\PSoC5/CapSense_1_CSHL.c **** *  None
 101:.\Generated_Source\PSoC5/CapSense_1_CSHL.c **** *
 102:.\Generated_Source\PSoC5/CapSense_1_CSHL.c **** * Global Variables:
 103:.\Generated_Source\PSoC5/CapSense_1_CSHL.c **** *  CapSense_1_sensorBaseline[]    - used to store baseline value.
 104:.\Generated_Source\PSoC5/CapSense_1_CSHL.c **** *  CapSense_1_sensorBaselineLow[] - used to store fraction byte of 
 105:.\Generated_Source\PSoC5/CapSense_1_CSHL.c **** *  baseline value.
 106:.\Generated_Source\PSoC5/CapSense_1_CSHL.c **** *  CapSense_1_sensorSignal[]      - used to store diffence between 
 107:.\Generated_Source\PSoC5/CapSense_1_CSHL.c **** *  current value of raw data and previous value of baseline.
 108:.\Generated_Source\PSoC5/CapSense_1_CSHL.c **** *  CapSense_1_debounceCounter[]   - used to store current debounce 
 109:.\Generated_Source\PSoC5/CapSense_1_CSHL.c **** *  counter of sensor. Widget which has this parameter are buttons, matrix 
 110:.\Generated_Source\PSoC5/CapSense_1_CSHL.c **** *  buttons, proximity, guard. All other widgets haven't debounce parameter
 111:.\Generated_Source\PSoC5/CapSense_1_CSHL.c **** *  and use the last element of this array with value 0 (it means no debounce).
 112:.\Generated_Source\PSoC5/CapSense_1_CSHL.c **** *  CapSense_1_rawFilterData1[]    - used to store previous sample of 
 113:.\Generated_Source\PSoC5/CapSense_1_CSHL.c **** *  any enabled raw data filter.
 114:.\Generated_Source\PSoC5/CapSense_1_CSHL.c **** *  CapSense_1_rawFilterData2[]    - used to store before previous sample
 115:.\Generated_Source\PSoC5/CapSense_1_CSHL.c **** *  of enabled raw data filter. Only required for median or average filters.
 116:.\Generated_Source\PSoC5/CapSense_1_CSHL.c **** *
 117:.\Generated_Source\PSoC5/CapSense_1_CSHL.c **** * Reentrant:
 118:.\Generated_Source\PSoC5/CapSense_1_CSHL.c **** *  No
 119:.\Generated_Source\PSoC5/CapSense_1_CSHL.c **** *
 120:.\Generated_Source\PSoC5/CapSense_1_CSHL.c **** *******************************************************************************/
 121:.\Generated_Source\PSoC5/CapSense_1_CSHL.c **** void CapSense_1_BaseInit(uint8 sensor) 
 122:.\Generated_Source\PSoC5/CapSense_1_CSHL.c **** {
  27              		.loc 1 122 0
  28              		.cfi_startproc
  29              		@ args = 0, pretend = 0, frame = 0
  30              		@ frame_needed = 0, uses_anonymous_args = 0
  31              		@ link register save eliminated.
  32              	.LVL0:
  33 0000 10B4     		push	{r4}
  34              		.cfi_def_cfa_offset 4
  35              		.cfi_offset 4, -4
 123:.\Generated_Source\PSoC5/CapSense_1_CSHL.c ****     #if ((CapSense_1_TOTAL_BUTTONS_COUNT) || (CapSense_1_TOTAL_MATRIX_BUTTONS_COUNT) || \
 124:.\Generated_Source\PSoC5/CapSense_1_CSHL.c ****          (CapSense_1_TOTAL_GENERICS_COUNT))
 125:.\Generated_Source\PSoC5/CapSense_1_CSHL.c ****         uint8 widget = CapSense_1_widgetNumber[sensor];
  36              		.loc 1 125 0
  37 0002 0B4B     		ldr	r3, .L3
  38 0004 195C     		ldrb	r1, [r3, r0]	@ zero_extendqisi2
  39              	.LVL1:
 126:.\Generated_Source\PSoC5/CapSense_1_CSHL.c ****     #endif /* ((CapSense_1_TOTAL_MATRIX_BUTTONS_COUNT) || (CapSense_1_TOTAL_MATRIX_BUTTONS_COUNT)) 
 127:.\Generated_Source\PSoC5/CapSense_1_CSHL.c ****     
 128:.\Generated_Source\PSoC5/CapSense_1_CSHL.c ****     #if (CapSense_1_TOTAL_MATRIX_BUTTONS_COUNT)
 129:.\Generated_Source\PSoC5/CapSense_1_CSHL.c ****         uint8 debounceIndex;
 130:.\Generated_Source\PSoC5/CapSense_1_CSHL.c ****     #endif  /* (CapSense_1_TOTAL_MATRIX_BUTTONS_COUNT) */
 131:.\Generated_Source\PSoC5/CapSense_1_CSHL.c ****     
 132:.\Generated_Source\PSoC5/CapSense_1_CSHL.c ****     #if (CapSense_1_TOTAL_GENERICS_COUNT)
ARM GAS  C:\Users\user\AppData\Local\Temp\ccxeGpeX.s 			page 4


 133:.\Generated_Source\PSoC5/CapSense_1_CSHL.c ****         /* Exclude generic widget */
 134:.\Generated_Source\PSoC5/CapSense_1_CSHL.c ****         if(widget < CapSense_1_END_OF_WIDGETS_INDEX)
 135:.\Generated_Source\PSoC5/CapSense_1_CSHL.c ****         {
 136:.\Generated_Source\PSoC5/CapSense_1_CSHL.c ****     #endif  /* CapSense_1_TOTAL_GENERICS_COUNT */
 137:.\Generated_Source\PSoC5/CapSense_1_CSHL.c ****     
 138:.\Generated_Source\PSoC5/CapSense_1_CSHL.c ****     /* Initialize Baseline */
 139:.\Generated_Source\PSoC5/CapSense_1_CSHL.c ****     CapSense_1_sensorBaseline[sensor] = CapSense_1_sensorRaw[sensor];
  40              		.loc 1 139 0
  41 0006 0B4B     		ldr	r3, .L3+4
  42 0008 33F81030 		ldrh	r3, [r3, r0, lsl #1]
  43 000c 0A4A     		ldr	r2, .L3+8
  44 000e 22F81030 		strh	r3, [r2, r0, lsl #1]	@ movhi
 140:.\Generated_Source\PSoC5/CapSense_1_CSHL.c ****     CapSense_1_sensorBaselineLow[sensor] = 0u;
  45              		.loc 1 140 0
  46 0012 0022     		movs	r2, #0
  47 0014 094C     		ldr	r4, .L3+12
  48 0016 2254     		strb	r2, [r4, r0]
 141:.\Generated_Source\PSoC5/CapSense_1_CSHL.c ****     CapSense_1_sensorSignal[sensor] = 0u;
  49              		.loc 1 141 0
  50 0018 094C     		ldr	r4, .L3+16
  51 001a 2254     		strb	r2, [r4, r0]
 142:.\Generated_Source\PSoC5/CapSense_1_CSHL.c ****         
 143:.\Generated_Source\PSoC5/CapSense_1_CSHL.c ****     CapSense_1_debounceCounter[widget] =  CapSense_1_debounce[widget];
  52              		.loc 1 143 0
  53 001c 0524     		movs	r4, #5
  54 001e 094A     		ldr	r2, .L3+20
  55 0020 5454     		strb	r4, [r2, r1]
 144:.\Generated_Source\PSoC5/CapSense_1_CSHL.c **** 
 145:.\Generated_Source\PSoC5/CapSense_1_CSHL.c ****     
 146:.\Generated_Source\PSoC5/CapSense_1_CSHL.c ****     #if ((CapSense_1_RAW_FILTER_MASK & CapSense_1_MEDIAN_FILTER) |\
 147:.\Generated_Source\PSoC5/CapSense_1_CSHL.c ****          (CapSense_1_RAW_FILTER_MASK & CapSense_1_AVERAGING_FILTER))
 148:.\Generated_Source\PSoC5/CapSense_1_CSHL.c **** 
 149:.\Generated_Source\PSoC5/CapSense_1_CSHL.c ****         CapSense_1_rawFilterData1[sensor] = CapSense_1_sensorRaw[sensor];
 150:.\Generated_Source\PSoC5/CapSense_1_CSHL.c ****         CapSense_1_rawFilterData2[sensor] = CapSense_1_sensorRaw[sensor];
 151:.\Generated_Source\PSoC5/CapSense_1_CSHL.c ****     
 152:.\Generated_Source\PSoC5/CapSense_1_CSHL.c ****     #elif ((CapSense_1_RAW_FILTER_MASK & CapSense_1_IIR2_FILTER) |\
 153:.\Generated_Source\PSoC5/CapSense_1_CSHL.c ****            (CapSense_1_RAW_FILTER_MASK & CapSense_1_IIR4_FILTER) |\
 154:.\Generated_Source\PSoC5/CapSense_1_CSHL.c ****            (CapSense_1_RAW_FILTER_MASK & CapSense_1_JITTER_FILTER) |\
 155:.\Generated_Source\PSoC5/CapSense_1_CSHL.c ****            (CapSense_1_RAW_FILTER_MASK & CapSense_1_IIR8_FILTER) |\
 156:.\Generated_Source\PSoC5/CapSense_1_CSHL.c ****            (CapSense_1_RAW_FILTER_MASK & CapSense_1_IIR16_FILTER))
 157:.\Generated_Source\PSoC5/CapSense_1_CSHL.c ****             
 158:.\Generated_Source\PSoC5/CapSense_1_CSHL.c ****         CapSense_1_rawFilterData1[sensor] = CapSense_1_sensorRaw[sensor];
  56              		.loc 1 158 0
  57 0022 094A     		ldr	r2, .L3+24
  58 0024 22F81030 		strh	r3, [r2, r0, lsl #1]	@ movhi
 159:.\Generated_Source\PSoC5/CapSense_1_CSHL.c ****     
 160:.\Generated_Source\PSoC5/CapSense_1_CSHL.c ****     #else
 161:.\Generated_Source\PSoC5/CapSense_1_CSHL.c ****         /* No Raw filters */
 162:.\Generated_Source\PSoC5/CapSense_1_CSHL.c ****     #endif  /* ((CapSense_1_RAW_FILTER_MASK & CapSense_1_MEDIAN_FILTER) | \
 163:.\Generated_Source\PSoC5/CapSense_1_CSHL.c ****             *   (CapSense_1_RAW_FILTER_MASK & CapSense_1_AVERAGING_FILTER))
 164:.\Generated_Source\PSoC5/CapSense_1_CSHL.c ****             */
 165:.\Generated_Source\PSoC5/CapSense_1_CSHL.c ****     
 166:.\Generated_Source\PSoC5/CapSense_1_CSHL.c ****     #if (CapSense_1_TOTAL_GENERICS_COUNT)
 167:.\Generated_Source\PSoC5/CapSense_1_CSHL.c ****         /* Exclude generic widget */
 168:.\Generated_Source\PSoC5/CapSense_1_CSHL.c ****         }
 169:.\Generated_Source\PSoC5/CapSense_1_CSHL.c ****     #endif  /* CapSense_1_TOTAL_GENERICS_COUNT */
 170:.\Generated_Source\PSoC5/CapSense_1_CSHL.c **** }
ARM GAS  C:\Users\user\AppData\Local\Temp\ccxeGpeX.s 			page 5


  59              		.loc 1 170 0
  60 0028 5DF8044B 		ldr	r4, [sp], #4
  61              		.cfi_restore 4
  62              		.cfi_def_cfa_offset 0
  63 002c 7047     		bx	lr
  64              	.L4:
  65 002e 00BF     		.align	2
  66              	.L3:
  67 0030 00000000 		.word	CapSense_1_widgetNumber
  68 0034 00000000 		.word	CapSense_1_sensorRaw
  69 0038 00000000 		.word	CapSense_1_sensorBaseline
  70 003c 00000000 		.word	CapSense_1_sensorBaselineLow
  71 0040 00000000 		.word	CapSense_1_sensorSignal
  72 0044 00000000 		.word	.LANCHOR0
  73 0048 00000000 		.word	CapSense_1_rawFilterData1
  74              		.cfi_endproc
  75              	.LFE0:
  76              		.size	CapSense_1_BaseInit, .-CapSense_1_BaseInit
  77              		.section	.text.CapSense_1_InitializeSensorBaseline,"ax",%progbits
  78              		.align	2
  79              		.global	CapSense_1_InitializeSensorBaseline
  80              		.thumb
  81              		.thumb_func
  82              		.type	CapSense_1_InitializeSensorBaseline, %function
  83              	CapSense_1_InitializeSensorBaseline:
  84              	.LFB1:
 171:.\Generated_Source\PSoC5/CapSense_1_CSHL.c **** 
 172:.\Generated_Source\PSoC5/CapSense_1_CSHL.c **** 
 173:.\Generated_Source\PSoC5/CapSense_1_CSHL.c **** /*******************************************************************************
 174:.\Generated_Source\PSoC5/CapSense_1_CSHL.c **** * Function Name: CapSense_1_InitializeSensorBaseline
 175:.\Generated_Source\PSoC5/CapSense_1_CSHL.c **** ********************************************************************************
 176:.\Generated_Source\PSoC5/CapSense_1_CSHL.c **** *
 177:.\Generated_Source\PSoC5/CapSense_1_CSHL.c **** * Summary:
 178:.\Generated_Source\PSoC5/CapSense_1_CSHL.c **** *  Loads the CapSense_1_sensorBaseline[sensor] array element with an 
 179:.\Generated_Source\PSoC5/CapSense_1_CSHL.c **** *  initial value by scanning the selected sensor (one channel design) or pair 
 180:.\Generated_Source\PSoC5/CapSense_1_CSHL.c **** *  of sensors (two channels designs). The raw count value is copied into the 
 181:.\Generated_Source\PSoC5/CapSense_1_CSHL.c **** *  baseline array for each sensor. The raw data filters are initialized if 
 182:.\Generated_Source\PSoC5/CapSense_1_CSHL.c **** *  enabled.
 183:.\Generated_Source\PSoC5/CapSense_1_CSHL.c **** *
 184:.\Generated_Source\PSoC5/CapSense_1_CSHL.c **** * Parameters:
 185:.\Generated_Source\PSoC5/CapSense_1_CSHL.c **** *  sensor:  Sensor number.
 186:.\Generated_Source\PSoC5/CapSense_1_CSHL.c **** *
 187:.\Generated_Source\PSoC5/CapSense_1_CSHL.c **** * Return:
 188:.\Generated_Source\PSoC5/CapSense_1_CSHL.c **** *  None
 189:.\Generated_Source\PSoC5/CapSense_1_CSHL.c **** *
 190:.\Generated_Source\PSoC5/CapSense_1_CSHL.c **** * Reentrant:
 191:.\Generated_Source\PSoC5/CapSense_1_CSHL.c **** *  No
 192:.\Generated_Source\PSoC5/CapSense_1_CSHL.c **** *
 193:.\Generated_Source\PSoC5/CapSense_1_CSHL.c **** *******************************************************************************/
 194:.\Generated_Source\PSoC5/CapSense_1_CSHL.c **** void CapSense_1_InitializeSensorBaseline(uint8 sensor)
 195:.\Generated_Source\PSoC5/CapSense_1_CSHL.c ****                           
 196:.\Generated_Source\PSoC5/CapSense_1_CSHL.c **** {
  85              		.loc 1 196 0
  86              		.cfi_startproc
  87              		@ args = 0, pretend = 0, frame = 0
  88              		@ frame_needed = 0, uses_anonymous_args = 0
  89              	.LVL2:
ARM GAS  C:\Users\user\AppData\Local\Temp\ccxeGpeX.s 			page 6


  90 0000 10B5     		push	{r4, lr}
  91              		.cfi_def_cfa_offset 8
  92              		.cfi_offset 4, -8
  93              		.cfi_offset 14, -4
  94 0002 0446     		mov	r4, r0
 197:.\Generated_Source\PSoC5/CapSense_1_CSHL.c ****     /* Scan sensor */
 198:.\Generated_Source\PSoC5/CapSense_1_CSHL.c ****     CapSense_1_ScanSensor(sensor);
  95              		.loc 1 198 0
  96 0004 FFF7FEFF 		bl	CapSense_1_ScanSensor
  97              	.LVL3:
  98              	.L6:
 199:.\Generated_Source\PSoC5/CapSense_1_CSHL.c ****     while(CapSense_1_IsBusy() != 0u)
  99              		.loc 1 199 0 discriminator 1
 100 0008 FFF7FEFF 		bl	CapSense_1_IsBusy
 101              	.LVL4:
 102 000c 0028     		cmp	r0, #0
 103 000e FBD1     		bne	.L6
 200:.\Generated_Source\PSoC5/CapSense_1_CSHL.c ****     {
 201:.\Generated_Source\PSoC5/CapSense_1_CSHL.c ****         /* Wait while busy */
 202:.\Generated_Source\PSoC5/CapSense_1_CSHL.c ****     }
 203:.\Generated_Source\PSoC5/CapSense_1_CSHL.c ****     
 204:.\Generated_Source\PSoC5/CapSense_1_CSHL.c ****     #if (CapSense_1_DESIGN_TYPE == CapSense_1_ONE_CHANNEL_DESIGN)
 205:.\Generated_Source\PSoC5/CapSense_1_CSHL.c ****         /* Initialize Baseline, Signal and debounce counters */       
 206:.\Generated_Source\PSoC5/CapSense_1_CSHL.c ****         CapSense_1_BaseInit(sensor);
 104              		.loc 1 206 0
 105 0010 2046     		mov	r0, r4
 106 0012 FFF7FEFF 		bl	CapSense_1_BaseInit
 107              	.LVL5:
 108 0016 10BD     		pop	{r4, pc}
 109              		.cfi_endproc
 110              	.LFE1:
 111              		.size	CapSense_1_InitializeSensorBaseline, .-CapSense_1_InitializeSensorBaseline
 112              		.section	.text.CapSense_1_InitializeAllBaselines,"ax",%progbits
 113              		.align	2
 114              		.global	CapSense_1_InitializeAllBaselines
 115              		.thumb
 116              		.thumb_func
 117              		.type	CapSense_1_InitializeAllBaselines, %function
 118              	CapSense_1_InitializeAllBaselines:
 119              	.LFB2:
 207:.\Generated_Source\PSoC5/CapSense_1_CSHL.c ****         
 208:.\Generated_Source\PSoC5/CapSense_1_CSHL.c ****     #else
 209:.\Generated_Source\PSoC5/CapSense_1_CSHL.c ****     
 210:.\Generated_Source\PSoC5/CapSense_1_CSHL.c ****         if(sensor < CapSense_1_TOTAL_SENSOR_COUNT__CH0)
 211:.\Generated_Source\PSoC5/CapSense_1_CSHL.c ****         {
 212:.\Generated_Source\PSoC5/CapSense_1_CSHL.c ****             /* Initialize Baseline, Signal and debounce counters */ 
 213:.\Generated_Source\PSoC5/CapSense_1_CSHL.c ****             CapSense_1_BaseInit(sensor);
 214:.\Generated_Source\PSoC5/CapSense_1_CSHL.c ****         }
 215:.\Generated_Source\PSoC5/CapSense_1_CSHL.c ****         
 216:.\Generated_Source\PSoC5/CapSense_1_CSHL.c ****         if(sensor < CapSense_1_TOTAL_SENSOR_COUNT__CH1)
 217:.\Generated_Source\PSoC5/CapSense_1_CSHL.c ****         {
 218:.\Generated_Source\PSoC5/CapSense_1_CSHL.c ****             /* Initialize Baseline, Signal and debounce counters */
 219:.\Generated_Source\PSoC5/CapSense_1_CSHL.c ****             CapSense_1_BaseInit(sensor + CapSense_1_TOTAL_SENSOR_COUNT__CH0);
 220:.\Generated_Source\PSoC5/CapSense_1_CSHL.c ****         }
 221:.\Generated_Source\PSoC5/CapSense_1_CSHL.c ****     
 222:.\Generated_Source\PSoC5/CapSense_1_CSHL.c ****     #endif  /* (CapSense_1_DESIGN_TYPE == CapSense_1_ONE_CHANNEL_DESIGN) */
 223:.\Generated_Source\PSoC5/CapSense_1_CSHL.c **** }
ARM GAS  C:\Users\user\AppData\Local\Temp\ccxeGpeX.s 			page 7


 224:.\Generated_Source\PSoC5/CapSense_1_CSHL.c **** 
 225:.\Generated_Source\PSoC5/CapSense_1_CSHL.c **** 
 226:.\Generated_Source\PSoC5/CapSense_1_CSHL.c **** /*******************************************************************************
 227:.\Generated_Source\PSoC5/CapSense_1_CSHL.c **** * Function Name: CapSense_1_InitializeAllBaselines
 228:.\Generated_Source\PSoC5/CapSense_1_CSHL.c **** ********************************************************************************
 229:.\Generated_Source\PSoC5/CapSense_1_CSHL.c **** *
 230:.\Generated_Source\PSoC5/CapSense_1_CSHL.c **** * Summary:
 231:.\Generated_Source\PSoC5/CapSense_1_CSHL.c **** *  Uses the CapSense_1_InitializeSensorBaseline function to loads the 
 232:.\Generated_Source\PSoC5/CapSense_1_CSHL.c **** *  CapSense_1_sensorBaseline[] array with an initial values by scanning 
 233:.\Generated_Source\PSoC5/CapSense_1_CSHL.c **** *  all sensors. The raw count values are copied into the baseline array for 
 234:.\Generated_Source\PSoC5/CapSense_1_CSHL.c **** *  all sensors. The raw data filters are initialized if enabled.
 235:.\Generated_Source\PSoC5/CapSense_1_CSHL.c **** *
 236:.\Generated_Source\PSoC5/CapSense_1_CSHL.c **** * Parameters:
 237:.\Generated_Source\PSoC5/CapSense_1_CSHL.c **** *  None
 238:.\Generated_Source\PSoC5/CapSense_1_CSHL.c **** *
 239:.\Generated_Source\PSoC5/CapSense_1_CSHL.c **** * Return:
 240:.\Generated_Source\PSoC5/CapSense_1_CSHL.c **** *  None
 241:.\Generated_Source\PSoC5/CapSense_1_CSHL.c **** *
 242:.\Generated_Source\PSoC5/CapSense_1_CSHL.c **** * Reentrant:
 243:.\Generated_Source\PSoC5/CapSense_1_CSHL.c **** *  No
 244:.\Generated_Source\PSoC5/CapSense_1_CSHL.c **** *
 245:.\Generated_Source\PSoC5/CapSense_1_CSHL.c **** *******************************************************************************/
 246:.\Generated_Source\PSoC5/CapSense_1_CSHL.c **** void CapSense_1_InitializeAllBaselines(void)
 247:.\Generated_Source\PSoC5/CapSense_1_CSHL.c ****                           
 248:.\Generated_Source\PSoC5/CapSense_1_CSHL.c **** {
 120              		.loc 1 248 0
 121              		.cfi_startproc
 122              		@ args = 0, pretend = 0, frame = 0
 123              		@ frame_needed = 0, uses_anonymous_args = 0
 124 0000 10B5     		push	{r4, lr}
 125              		.cfi_def_cfa_offset 8
 126              		.cfi_offset 4, -8
 127              		.cfi_offset 14, -4
 128              	.LVL6:
 249:.\Generated_Source\PSoC5/CapSense_1_CSHL.c ****     uint8 i;
 250:.\Generated_Source\PSoC5/CapSense_1_CSHL.c ****     
 251:.\Generated_Source\PSoC5/CapSense_1_CSHL.c ****     /* The baseline initialize by sensor of sensor pair */
 252:.\Generated_Source\PSoC5/CapSense_1_CSHL.c ****     for(i = 0u; i < CapSense_1_TOTAL_SCANSLOT_COUNT; i++)
 129              		.loc 1 252 0
 130 0002 0024     		movs	r4, #0
 131 0004 04E0     		b	.L9
 132              	.LVL7:
 133              	.L10:
 253:.\Generated_Source\PSoC5/CapSense_1_CSHL.c ****     {
 254:.\Generated_Source\PSoC5/CapSense_1_CSHL.c ****         CapSense_1_InitializeSensorBaseline(i);
 134              		.loc 1 254 0 discriminator 3
 135 0006 2046     		mov	r0, r4
 136 0008 FFF7FEFF 		bl	CapSense_1_InitializeSensorBaseline
 137              	.LVL8:
 252:.\Generated_Source\PSoC5/CapSense_1_CSHL.c ****     {
 138              		.loc 1 252 0 discriminator 3
 139 000c 0134     		adds	r4, r4, #1
 140              	.LVL9:
 141 000e E4B2     		uxtb	r4, r4
 142              	.LVL10:
 143              	.L9:
 252:.\Generated_Source\PSoC5/CapSense_1_CSHL.c ****     {
ARM GAS  C:\Users\user\AppData\Local\Temp\ccxeGpeX.s 			page 8


 144              		.loc 1 252 0 is_stmt 0 discriminator 1
 145 0010 002C     		cmp	r4, #0
 146 0012 F8D0     		beq	.L10
 255:.\Generated_Source\PSoC5/CapSense_1_CSHL.c ****     }
 256:.\Generated_Source\PSoC5/CapSense_1_CSHL.c **** }
 147              		.loc 1 256 0 is_stmt 1
 148 0014 10BD     		pop	{r4, pc}
 149              		.cfi_endproc
 150              	.LFE2:
 151              		.size	CapSense_1_InitializeAllBaselines, .-CapSense_1_InitializeAllBaselines
 152 0016 00BF     		.section	.text.CapSense_1_InitializeEnabledBaselines,"ax",%progbits
 153              		.align	2
 154              		.global	CapSense_1_InitializeEnabledBaselines
 155              		.thumb
 156              		.thumb_func
 157              		.type	CapSense_1_InitializeEnabledBaselines, %function
 158              	CapSense_1_InitializeEnabledBaselines:
 159              	.LFB3:
 257:.\Generated_Source\PSoC5/CapSense_1_CSHL.c **** 
 258:.\Generated_Source\PSoC5/CapSense_1_CSHL.c **** 
 259:.\Generated_Source\PSoC5/CapSense_1_CSHL.c **** /*******************************************************************************
 260:.\Generated_Source\PSoC5/CapSense_1_CSHL.c **** * Function Name: CapSense_1_InitializeEnabledBaselines
 261:.\Generated_Source\PSoC5/CapSense_1_CSHL.c **** ********************************************************************************
 262:.\Generated_Source\PSoC5/CapSense_1_CSHL.c **** *
 263:.\Generated_Source\PSoC5/CapSense_1_CSHL.c **** * Summary:
 264:.\Generated_Source\PSoC5/CapSense_1_CSHL.c **** *  Scans all enabled widgets and the raw count values are copied into the 
 265:.\Generated_Source\PSoC5/CapSense_1_CSHL.c **** *  baseline array for all sensors enabled in scanning process. Baselines 
 266:.\Generated_Source\PSoC5/CapSense_1_CSHL.c **** *  initialize with zero values for sensors disabled from scanning process. 
 267:.\Generated_Source\PSoC5/CapSense_1_CSHL.c **** *  The raw data filters are initialized if enabled.
 268:.\Generated_Source\PSoC5/CapSense_1_CSHL.c **** *
 269:.\Generated_Source\PSoC5/CapSense_1_CSHL.c **** * Parameters:
 270:.\Generated_Source\PSoC5/CapSense_1_CSHL.c **** *  None
 271:.\Generated_Source\PSoC5/CapSense_1_CSHL.c **** *
 272:.\Generated_Source\PSoC5/CapSense_1_CSHL.c **** * Return:
 273:.\Generated_Source\PSoC5/CapSense_1_CSHL.c **** *  None
 274:.\Generated_Source\PSoC5/CapSense_1_CSHL.c **** *
 275:.\Generated_Source\PSoC5/CapSense_1_CSHL.c **** * Reentrant:
 276:.\Generated_Source\PSoC5/CapSense_1_CSHL.c **** *  No
 277:.\Generated_Source\PSoC5/CapSense_1_CSHL.c **** *
 278:.\Generated_Source\PSoC5/CapSense_1_CSHL.c **** *******************************************************************************/
 279:.\Generated_Source\PSoC5/CapSense_1_CSHL.c **** void CapSense_1_InitializeEnabledBaselines(void)
 280:.\Generated_Source\PSoC5/CapSense_1_CSHL.c ****                              
 281:.\Generated_Source\PSoC5/CapSense_1_CSHL.c **** {
 160              		.loc 1 281 0
 161              		.cfi_startproc
 162              		@ args = 0, pretend = 0, frame = 0
 163              		@ frame_needed = 0, uses_anonymous_args = 0
 164 0000 10B5     		push	{r4, lr}
 165              		.cfi_def_cfa_offset 8
 166              		.cfi_offset 4, -8
 167              		.cfi_offset 14, -4
 282:.\Generated_Source\PSoC5/CapSense_1_CSHL.c ****     uint8 i;
 283:.\Generated_Source\PSoC5/CapSense_1_CSHL.c ****     uint8 pos;
 284:.\Generated_Source\PSoC5/CapSense_1_CSHL.c ****     uint8 enMask;
 285:.\Generated_Source\PSoC5/CapSense_1_CSHL.c ****     
 286:.\Generated_Source\PSoC5/CapSense_1_CSHL.c ****     CapSense_1_ScanEnabledWidgets();
 168              		.loc 1 286 0
ARM GAS  C:\Users\user\AppData\Local\Temp\ccxeGpeX.s 			page 9


 169 0002 FFF7FEFF 		bl	CapSense_1_ScanEnabledWidgets
 170              	.LVL11:
 171              	.L13:
 287:.\Generated_Source\PSoC5/CapSense_1_CSHL.c ****     while(CapSense_1_IsBusy() != 0u)
 172              		.loc 1 287 0 discriminator 1
 173 0006 FFF7FEFF 		bl	CapSense_1_IsBusy
 174              	.LVL12:
 175 000a 0028     		cmp	r0, #0
 176 000c FBD1     		bne	.L13
 177 000e 0024     		movs	r4, #0
 178 0010 11E0     		b	.L14
 179              	.LVL13:
 180              	.L16:
 288:.\Generated_Source\PSoC5/CapSense_1_CSHL.c ****     {
 289:.\Generated_Source\PSoC5/CapSense_1_CSHL.c ****         /* Wait while busy */
 290:.\Generated_Source\PSoC5/CapSense_1_CSHL.c ****     }
 291:.\Generated_Source\PSoC5/CapSense_1_CSHL.c ****     
 292:.\Generated_Source\PSoC5/CapSense_1_CSHL.c ****     for(i = 0u; i < CapSense_1_TOTAL_SENSOR_COUNT; i++)
 293:.\Generated_Source\PSoC5/CapSense_1_CSHL.c ****     {
 294:.\Generated_Source\PSoC5/CapSense_1_CSHL.c ****         pos = (i >> 3u);
 181              		.loc 1 294 0
 182 0012 E208     		lsrs	r2, r4, #3
 295:.\Generated_Source\PSoC5/CapSense_1_CSHL.c ****         enMask = 0x01u << (i & 0x07u);
 183              		.loc 1 295 0
 184 0014 04F00701 		and	r1, r4, #7
 185 0018 0123     		movs	r3, #1
 186 001a 8B40     		lsls	r3, r3, r1
 187              	.LVL14:
 296:.\Generated_Source\PSoC5/CapSense_1_CSHL.c ****         
 297:.\Generated_Source\PSoC5/CapSense_1_CSHL.c ****         /* Clear raw data if sensor is disabled from scanning process */
 298:.\Generated_Source\PSoC5/CapSense_1_CSHL.c ****         if((CapSense_1_sensorEnableMask[pos] & enMask) == 0u)
 188              		.loc 1 298 0
 189 001c 0749     		ldr	r1, .L18
 190 001e 8A5C     		ldrb	r2, [r1, r2]	@ zero_extendqisi2
 191 0020 1342     		tst	r3, r2
 192 0022 03D1     		bne	.L15
 299:.\Generated_Source\PSoC5/CapSense_1_CSHL.c ****         {
 300:.\Generated_Source\PSoC5/CapSense_1_CSHL.c ****             CapSense_1_sensorRaw[i] = 0u;
 193              		.loc 1 300 0
 194 0024 0022     		movs	r2, #0
 195 0026 064B     		ldr	r3, .L18+4
 196              	.LVL15:
 197 0028 23F81420 		strh	r2, [r3, r4, lsl #1]	@ movhi
 198              	.L15:
 301:.\Generated_Source\PSoC5/CapSense_1_CSHL.c ****         }
 302:.\Generated_Source\PSoC5/CapSense_1_CSHL.c ****         
 303:.\Generated_Source\PSoC5/CapSense_1_CSHL.c ****         /* Initialize baselines */
 304:.\Generated_Source\PSoC5/CapSense_1_CSHL.c ****         CapSense_1_BaseInit(i);
 199              		.loc 1 304 0 discriminator 2
 200 002c 2046     		mov	r0, r4
 201 002e FFF7FEFF 		bl	CapSense_1_BaseInit
 202              	.LVL16:
 292:.\Generated_Source\PSoC5/CapSense_1_CSHL.c ****     {
 203              		.loc 1 292 0 discriminator 2
 204 0032 0134     		adds	r4, r4, #1
 205              	.LVL17:
 206 0034 E4B2     		uxtb	r4, r4
ARM GAS  C:\Users\user\AppData\Local\Temp\ccxeGpeX.s 			page 10


 207              	.LVL18:
 208              	.L14:
 292:.\Generated_Source\PSoC5/CapSense_1_CSHL.c ****     {
 209              		.loc 1 292 0 is_stmt 0 discriminator 1
 210 0036 002C     		cmp	r4, #0
 211 0038 EBD0     		beq	.L16
 305:.\Generated_Source\PSoC5/CapSense_1_CSHL.c ****     }
 306:.\Generated_Source\PSoC5/CapSense_1_CSHL.c **** }  
 212              		.loc 1 306 0 is_stmt 1
 213 003a 10BD     		pop	{r4, pc}
 214              	.LVL19:
 215              	.L19:
 216              		.align	2
 217              	.L18:
 218 003c 00000000 		.word	CapSense_1_sensorEnableMask
 219 0040 00000000 		.word	CapSense_1_sensorRaw
 220              		.cfi_endproc
 221              	.LFE3:
 222              		.size	CapSense_1_InitializeEnabledBaselines, .-CapSense_1_InitializeEnabledBaselines
 223              		.section	.text.CapSense_1_CheckIsSensorActive,"ax",%progbits
 224              		.align	2
 225              		.global	CapSense_1_CheckIsSensorActive
 226              		.thumb
 227              		.thumb_func
 228              		.type	CapSense_1_CheckIsSensorActive, %function
 229              	CapSense_1_CheckIsSensorActive:
 230              	.LFB6:
 307:.\Generated_Source\PSoC5/CapSense_1_CSHL.c **** 
 308:.\Generated_Source\PSoC5/CapSense_1_CSHL.c **** 
 309:.\Generated_Source\PSoC5/CapSense_1_CSHL.c **** /*******************************************************************************
 310:.\Generated_Source\PSoC5/CapSense_1_CSHL.c **** * Function Name: CapSense_1_UpdateSensorBaseline
 311:.\Generated_Source\PSoC5/CapSense_1_CSHL.c **** ********************************************************************************
 312:.\Generated_Source\PSoC5/CapSense_1_CSHL.c **** *
 313:.\Generated_Source\PSoC5/CapSense_1_CSHL.c **** * Summary:
 314:.\Generated_Source\PSoC5/CapSense_1_CSHL.c **** *  Updates the CapSense_1_sensorBaseline[sensor] array element using the 
 315:.\Generated_Source\PSoC5/CapSense_1_CSHL.c **** *  LP filter with k = 256. The signal calculates the difference of count by 
 316:.\Generated_Source\PSoC5/CapSense_1_CSHL.c **** *  subtracting the previous baseline from the current raw count value and stores
 317:.\Generated_Source\PSoC5/CapSense_1_CSHL.c **** *  it in CapSense_1_SensorSignal[sensor]. 
 318:.\Generated_Source\PSoC5/CapSense_1_CSHL.c **** *  If auto reset option is enabled the baseline updated regards noise threshold. 
 319:.\Generated_Source\PSoC5/CapSense_1_CSHL.c **** *  If auto reset option is disabled the baseline stops updating if signal is 
 320:.\Generated_Source\PSoC5/CapSense_1_CSHL.c **** *  greater that zero and baseline loads with raw count value if signal is less 
 321:.\Generated_Source\PSoC5/CapSense_1_CSHL.c **** *  that noise threshold.
 322:.\Generated_Source\PSoC5/CapSense_1_CSHL.c **** *  Raw data filters are applied to the values if enabled before baseline 
 323:.\Generated_Source\PSoC5/CapSense_1_CSHL.c **** *  calculation.
 324:.\Generated_Source\PSoC5/CapSense_1_CSHL.c **** *
 325:.\Generated_Source\PSoC5/CapSense_1_CSHL.c **** * Parameters:
 326:.\Generated_Source\PSoC5/CapSense_1_CSHL.c **** *  sensor:  Sensor number.
 327:.\Generated_Source\PSoC5/CapSense_1_CSHL.c **** *
 328:.\Generated_Source\PSoC5/CapSense_1_CSHL.c **** * Return:
 329:.\Generated_Source\PSoC5/CapSense_1_CSHL.c **** *  None
 330:.\Generated_Source\PSoC5/CapSense_1_CSHL.c **** *
 331:.\Generated_Source\PSoC5/CapSense_1_CSHL.c **** * Global Variables:
 332:.\Generated_Source\PSoC5/CapSense_1_CSHL.c **** *  CapSense_1_sensorBaseline[]    - used to store baseline value.
 333:.\Generated_Source\PSoC5/CapSense_1_CSHL.c **** *  CapSense_1_sensorBaselineLow[] - used to store fraction byte of 
 334:.\Generated_Source\PSoC5/CapSense_1_CSHL.c **** *  baseline value.
 335:.\Generated_Source\PSoC5/CapSense_1_CSHL.c **** *  CapSense_1_sensorSignal[]      - used to store diffence between 
 336:.\Generated_Source\PSoC5/CapSense_1_CSHL.c **** *  current value of raw data and previous value of baseline.
ARM GAS  C:\Users\user\AppData\Local\Temp\ccxeGpeX.s 			page 11


 337:.\Generated_Source\PSoC5/CapSense_1_CSHL.c **** *  CapSense_1_rawFilterData1[]    - used to store previous sample of 
 338:.\Generated_Source\PSoC5/CapSense_1_CSHL.c **** *  any enabled raw data filter.
 339:.\Generated_Source\PSoC5/CapSense_1_CSHL.c **** *  CapSense_1_rawFilterData2[]    - used to store before previous sample
 340:.\Generated_Source\PSoC5/CapSense_1_CSHL.c **** *  of enabled raw data filter. Only required for median or average filters.
 341:.\Generated_Source\PSoC5/CapSense_1_CSHL.c **** *
 342:.\Generated_Source\PSoC5/CapSense_1_CSHL.c **** * Reentrant:
 343:.\Generated_Source\PSoC5/CapSense_1_CSHL.c **** *  No
 344:.\Generated_Source\PSoC5/CapSense_1_CSHL.c **** *
 345:.\Generated_Source\PSoC5/CapSense_1_CSHL.c **** *******************************************************************************/
 346:.\Generated_Source\PSoC5/CapSense_1_CSHL.c ****  void CapSense_1_UpdateSensorBaseline(uint8 sensor)
 347:.\Generated_Source\PSoC5/CapSense_1_CSHL.c ****                                  
 348:.\Generated_Source\PSoC5/CapSense_1_CSHL.c **** {
 349:.\Generated_Source\PSoC5/CapSense_1_CSHL.c ****     uint32 calc;
 350:.\Generated_Source\PSoC5/CapSense_1_CSHL.c ****     uint16 tempRaw;
 351:.\Generated_Source\PSoC5/CapSense_1_CSHL.c ****     uint16 filteredRawData;
 352:.\Generated_Source\PSoC5/CapSense_1_CSHL.c ****     uint8 widget = CapSense_1_widgetNumber[sensor];
 353:.\Generated_Source\PSoC5/CapSense_1_CSHL.c ****     uint8 noiseThreshold = CapSense_1_noiseThreshold[widget];
 354:.\Generated_Source\PSoC5/CapSense_1_CSHL.c ****     
 355:.\Generated_Source\PSoC5/CapSense_1_CSHL.c ****     #if (CapSense_1_TOTAL_GENERICS_COUNT)
 356:.\Generated_Source\PSoC5/CapSense_1_CSHL.c ****         /* Exclude generic widget */
 357:.\Generated_Source\PSoC5/CapSense_1_CSHL.c ****         if(widget < CapSense_1_END_OF_WIDGETS_INDEX)
 358:.\Generated_Source\PSoC5/CapSense_1_CSHL.c ****         {
 359:.\Generated_Source\PSoC5/CapSense_1_CSHL.c ****     #endif  /* CapSense_1_TOTAL_GENERICS_COUNT */
 360:.\Generated_Source\PSoC5/CapSense_1_CSHL.c ****     
 361:.\Generated_Source\PSoC5/CapSense_1_CSHL.c ****     filteredRawData = CapSense_1_sensorRaw[sensor];
 362:.\Generated_Source\PSoC5/CapSense_1_CSHL.c ****     
 363:.\Generated_Source\PSoC5/CapSense_1_CSHL.c ****     #if (CapSense_1_RAW_FILTER_MASK & CapSense_1_MEDIAN_FILTER)
 364:.\Generated_Source\PSoC5/CapSense_1_CSHL.c ****         tempRaw = filteredRawData;
 365:.\Generated_Source\PSoC5/CapSense_1_CSHL.c ****         filteredRawData = CapSense_1_MedianFilter(filteredRawData, CapSense_1_rawFilterData1[sensor
 366:.\Generated_Source\PSoC5/CapSense_1_CSHL.c ****                                                         CapSense_1_rawFilterData2[sensor]);
 367:.\Generated_Source\PSoC5/CapSense_1_CSHL.c ****         CapSense_1_rawFilterData2[sensor] = CapSense_1_rawFilterData1[sensor];
 368:.\Generated_Source\PSoC5/CapSense_1_CSHL.c ****         CapSense_1_rawFilterData1[sensor] = tempRaw;
 369:.\Generated_Source\PSoC5/CapSense_1_CSHL.c ****         
 370:.\Generated_Source\PSoC5/CapSense_1_CSHL.c ****     #elif (CapSense_1_RAW_FILTER_MASK & CapSense_1_AVERAGING_FILTER)
 371:.\Generated_Source\PSoC5/CapSense_1_CSHL.c ****         tempRaw = filteredRawData;
 372:.\Generated_Source\PSoC5/CapSense_1_CSHL.c ****         filteredRawData = CapSense_1_AveragingFilter(filteredRawData, CapSense_1_rawFilterData1[sen
 373:.\Generated_Source\PSoC5/CapSense_1_CSHL.c ****                                                            CapSense_1_rawFilterData2[sensor]);
 374:.\Generated_Source\PSoC5/CapSense_1_CSHL.c ****         CapSense_1_rawFilterData2[sensor] = CapSense_1_rawFilterData1[sensor];
 375:.\Generated_Source\PSoC5/CapSense_1_CSHL.c ****         CapSense_1_rawFilterData1[sensor] = tempRaw;
 376:.\Generated_Source\PSoC5/CapSense_1_CSHL.c ****         
 377:.\Generated_Source\PSoC5/CapSense_1_CSHL.c ****     #elif (CapSense_1_RAW_FILTER_MASK & CapSense_1_IIR2_FILTER)
 378:.\Generated_Source\PSoC5/CapSense_1_CSHL.c ****         filteredRawData = CapSense_1_IIR2Filter(filteredRawData, CapSense_1_rawFilterData1[sensor])
 379:.\Generated_Source\PSoC5/CapSense_1_CSHL.c ****         CapSense_1_rawFilterData1[sensor] = filteredRawData;
 380:.\Generated_Source\PSoC5/CapSense_1_CSHL.c ****         
 381:.\Generated_Source\PSoC5/CapSense_1_CSHL.c ****     #elif (CapSense_1_RAW_FILTER_MASK & CapSense_1_IIR4_FILTER)
 382:.\Generated_Source\PSoC5/CapSense_1_CSHL.c ****         filteredRawData = CapSense_1_IIR4Filter(filteredRawData, CapSense_1_rawFilterData1[sensor])
 383:.\Generated_Source\PSoC5/CapSense_1_CSHL.c ****         CapSense_1_rawFilterData1[sensor] = filteredRawData;
 384:.\Generated_Source\PSoC5/CapSense_1_CSHL.c ****             
 385:.\Generated_Source\PSoC5/CapSense_1_CSHL.c ****     #elif (CapSense_1_RAW_FILTER_MASK & CapSense_1_JITTER_FILTER)
 386:.\Generated_Source\PSoC5/CapSense_1_CSHL.c ****         filteredRawData = CapSense_1_JitterFilter(filteredRawData, CapSense_1_rawFilterData1[sensor
 387:.\Generated_Source\PSoC5/CapSense_1_CSHL.c ****         CapSense_1_rawFilterData1[sensor] = filteredRawData;
 388:.\Generated_Source\PSoC5/CapSense_1_CSHL.c ****         
 389:.\Generated_Source\PSoC5/CapSense_1_CSHL.c ****     #elif (CapSense_1_RAW_FILTER_MASK & CapSense_1_IIR8_FILTER)
 390:.\Generated_Source\PSoC5/CapSense_1_CSHL.c ****         filteredRawData = CapSense_1_IIR8Filter(filteredRawData, CapSense_1_rawFilterData1[sensor])
 391:.\Generated_Source\PSoC5/CapSense_1_CSHL.c ****         CapSense_1_rawFilterData1[sensor] = filteredRawData;
 392:.\Generated_Source\PSoC5/CapSense_1_CSHL.c ****         
 393:.\Generated_Source\PSoC5/CapSense_1_CSHL.c ****     #elif (CapSense_1_RAW_FILTER_MASK & CapSense_1_IIR16_FILTER)
ARM GAS  C:\Users\user\AppData\Local\Temp\ccxeGpeX.s 			page 12


 394:.\Generated_Source\PSoC5/CapSense_1_CSHL.c ****         filteredRawData = CapSense_1_IIR16Filter(filteredRawData, CapSense_1_rawFilterData1[sensor]
 395:.\Generated_Source\PSoC5/CapSense_1_CSHL.c ****         CapSense_1_rawFilterData1[sensor] = filteredRawData;
 396:.\Generated_Source\PSoC5/CapSense_1_CSHL.c ****         
 397:.\Generated_Source\PSoC5/CapSense_1_CSHL.c ****     #else
 398:.\Generated_Source\PSoC5/CapSense_1_CSHL.c ****         /* No Raw filters */
 399:.\Generated_Source\PSoC5/CapSense_1_CSHL.c ****     #endif  /* (CapSense_1_RAW_FILTER_MASK & CapSense_1_MEDIAN_FILTER) */
 400:.\Generated_Source\PSoC5/CapSense_1_CSHL.c ****     
 401:.\Generated_Source\PSoC5/CapSense_1_CSHL.c ****     #if (CapSense_1_TUNING_METHOD == CapSense_1_AUTO_TUNING)
 402:.\Generated_Source\PSoC5/CapSense_1_CSHL.c ****         CapSense_1_CalculateThresholds(sensor);
 403:.\Generated_Source\PSoC5/CapSense_1_CSHL.c ****     #endif /* (CapSense_1_TUNING_METHOD == CapSense_1_AUTO_TUNING) */
 404:.\Generated_Source\PSoC5/CapSense_1_CSHL.c **** 
 405:.\Generated_Source\PSoC5/CapSense_1_CSHL.c **** 
 406:.\Generated_Source\PSoC5/CapSense_1_CSHL.c ****     /* Baseline calculation */
 407:.\Generated_Source\PSoC5/CapSense_1_CSHL.c ****     /* Calculate difference RawData[cur] - Baseline[prev] */
 408:.\Generated_Source\PSoC5/CapSense_1_CSHL.c ****     if(filteredRawData >= CapSense_1_sensorBaseline[sensor])
 409:.\Generated_Source\PSoC5/CapSense_1_CSHL.c ****     {
 410:.\Generated_Source\PSoC5/CapSense_1_CSHL.c ****         tempRaw = filteredRawData - CapSense_1_sensorBaseline[sensor];
 411:.\Generated_Source\PSoC5/CapSense_1_CSHL.c ****         widget = 1u;    /* Positive difference - Calculate the Signal */
 412:.\Generated_Source\PSoC5/CapSense_1_CSHL.c ****     }
 413:.\Generated_Source\PSoC5/CapSense_1_CSHL.c ****     else
 414:.\Generated_Source\PSoC5/CapSense_1_CSHL.c ****     {
 415:.\Generated_Source\PSoC5/CapSense_1_CSHL.c ****         tempRaw = CapSense_1_sensorBaseline[sensor] - filteredRawData;
 416:.\Generated_Source\PSoC5/CapSense_1_CSHL.c ****         widget = 0u;    /* Negative difference - Do NOT calculate the Signal */
 417:.\Generated_Source\PSoC5/CapSense_1_CSHL.c ****     }
 418:.\Generated_Source\PSoC5/CapSense_1_CSHL.c **** 
 419:.\Generated_Source\PSoC5/CapSense_1_CSHL.c ****     if((widget == 0u) && (tempRaw > (uint16) CapSense_1_NEGATIVE_NOISE_THRESHOLD))
 420:.\Generated_Source\PSoC5/CapSense_1_CSHL.c ****     {
 421:.\Generated_Source\PSoC5/CapSense_1_CSHL.c ****         if(CapSense_1_lowBaselineResetCnt[sensor] >= CapSense_1_LOW_BASELINE_RESET)
 422:.\Generated_Source\PSoC5/CapSense_1_CSHL.c ****         {
 423:.\Generated_Source\PSoC5/CapSense_1_CSHL.c ****             CapSense_1_BaseInit(sensor);
 424:.\Generated_Source\PSoC5/CapSense_1_CSHL.c ****             CapSense_1_lowBaselineResetCnt[sensor] = 0u;
 425:.\Generated_Source\PSoC5/CapSense_1_CSHL.c ****         }
 426:.\Generated_Source\PSoC5/CapSense_1_CSHL.c ****         else
 427:.\Generated_Source\PSoC5/CapSense_1_CSHL.c ****         {
 428:.\Generated_Source\PSoC5/CapSense_1_CSHL.c ****             CapSense_1_lowBaselineResetCnt[sensor]++;
 429:.\Generated_Source\PSoC5/CapSense_1_CSHL.c ****         }
 430:.\Generated_Source\PSoC5/CapSense_1_CSHL.c ****     }
 431:.\Generated_Source\PSoC5/CapSense_1_CSHL.c ****     else
 432:.\Generated_Source\PSoC5/CapSense_1_CSHL.c ****     {
 433:.\Generated_Source\PSoC5/CapSense_1_CSHL.c ****         #if (CapSense_1_AUTO_RESET == CapSense_1_AUTO_RESET_DISABLE)
 434:.\Generated_Source\PSoC5/CapSense_1_CSHL.c ****             /* Update Baseline if lower that noiseThreshold */
 435:.\Generated_Source\PSoC5/CapSense_1_CSHL.c ****             if ( (tempRaw <= (uint16) noiseThreshold) || 
 436:.\Generated_Source\PSoC5/CapSense_1_CSHL.c ****                  ((tempRaw < (uint16) CapSense_1_NEGATIVE_NOISE_THRESHOLD)
 437:.\Generated_Source\PSoC5/CapSense_1_CSHL.c ****                    && (widget == 0u)))
 438:.\Generated_Source\PSoC5/CapSense_1_CSHL.c ****             {
 439:.\Generated_Source\PSoC5/CapSense_1_CSHL.c ****         #endif /* (CapSense_1_AUTO_RESET == CapSense_1_AUTO_RESET_DISABLE) */
 440:.\Generated_Source\PSoC5/CapSense_1_CSHL.c ****                 /* Make full Baseline 23 bits */
 441:.\Generated_Source\PSoC5/CapSense_1_CSHL.c ****                 calc = (uint32) CapSense_1_sensorBaseline[sensor] << 8u;
 442:.\Generated_Source\PSoC5/CapSense_1_CSHL.c ****                 calc |= (uint32) CapSense_1_sensorBaselineLow[sensor];
 443:.\Generated_Source\PSoC5/CapSense_1_CSHL.c **** 
 444:.\Generated_Source\PSoC5/CapSense_1_CSHL.c ****                 /* Add Raw Data to Baseline */
 445:.\Generated_Source\PSoC5/CapSense_1_CSHL.c ****                 calc += filteredRawData;
 446:.\Generated_Source\PSoC5/CapSense_1_CSHL.c **** 
 447:.\Generated_Source\PSoC5/CapSense_1_CSHL.c ****                 /* Sub the high Baseline */
 448:.\Generated_Source\PSoC5/CapSense_1_CSHL.c ****                 calc -= CapSense_1_sensorBaseline[sensor];
 449:.\Generated_Source\PSoC5/CapSense_1_CSHL.c **** 
 450:.\Generated_Source\PSoC5/CapSense_1_CSHL.c ****                 /* Put Baseline and BaselineLow */
ARM GAS  C:\Users\user\AppData\Local\Temp\ccxeGpeX.s 			page 13


 451:.\Generated_Source\PSoC5/CapSense_1_CSHL.c ****                 CapSense_1_sensorBaseline[sensor] = ((uint16) (calc >> 8u));
 452:.\Generated_Source\PSoC5/CapSense_1_CSHL.c ****                 CapSense_1_sensorBaselineLow[sensor] = ((uint8) calc);
 453:.\Generated_Source\PSoC5/CapSense_1_CSHL.c **** 
 454:.\Generated_Source\PSoC5/CapSense_1_CSHL.c ****                 CapSense_1_lowBaselineResetCnt[sensor] = 0u;
 455:.\Generated_Source\PSoC5/CapSense_1_CSHL.c ****         #if (CapSense_1_AUTO_RESET == CapSense_1_AUTO_RESET_DISABLE)
 456:.\Generated_Source\PSoC5/CapSense_1_CSHL.c ****             }
 457:.\Generated_Source\PSoC5/CapSense_1_CSHL.c ****         #endif /* (CapSense_1_AUTO_RESET == CapSense_1_AUTO_RESET_DISABLE) */
 458:.\Generated_Source\PSoC5/CapSense_1_CSHL.c ****     }
 459:.\Generated_Source\PSoC5/CapSense_1_CSHL.c **** 
 460:.\Generated_Source\PSoC5/CapSense_1_CSHL.c ****     /* Calculate Signal if possitive difference > noiseThreshold */
 461:.\Generated_Source\PSoC5/CapSense_1_CSHL.c ****     if((tempRaw > (uint16) noiseThreshold) && (widget != 0u))
 462:.\Generated_Source\PSoC5/CapSense_1_CSHL.c ****     {
 463:.\Generated_Source\PSoC5/CapSense_1_CSHL.c ****         #if (CapSense_1_SIGNAL_SIZE == CapSense_1_SIGNAL_SIZE_UINT8)
 464:.\Generated_Source\PSoC5/CapSense_1_CSHL.c ****             /* Over flow defence for uint8 */
 465:.\Generated_Source\PSoC5/CapSense_1_CSHL.c ****             if (tempRaw > 0xFFu)
 466:.\Generated_Source\PSoC5/CapSense_1_CSHL.c ****             {
 467:.\Generated_Source\PSoC5/CapSense_1_CSHL.c ****                 CapSense_1_sensorSignal[sensor] = 0xFFu;
 468:.\Generated_Source\PSoC5/CapSense_1_CSHL.c ****             }    
 469:.\Generated_Source\PSoC5/CapSense_1_CSHL.c ****             else 
 470:.\Generated_Source\PSoC5/CapSense_1_CSHL.c ****             {
 471:.\Generated_Source\PSoC5/CapSense_1_CSHL.c ****                 CapSense_1_sensorSignal[sensor] = ((uint8) tempRaw);
 472:.\Generated_Source\PSoC5/CapSense_1_CSHL.c ****             }
 473:.\Generated_Source\PSoC5/CapSense_1_CSHL.c ****         #else
 474:.\Generated_Source\PSoC5/CapSense_1_CSHL.c ****             CapSense_1_sensorSignal[sensor] = ((uint16) tempRaw);
 475:.\Generated_Source\PSoC5/CapSense_1_CSHL.c ****         #endif  /* (CapSense_1_SIGNAL_SIZE == CapSense_1_SIGNAL_SIZE_UINT8) */
 476:.\Generated_Source\PSoC5/CapSense_1_CSHL.c ****     }
 477:.\Generated_Source\PSoC5/CapSense_1_CSHL.c ****     else
 478:.\Generated_Source\PSoC5/CapSense_1_CSHL.c ****     {
 479:.\Generated_Source\PSoC5/CapSense_1_CSHL.c ****         /* Signal is zero */
 480:.\Generated_Source\PSoC5/CapSense_1_CSHL.c ****         CapSense_1_sensorSignal[sensor] = 0u;
 481:.\Generated_Source\PSoC5/CapSense_1_CSHL.c ****     }
 482:.\Generated_Source\PSoC5/CapSense_1_CSHL.c **** 
 483:.\Generated_Source\PSoC5/CapSense_1_CSHL.c ****     #if (CapSense_1_TOTAL_GENERICS_COUNT)
 484:.\Generated_Source\PSoC5/CapSense_1_CSHL.c ****         /* Exclude generic widget */
 485:.\Generated_Source\PSoC5/CapSense_1_CSHL.c ****         }
 486:.\Generated_Source\PSoC5/CapSense_1_CSHL.c ****     #endif  /* CapSense_1_TOTAL_GENERICS_COUNT */
 487:.\Generated_Source\PSoC5/CapSense_1_CSHL.c **** }
 488:.\Generated_Source\PSoC5/CapSense_1_CSHL.c **** 
 489:.\Generated_Source\PSoC5/CapSense_1_CSHL.c **** 
 490:.\Generated_Source\PSoC5/CapSense_1_CSHL.c **** /*******************************************************************************
 491:.\Generated_Source\PSoC5/CapSense_1_CSHL.c **** * Function Name: CapSense_1_UpdateEnabledBaselines
 492:.\Generated_Source\PSoC5/CapSense_1_CSHL.c **** ********************************************************************************
 493:.\Generated_Source\PSoC5/CapSense_1_CSHL.c **** *
 494:.\Generated_Source\PSoC5/CapSense_1_CSHL.c **** * Summary:
 495:.\Generated_Source\PSoC5/CapSense_1_CSHL.c **** *  Checks CapSense_1_sensorEnableMask[] array and calls the 
 496:.\Generated_Source\PSoC5/CapSense_1_CSHL.c **** *  CapSense_1_UpdateSensorBaseline function to update the baselines 
 497:.\Generated_Source\PSoC5/CapSense_1_CSHL.c **** *  for enabled sensors.
 498:.\Generated_Source\PSoC5/CapSense_1_CSHL.c **** *
 499:.\Generated_Source\PSoC5/CapSense_1_CSHL.c **** * Parameters:
 500:.\Generated_Source\PSoC5/CapSense_1_CSHL.c **** *  None
 501:.\Generated_Source\PSoC5/CapSense_1_CSHL.c **** *
 502:.\Generated_Source\PSoC5/CapSense_1_CSHL.c **** * Return:
 503:.\Generated_Source\PSoC5/CapSense_1_CSHL.c **** *  None
 504:.\Generated_Source\PSoC5/CapSense_1_CSHL.c **** *
 505:.\Generated_Source\PSoC5/CapSense_1_CSHL.c **** * Global Variables:
 506:.\Generated_Source\PSoC5/CapSense_1_CSHL.c **** *  CapSense_1_sensorEnableMask[] - used to store the sensor scanning 
 507:.\Generated_Source\PSoC5/CapSense_1_CSHL.c **** *  state.
ARM GAS  C:\Users\user\AppData\Local\Temp\ccxeGpeX.s 			page 14


 508:.\Generated_Source\PSoC5/CapSense_1_CSHL.c **** *  CapSense_1_sensorEnableMask[0] contains the masked bits for sensors 
 509:.\Generated_Source\PSoC5/CapSense_1_CSHL.c **** *   0 through 7 (sensor 0 is bit 0, sensor 1 is bit 1).
 510:.\Generated_Source\PSoC5/CapSense_1_CSHL.c **** *  CapSense_1_sensorEnableMask[1] contains the masked bits for 
 511:.\Generated_Source\PSoC5/CapSense_1_CSHL.c **** *  sensors 8 through 15 (if needed), and so on.
 512:.\Generated_Source\PSoC5/CapSense_1_CSHL.c **** *  0 - sensor doesn't scan by CapSense_1_ScanEnabledWidgets().
 513:.\Generated_Source\PSoC5/CapSense_1_CSHL.c **** *  1 - sensor scans by CapSense_1_ScanEnabledWidgets().
 514:.\Generated_Source\PSoC5/CapSense_1_CSHL.c **** *
 515:.\Generated_Source\PSoC5/CapSense_1_CSHL.c **** * Reentrant:
 516:.\Generated_Source\PSoC5/CapSense_1_CSHL.c **** *  No
 517:.\Generated_Source\PSoC5/CapSense_1_CSHL.c **** *
 518:.\Generated_Source\PSoC5/CapSense_1_CSHL.c **** *******************************************************************************/
 519:.\Generated_Source\PSoC5/CapSense_1_CSHL.c ****  void CapSense_1_UpdateEnabledBaselines(void)
 520:.\Generated_Source\PSoC5/CapSense_1_CSHL.c ****                                  
 521:.\Generated_Source\PSoC5/CapSense_1_CSHL.c **** {
 522:.\Generated_Source\PSoC5/CapSense_1_CSHL.c ****     uint8 i;
 523:.\Generated_Source\PSoC5/CapSense_1_CSHL.c ****     uint8 pos;
 524:.\Generated_Source\PSoC5/CapSense_1_CSHL.c ****     uint8 enMask;
 525:.\Generated_Source\PSoC5/CapSense_1_CSHL.c ****     
 526:.\Generated_Source\PSoC5/CapSense_1_CSHL.c ****     for(i = 0u; i < CapSense_1_TOTAL_SENSOR_COUNT; i++)
 527:.\Generated_Source\PSoC5/CapSense_1_CSHL.c ****     {
 528:.\Generated_Source\PSoC5/CapSense_1_CSHL.c ****         pos = (i >> 3u);
 529:.\Generated_Source\PSoC5/CapSense_1_CSHL.c ****         enMask = (uint8)(0x01u << (i & 0x07u));
 530:.\Generated_Source\PSoC5/CapSense_1_CSHL.c ****         if((CapSense_1_sensorEnableMask[pos] & enMask) != 0u)
 531:.\Generated_Source\PSoC5/CapSense_1_CSHL.c ****         {
 532:.\Generated_Source\PSoC5/CapSense_1_CSHL.c ****             CapSense_1_UpdateSensorBaseline(i);
 533:.\Generated_Source\PSoC5/CapSense_1_CSHL.c ****         }
 534:.\Generated_Source\PSoC5/CapSense_1_CSHL.c ****     }
 535:.\Generated_Source\PSoC5/CapSense_1_CSHL.c **** }
 536:.\Generated_Source\PSoC5/CapSense_1_CSHL.c **** 
 537:.\Generated_Source\PSoC5/CapSense_1_CSHL.c **** 
 538:.\Generated_Source\PSoC5/CapSense_1_CSHL.c **** /*******************************************************************************
 539:.\Generated_Source\PSoC5/CapSense_1_CSHL.c **** * Function Name: CapSense_1_CheckIsSensorActive
 540:.\Generated_Source\PSoC5/CapSense_1_CSHL.c **** ********************************************************************************
 541:.\Generated_Source\PSoC5/CapSense_1_CSHL.c **** *
 542:.\Generated_Source\PSoC5/CapSense_1_CSHL.c **** * Summary:
 543:.\Generated_Source\PSoC5/CapSense_1_CSHL.c **** *  Compares the CapSense_1_SensorSignal[sensor] array element to finger
 544:.\Generated_Source\PSoC5/CapSense_1_CSHL.c **** *  threshold of widget it belongs to. The hysteresis and debounce are taken into 
 545:.\Generated_Source\PSoC5/CapSense_1_CSHL.c **** *  account. The hysteresis is added or subtracted from the finger threshold 
 546:.\Generated_Source\PSoC5/CapSense_1_CSHL.c **** *  based on whether the sensor is currently active. 
 547:.\Generated_Source\PSoC5/CapSense_1_CSHL.c **** *  If the sensor is active, the threshold is lowered by the hysteresis amount.
 548:.\Generated_Source\PSoC5/CapSense_1_CSHL.c **** *  If the sensor is inactive, the threshold is raised by the hysteresis amount.
 549:.\Generated_Source\PSoC5/CapSense_1_CSHL.c **** *  The debounce counter added to the sensor active transition.
 550:.\Generated_Source\PSoC5/CapSense_1_CSHL.c **** *  This function updates CapSense_1_SensorOnMask[] array element.
 551:.\Generated_Source\PSoC5/CapSense_1_CSHL.c **** *
 552:.\Generated_Source\PSoC5/CapSense_1_CSHL.c **** * Parameters:
 553:.\Generated_Source\PSoC5/CapSense_1_CSHL.c **** *  sensor:  Sensor number.
 554:.\Generated_Source\PSoC5/CapSense_1_CSHL.c **** *
 555:.\Generated_Source\PSoC5/CapSense_1_CSHL.c **** * Return:
 556:.\Generated_Source\PSoC5/CapSense_1_CSHL.c **** *  Returns sensor state 1 if active, 0 if not active.
 557:.\Generated_Source\PSoC5/CapSense_1_CSHL.c **** *
 558:.\Generated_Source\PSoC5/CapSense_1_CSHL.c **** * Global Variables:
 559:.\Generated_Source\PSoC5/CapSense_1_CSHL.c **** *  CapSense_1_sensorSignal[]      - used to store diffence between 
 560:.\Generated_Source\PSoC5/CapSense_1_CSHL.c **** *  current value of raw data and previous value of baseline.
 561:.\Generated_Source\PSoC5/CapSense_1_CSHL.c **** *  CapSense_1_debounceCounter[]   - used to store current debounce 
 562:.\Generated_Source\PSoC5/CapSense_1_CSHL.c **** *  counter of sensor. Widget which has this parameter are buttons, matrix 
 563:.\Generated_Source\PSoC5/CapSense_1_CSHL.c **** *  buttons, proximity, guard. All other widgets haven't debounce parameter
 564:.\Generated_Source\PSoC5/CapSense_1_CSHL.c **** *  and use the last element of this array with value 0 (it means no debounce).
ARM GAS  C:\Users\user\AppData\Local\Temp\ccxeGpeX.s 			page 15


 565:.\Generated_Source\PSoC5/CapSense_1_CSHL.c **** *  CapSense_1_sensorOnMask[] - used to store sensors on/off state.
 566:.\Generated_Source\PSoC5/CapSense_1_CSHL.c **** *  CapSense_1_sensorOnMask[0] contains the masked bits for sensors 
 567:.\Generated_Source\PSoC5/CapSense_1_CSHL.c **** *   0 through 7 (sensor 0 is bit 0, sensor 1 is bit 1).
 568:.\Generated_Source\PSoC5/CapSense_1_CSHL.c **** *  CapSense_1_sensorEnableMask[1] contains the masked bits for 
 569:.\Generated_Source\PSoC5/CapSense_1_CSHL.c **** *  sensors 8 through 15 (if needed), and so on.
 570:.\Generated_Source\PSoC5/CapSense_1_CSHL.c **** *  0 - sensor is inactive.
 571:.\Generated_Source\PSoC5/CapSense_1_CSHL.c **** *  1 - sensor is active.
 572:.\Generated_Source\PSoC5/CapSense_1_CSHL.c **** *
 573:.\Generated_Source\PSoC5/CapSense_1_CSHL.c **** * Reentrant:
 574:.\Generated_Source\PSoC5/CapSense_1_CSHL.c **** *  No
 575:.\Generated_Source\PSoC5/CapSense_1_CSHL.c **** *
 576:.\Generated_Source\PSoC5/CapSense_1_CSHL.c **** *******************************************************************************/
 577:.\Generated_Source\PSoC5/CapSense_1_CSHL.c **** uint8 CapSense_1_CheckIsSensorActive(uint8 sensor)
 578:.\Generated_Source\PSoC5/CapSense_1_CSHL.c ****                                   
 579:.\Generated_Source\PSoC5/CapSense_1_CSHL.c **** {
 231              		.loc 1 579 0
 232              		.cfi_startproc
 233              		@ args = 0, pretend = 0, frame = 0
 234              		@ frame_needed = 0, uses_anonymous_args = 0
 235              		@ link register save eliminated.
 236              	.LVL20:
 237 0000 30B4     		push	{r4, r5}
 238              		.cfi_def_cfa_offset 8
 239              		.cfi_offset 4, -8
 240              		.cfi_offset 5, -4
 580:.\Generated_Source\PSoC5/CapSense_1_CSHL.c ****     uint8 debounceIndex;
 581:.\Generated_Source\PSoC5/CapSense_1_CSHL.c ****     /* Get On/Off mask */
 582:.\Generated_Source\PSoC5/CapSense_1_CSHL.c ****     uint8 pos = (sensor >> 3u);
 241              		.loc 1 582 0
 242 0002 C208     		lsrs	r2, r0, #3
 243              	.LVL21:
 583:.\Generated_Source\PSoC5/CapSense_1_CSHL.c ****     uint8 onMask = 0x01u << (sensor & 0x07u);
 244              		.loc 1 583 0
 245 0004 00F00701 		and	r1, r0, #7
 246 0008 0123     		movs	r3, #1
 247 000a 8B40     		lsls	r3, r3, r1
 248 000c DBB2     		uxtb	r3, r3
 249              	.LVL22:
 584:.\Generated_Source\PSoC5/CapSense_1_CSHL.c ****     /* Prepare to find debounce counter index */
 585:.\Generated_Source\PSoC5/CapSense_1_CSHL.c ****     uint8 widget = CapSense_1_widgetNumber[sensor];
 250              		.loc 1 585 0
 251 000e 1549     		ldr	r1, .L27
 252 0010 0C5C     		ldrb	r4, [r1, r0]	@ zero_extendqisi2
 253              	.LVL23:
 586:.\Generated_Source\PSoC5/CapSense_1_CSHL.c ****     uint8 fingerThreshold = CapSense_1_fingerThreshold[widget];
 587:.\Generated_Source\PSoC5/CapSense_1_CSHL.c ****     uint8 hysteresis = CapSense_1_hysteresis[widget];
 588:.\Generated_Source\PSoC5/CapSense_1_CSHL.c ****     uint8 debounce = CapSense_1_debounce[widget];
 589:.\Generated_Source\PSoC5/CapSense_1_CSHL.c ****     
 590:.\Generated_Source\PSoC5/CapSense_1_CSHL.c ****     debounceIndex = widget;
 591:.\Generated_Source\PSoC5/CapSense_1_CSHL.c **** 
 592:.\Generated_Source\PSoC5/CapSense_1_CSHL.c ****     
 593:.\Generated_Source\PSoC5/CapSense_1_CSHL.c ****     /* Was on */
 594:.\Generated_Source\PSoC5/CapSense_1_CSHL.c ****     if (0u != (CapSense_1_sensorOnMask[pos] & onMask))
 254              		.loc 1 594 0
 255 0012 1549     		ldr	r1, .L27+4
 256 0014 895C     		ldrb	r1, [r1, r2]	@ zero_extendqisi2
 257 0016 1942     		tst	r1, r3
ARM GAS  C:\Users\user\AppData\Local\Temp\ccxeGpeX.s 			page 16


 258 0018 0BD0     		beq	.L21
 595:.\Generated_Source\PSoC5/CapSense_1_CSHL.c ****     {
 596:.\Generated_Source\PSoC5/CapSense_1_CSHL.c ****         /* Hysteresis minus */
 597:.\Generated_Source\PSoC5/CapSense_1_CSHL.c ****         if (CapSense_1_sensorSignal[sensor] < (fingerThreshold - hysteresis))
 259              		.loc 1 597 0
 260 001a 144D     		ldr	r5, .L27+8
 261 001c 285C     		ldrb	r0, [r5, r0]	@ zero_extendqisi2
 262              	.LVL24:
 263 001e 5928     		cmp	r0, #89
 264 0020 19DC     		bgt	.L22
 598:.\Generated_Source\PSoC5/CapSense_1_CSHL.c ****         {
 599:.\Generated_Source\PSoC5/CapSense_1_CSHL.c ****             CapSense_1_sensorOnMask[pos] &= (uint8)~onMask;
 265              		.loc 1 599 0
 266 0022 21EA0301 		bic	r1, r1, r3
 267 0026 1048     		ldr	r0, .L27+4
 268 0028 8154     		strb	r1, [r0, r2]
 600:.\Generated_Source\PSoC5/CapSense_1_CSHL.c ****             CapSense_1_debounceCounter[debounceIndex] = debounce; 
 269              		.loc 1 600 0
 270 002a 0520     		movs	r0, #5
 271 002c 1049     		ldr	r1, .L27+12
 272 002e 0855     		strb	r0, [r1, r4]
 273 0030 11E0     		b	.L22
 274              	.LVL25:
 275              	.L21:
 601:.\Generated_Source\PSoC5/CapSense_1_CSHL.c ****         }
 602:.\Generated_Source\PSoC5/CapSense_1_CSHL.c ****     }
 603:.\Generated_Source\PSoC5/CapSense_1_CSHL.c ****     else    /* Was off */
 604:.\Generated_Source\PSoC5/CapSense_1_CSHL.c ****     {
 605:.\Generated_Source\PSoC5/CapSense_1_CSHL.c ****         /* Hysteresis plus */
 606:.\Generated_Source\PSoC5/CapSense_1_CSHL.c ****         if (CapSense_1_sensorSignal[sensor] > (fingerThreshold + hysteresis))
 276              		.loc 1 606 0
 277 0032 0E4D     		ldr	r5, .L27+8
 278 0034 285C     		ldrb	r0, [r5, r0]	@ zero_extendqisi2
 279              	.LVL26:
 280 0036 6E28     		cmp	r0, #110
 281 0038 0ADD     		ble	.L23
 607:.\Generated_Source\PSoC5/CapSense_1_CSHL.c ****         {
 608:.\Generated_Source\PSoC5/CapSense_1_CSHL.c ****             /* Sensor active, decrement debounce counter */
 609:.\Generated_Source\PSoC5/CapSense_1_CSHL.c ****             if (CapSense_1_debounceCounter[debounceIndex] <= 1u)
 282              		.loc 1 609 0
 283 003a 0D48     		ldr	r0, .L27+12
 284 003c 005D     		ldrb	r0, [r0, r4]	@ zero_extendqisi2
 285 003e 0128     		cmp	r0, #1
 286 0040 02D8     		bhi	.L24
 610:.\Generated_Source\PSoC5/CapSense_1_CSHL.c ****             {
 611:.\Generated_Source\PSoC5/CapSense_1_CSHL.c ****                 CapSense_1_sensorOnMask[pos] |= onMask; 
 287              		.loc 1 611 0
 288 0042 1943     		orrs	r1, r1, r3
 289 0044 084D     		ldr	r5, .L27+4
 290 0046 A954     		strb	r1, [r5, r2]
 291              	.L24:
 612:.\Generated_Source\PSoC5/CapSense_1_CSHL.c ****             }
 613:.\Generated_Source\PSoC5/CapSense_1_CSHL.c ****             CapSense_1_debounceCounter[debounceIndex]--;
 292              		.loc 1 613 0
 293 0048 0138     		subs	r0, r0, #1
 294 004a 0949     		ldr	r1, .L27+12
 295 004c 0855     		strb	r0, [r1, r4]
ARM GAS  C:\Users\user\AppData\Local\Temp\ccxeGpeX.s 			page 17


 296 004e 02E0     		b	.L22
 297              	.L23:
 614:.\Generated_Source\PSoC5/CapSense_1_CSHL.c ****         }
 615:.\Generated_Source\PSoC5/CapSense_1_CSHL.c ****         else
 616:.\Generated_Source\PSoC5/CapSense_1_CSHL.c ****         {
 617:.\Generated_Source\PSoC5/CapSense_1_CSHL.c ****             /* Sensor inactive - reset Debounce counter */
 618:.\Generated_Source\PSoC5/CapSense_1_CSHL.c ****             CapSense_1_debounceCounter[debounceIndex] = debounce;
 298              		.loc 1 618 0
 299 0050 0520     		movs	r0, #5
 300 0052 0749     		ldr	r1, .L27+12
 301 0054 0855     		strb	r0, [r1, r4]
 302              	.L22:
 619:.\Generated_Source\PSoC5/CapSense_1_CSHL.c ****         }
 620:.\Generated_Source\PSoC5/CapSense_1_CSHL.c ****     }
 621:.\Generated_Source\PSoC5/CapSense_1_CSHL.c ****     
 622:.\Generated_Source\PSoC5/CapSense_1_CSHL.c ****     return (((CapSense_1_sensorOnMask[pos] & onMask) != 0u) ? 1u : 0u);
 303              		.loc 1 622 0
 304 0056 0449     		ldr	r1, .L27+4
 305 0058 885C     		ldrb	r0, [r1, r2]	@ zero_extendqisi2
 306 005a 1840     		ands	r0, r0, r3
 307 005c 00D0     		beq	.L25
 308 005e 0120     		movs	r0, #1
 309              	.L25:
 623:.\Generated_Source\PSoC5/CapSense_1_CSHL.c **** }
 310              		.loc 1 623 0 discriminator 4
 311 0060 30BC     		pop	{r4, r5}
 312              		.cfi_restore 5
 313              		.cfi_restore 4
 314              		.cfi_def_cfa_offset 0
 315              	.LVL27:
 316 0062 7047     		bx	lr
 317              	.L28:
 318              		.align	2
 319              	.L27:
 320 0064 00000000 		.word	CapSense_1_widgetNumber
 321 0068 00000000 		.word	CapSense_1_sensorOnMask
 322 006c 00000000 		.word	CapSense_1_sensorSignal
 323 0070 00000000 		.word	.LANCHOR0
 324              		.cfi_endproc
 325              	.LFE6:
 326              		.size	CapSense_1_CheckIsSensorActive, .-CapSense_1_CheckIsSensorActive
 327              		.section	.text.CapSense_1_CheckIsWidgetActive,"ax",%progbits
 328              		.align	2
 329              		.global	CapSense_1_CheckIsWidgetActive
 330              		.thumb
 331              		.thumb_func
 332              		.type	CapSense_1_CheckIsWidgetActive, %function
 333              	CapSense_1_CheckIsWidgetActive:
 334              	.LFB7:
 624:.\Generated_Source\PSoC5/CapSense_1_CSHL.c **** 
 625:.\Generated_Source\PSoC5/CapSense_1_CSHL.c **** 
 626:.\Generated_Source\PSoC5/CapSense_1_CSHL.c **** /*******************************************************************************
 627:.\Generated_Source\PSoC5/CapSense_1_CSHL.c **** * Function Name: CapSense_1_CheckIsWidgetActive
 628:.\Generated_Source\PSoC5/CapSense_1_CSHL.c **** ********************************************************************************
 629:.\Generated_Source\PSoC5/CapSense_1_CSHL.c **** *
 630:.\Generated_Source\PSoC5/CapSense_1_CSHL.c **** * Summary:
 631:.\Generated_Source\PSoC5/CapSense_1_CSHL.c **** *  Use function CapSense_1_CheckIsSensorActive() to update 
ARM GAS  C:\Users\user\AppData\Local\Temp\ccxeGpeX.s 			page 18


 632:.\Generated_Source\PSoC5/CapSense_1_CSHL.c **** *  CapSense_1_sensorOnMask[] for all sensors within the widget.
 633:.\Generated_Source\PSoC5/CapSense_1_CSHL.c **** *  If one of sensors within widget is active the function return that widget is 
 634:.\Generated_Source\PSoC5/CapSense_1_CSHL.c **** *  active.
 635:.\Generated_Source\PSoC5/CapSense_1_CSHL.c **** *  The touch pad and matrix buttons widgets need to have active sensor within 
 636:.\Generated_Source\PSoC5/CapSense_1_CSHL.c **** *  col and row to return widget active status.
 637:.\Generated_Source\PSoC5/CapSense_1_CSHL.c **** *
 638:.\Generated_Source\PSoC5/CapSense_1_CSHL.c **** * Parameters:
 639:.\Generated_Source\PSoC5/CapSense_1_CSHL.c **** *  widget:  widget number.
 640:.\Generated_Source\PSoC5/CapSense_1_CSHL.c **** *
 641:.\Generated_Source\PSoC5/CapSense_1_CSHL.c **** * Return:
 642:.\Generated_Source\PSoC5/CapSense_1_CSHL.c **** *  Returns widget sensor state 1 if one or more sensors within widget is/are 
 643:.\Generated_Source\PSoC5/CapSense_1_CSHL.c **** *  active, 0 if all sensors within widget are inactive.
 644:.\Generated_Source\PSoC5/CapSense_1_CSHL.c **** *
 645:.\Generated_Source\PSoC5/CapSense_1_CSHL.c **** * Reentrant:
 646:.\Generated_Source\PSoC5/CapSense_1_CSHL.c **** *  No
 647:.\Generated_Source\PSoC5/CapSense_1_CSHL.c **** *
 648:.\Generated_Source\PSoC5/CapSense_1_CSHL.c **** *******************************************************************************/
 649:.\Generated_Source\PSoC5/CapSense_1_CSHL.c **** uint8 CapSense_1_CheckIsWidgetActive(uint8 widget)
 650:.\Generated_Source\PSoC5/CapSense_1_CSHL.c ****                                  
 651:.\Generated_Source\PSoC5/CapSense_1_CSHL.c **** {
 335              		.loc 1 651 0
 336              		.cfi_startproc
 337              		@ args = 0, pretend = 0, frame = 0
 338              		@ frame_needed = 0, uses_anonymous_args = 0
 339              	.LVL28:
 340 0000 08B5     		push	{r3, lr}
 341              		.cfi_def_cfa_offset 8
 342              		.cfi_offset 3, -8
 343              		.cfi_offset 14, -4
 344              	.LVL29:
 652:.\Generated_Source\PSoC5/CapSense_1_CSHL.c ****     uint8 rawIndex = CapSense_1_rawDataIndex[widget];
 653:.\Generated_Source\PSoC5/CapSense_1_CSHL.c ****     uint8 numberOfSensors = CapSense_1_numberOfSensors[widget] + rawIndex;
 654:.\Generated_Source\PSoC5/CapSense_1_CSHL.c ****     uint8 state = 0u;
 655:.\Generated_Source\PSoC5/CapSense_1_CSHL.c **** 
 656:.\Generated_Source\PSoC5/CapSense_1_CSHL.c ****     /* Check all sensors of the widget */
 657:.\Generated_Source\PSoC5/CapSense_1_CSHL.c ****     do
 658:.\Generated_Source\PSoC5/CapSense_1_CSHL.c ****     {
 659:.\Generated_Source\PSoC5/CapSense_1_CSHL.c ****         if(CapSense_1_CheckIsSensorActive(rawIndex) != 0u)
 345              		.loc 1 659 0
 346 0002 0020     		movs	r0, #0
 347              	.LVL30:
 348 0004 FFF7FEFF 		bl	CapSense_1_CheckIsSensorActive
 349              	.LVL31:
 350 0008 00B1     		cbz	r0, .L30
 660:.\Generated_Source\PSoC5/CapSense_1_CSHL.c ****         {
 661:.\Generated_Source\PSoC5/CapSense_1_CSHL.c ****             state = CapSense_1_SENSOR_1_IS_ACTIVE;
 351              		.loc 1 661 0
 352 000a 0120     		movs	r0, #1
 353              	.L30:
 354              	.LVL32:
 662:.\Generated_Source\PSoC5/CapSense_1_CSHL.c ****         }
 663:.\Generated_Source\PSoC5/CapSense_1_CSHL.c ****         rawIndex++;
 664:.\Generated_Source\PSoC5/CapSense_1_CSHL.c ****     }
 665:.\Generated_Source\PSoC5/CapSense_1_CSHL.c ****     while(rawIndex < numberOfSensors);
 666:.\Generated_Source\PSoC5/CapSense_1_CSHL.c ****     
 667:.\Generated_Source\PSoC5/CapSense_1_CSHL.c **** 
 668:.\Generated_Source\PSoC5/CapSense_1_CSHL.c ****     
ARM GAS  C:\Users\user\AppData\Local\Temp\ccxeGpeX.s 			page 19


 669:.\Generated_Source\PSoC5/CapSense_1_CSHL.c ****     return (state);
 670:.\Generated_Source\PSoC5/CapSense_1_CSHL.c **** }
 355              		.loc 1 670 0
 356 000c 08BD     		pop	{r3, pc}
 357              		.cfi_endproc
 358              	.LFE7:
 359              		.size	CapSense_1_CheckIsWidgetActive, .-CapSense_1_CheckIsWidgetActive
 360 000e 00BF     		.section	.text.CapSense_1_CheckIsAnyWidgetActive,"ax",%progbits
 361              		.align	2
 362              		.global	CapSense_1_CheckIsAnyWidgetActive
 363              		.thumb
 364              		.thumb_func
 365              		.type	CapSense_1_CheckIsAnyWidgetActive, %function
 366              	CapSense_1_CheckIsAnyWidgetActive:
 367              	.LFB8:
 671:.\Generated_Source\PSoC5/CapSense_1_CSHL.c **** 
 672:.\Generated_Source\PSoC5/CapSense_1_CSHL.c **** 
 673:.\Generated_Source\PSoC5/CapSense_1_CSHL.c **** /*******************************************************************************
 674:.\Generated_Source\PSoC5/CapSense_1_CSHL.c **** * Function Name: CapSense_1_CheckIsAnyWidgetActive
 675:.\Generated_Source\PSoC5/CapSense_1_CSHL.c **** ********************************************************************************
 676:.\Generated_Source\PSoC5/CapSense_1_CSHL.c **** *
 677:.\Generated_Source\PSoC5/CapSense_1_CSHL.c **** * Summary:
 678:.\Generated_Source\PSoC5/CapSense_1_CSHL.c **** *  Compares all sensors of the CapSense_1_signal[] array to their finger 
 679:.\Generated_Source\PSoC5/CapSense_1_CSHL.c **** *  threshold. Calls CapSense_1_CheckIsWidgetActive() for each widget so 
 680:.\Generated_Source\PSoC5/CapSense_1_CSHL.c **** *  the CapSense_1_SensorOnMask[] array is up to date after calling this 
 681:.\Generated_Source\PSoC5/CapSense_1_CSHL.c **** *  function.
 682:.\Generated_Source\PSoC5/CapSense_1_CSHL.c **** *
 683:.\Generated_Source\PSoC5/CapSense_1_CSHL.c **** * Parameters:
 684:.\Generated_Source\PSoC5/CapSense_1_CSHL.c **** *  widget:  widget number.
 685:.\Generated_Source\PSoC5/CapSense_1_CSHL.c **** *
 686:.\Generated_Source\PSoC5/CapSense_1_CSHL.c **** * Return:
 687:.\Generated_Source\PSoC5/CapSense_1_CSHL.c **** *  Returns 1 if any widget is active, 0 none of widgets are active.
 688:.\Generated_Source\PSoC5/CapSense_1_CSHL.c **** *
 689:.\Generated_Source\PSoC5/CapSense_1_CSHL.c **** * Reentrant:
 690:.\Generated_Source\PSoC5/CapSense_1_CSHL.c **** *  No
 691:.\Generated_Source\PSoC5/CapSense_1_CSHL.c **** *
 692:.\Generated_Source\PSoC5/CapSense_1_CSHL.c **** *******************************************************************************/
 693:.\Generated_Source\PSoC5/CapSense_1_CSHL.c **** uint8 CapSense_1_CheckIsAnyWidgetActive(void)
 694:.\Generated_Source\PSoC5/CapSense_1_CSHL.c ****                                  
 695:.\Generated_Source\PSoC5/CapSense_1_CSHL.c **** {
 368              		.loc 1 695 0
 369              		.cfi_startproc
 370              		@ args = 0, pretend = 0, frame = 0
 371              		@ frame_needed = 0, uses_anonymous_args = 0
 372 0000 38B5     		push	{r3, r4, r5, lr}
 373              		.cfi_def_cfa_offset 16
 374              		.cfi_offset 3, -16
 375              		.cfi_offset 4, -12
 376              		.cfi_offset 5, -8
 377              		.cfi_offset 14, -4
 378              	.LVL33:
 696:.\Generated_Source\PSoC5/CapSense_1_CSHL.c ****     uint8 i;
 697:.\Generated_Source\PSoC5/CapSense_1_CSHL.c ****     uint8 state = 0u;
 379              		.loc 1 697 0
 380 0002 0025     		movs	r5, #0
 698:.\Generated_Source\PSoC5/CapSense_1_CSHL.c ****     
 699:.\Generated_Source\PSoC5/CapSense_1_CSHL.c ****     for(i = 0u; i < CapSense_1_TOTAL_WIDGET_COUNT; i++)
ARM GAS  C:\Users\user\AppData\Local\Temp\ccxeGpeX.s 			page 20


 381              		.loc 1 699 0
 382 0004 2C46     		mov	r4, r5
 383 0006 06E0     		b	.L34
 384              	.LVL34:
 385              	.L36:
 700:.\Generated_Source\PSoC5/CapSense_1_CSHL.c ****     {
 701:.\Generated_Source\PSoC5/CapSense_1_CSHL.c ****         if (CapSense_1_CheckIsWidgetActive(i) != 0u)
 386              		.loc 1 701 0
 387 0008 2046     		mov	r0, r4
 388 000a FFF7FEFF 		bl	CapSense_1_CheckIsWidgetActive
 389              	.LVL35:
 390 000e 00B1     		cbz	r0, .L35
 702:.\Generated_Source\PSoC5/CapSense_1_CSHL.c ****         {
 703:.\Generated_Source\PSoC5/CapSense_1_CSHL.c ****             state = CapSense_1_WIDGET_IS_ACTIVE;
 391              		.loc 1 703 0
 392 0010 0125     		movs	r5, #1
 393              	.LVL36:
 394              	.L35:
 699:.\Generated_Source\PSoC5/CapSense_1_CSHL.c ****     {
 395              		.loc 1 699 0 discriminator 2
 396 0012 0134     		adds	r4, r4, #1
 397              	.LVL37:
 398 0014 E4B2     		uxtb	r4, r4
 399              	.LVL38:
 400              	.L34:
 699:.\Generated_Source\PSoC5/CapSense_1_CSHL.c ****     {
 401              		.loc 1 699 0 is_stmt 0 discriminator 1
 402 0016 002C     		cmp	r4, #0
 403 0018 F6D0     		beq	.L36
 704:.\Generated_Source\PSoC5/CapSense_1_CSHL.c ****         }
 705:.\Generated_Source\PSoC5/CapSense_1_CSHL.c ****     }
 706:.\Generated_Source\PSoC5/CapSense_1_CSHL.c ****     
 707:.\Generated_Source\PSoC5/CapSense_1_CSHL.c **** 
 708:.\Generated_Source\PSoC5/CapSense_1_CSHL.c ****     return (state);
 709:.\Generated_Source\PSoC5/CapSense_1_CSHL.c **** }
 404              		.loc 1 709 0 is_stmt 1
 405 001a 2846     		mov	r0, r5
 406 001c 38BD     		pop	{r3, r4, r5, pc}
 407              		.cfi_endproc
 408              	.LFE8:
 409              		.size	CapSense_1_CheckIsAnyWidgetActive, .-CapSense_1_CheckIsAnyWidgetActive
 410 001e 00BF     		.section	.text.CapSense_1_EnableWidget,"ax",%progbits
 411              		.align	2
 412              		.global	CapSense_1_EnableWidget
 413              		.thumb
 414              		.thumb_func
 415              		.type	CapSense_1_EnableWidget, %function
 416              	CapSense_1_EnableWidget:
 417              	.LFB9:
 710:.\Generated_Source\PSoC5/CapSense_1_CSHL.c **** 
 711:.\Generated_Source\PSoC5/CapSense_1_CSHL.c **** 
 712:.\Generated_Source\PSoC5/CapSense_1_CSHL.c **** /*******************************************************************************
 713:.\Generated_Source\PSoC5/CapSense_1_CSHL.c **** * Function Name: CapSense_1_EnableWidget
 714:.\Generated_Source\PSoC5/CapSense_1_CSHL.c **** ********************************************************************************
 715:.\Generated_Source\PSoC5/CapSense_1_CSHL.c **** *
 716:.\Generated_Source\PSoC5/CapSense_1_CSHL.c **** * Summary:
 717:.\Generated_Source\PSoC5/CapSense_1_CSHL.c **** *  Enable all widget elements (sensors) to scanning process.
ARM GAS  C:\Users\user\AppData\Local\Temp\ccxeGpeX.s 			page 21


 718:.\Generated_Source\PSoC5/CapSense_1_CSHL.c **** *
 719:.\Generated_Source\PSoC5/CapSense_1_CSHL.c **** * Parameters:
 720:.\Generated_Source\PSoC5/CapSense_1_CSHL.c **** *  widget:  widget number.
 721:.\Generated_Source\PSoC5/CapSense_1_CSHL.c **** *
 722:.\Generated_Source\PSoC5/CapSense_1_CSHL.c **** * Return:
 723:.\Generated_Source\PSoC5/CapSense_1_CSHL.c **** *  None
 724:.\Generated_Source\PSoC5/CapSense_1_CSHL.c **** *
 725:.\Generated_Source\PSoC5/CapSense_1_CSHL.c **** * Global Variables:
 726:.\Generated_Source\PSoC5/CapSense_1_CSHL.c **** *  CapSense_1_sensorEnableMask[] - used to store the sensor scanning 
 727:.\Generated_Source\PSoC5/CapSense_1_CSHL.c **** *  state.
 728:.\Generated_Source\PSoC5/CapSense_1_CSHL.c **** *  CapSense_1_sensorEnableMask[0] contains the masked bits for sensors 
 729:.\Generated_Source\PSoC5/CapSense_1_CSHL.c **** *  0 through 7 (sensor 0 is bit 0, sensor 1 is bit 1).
 730:.\Generated_Source\PSoC5/CapSense_1_CSHL.c **** *  CapSense_1_sensorEnableMask[1] contains the masked bits for 
 731:.\Generated_Source\PSoC5/CapSense_1_CSHL.c **** *  sensors 8 through 15 (if needed), and so on.
 732:.\Generated_Source\PSoC5/CapSense_1_CSHL.c **** *  0 - sensor doesn't scan by CapSense_1_ScanEnabledWidgets().
 733:.\Generated_Source\PSoC5/CapSense_1_CSHL.c **** *  1 - sensor scans by CapSense_1_ScanEnabledWidgets().
 734:.\Generated_Source\PSoC5/CapSense_1_CSHL.c **** *
 735:.\Generated_Source\PSoC5/CapSense_1_CSHL.c **** * Reentrant:
 736:.\Generated_Source\PSoC5/CapSense_1_CSHL.c **** *  No
 737:.\Generated_Source\PSoC5/CapSense_1_CSHL.c **** *
 738:.\Generated_Source\PSoC5/CapSense_1_CSHL.c **** *******************************************************************************/
 739:.\Generated_Source\PSoC5/CapSense_1_CSHL.c **** void CapSense_1_EnableWidget(uint8 widget)
 740:.\Generated_Source\PSoC5/CapSense_1_CSHL.c ****                                    
 741:.\Generated_Source\PSoC5/CapSense_1_CSHL.c **** {
 418              		.loc 1 741 0
 419              		.cfi_startproc
 420              		@ args = 0, pretend = 0, frame = 0
 421              		@ frame_needed = 0, uses_anonymous_args = 0
 422              		@ link register save eliminated.
 423              	.LVL39:
 742:.\Generated_Source\PSoC5/CapSense_1_CSHL.c ****     uint8 pos;
 743:.\Generated_Source\PSoC5/CapSense_1_CSHL.c ****     uint8 enMask;
 744:.\Generated_Source\PSoC5/CapSense_1_CSHL.c ****     uint8 rawIndex = CapSense_1_rawDataIndex[widget];
 745:.\Generated_Source\PSoC5/CapSense_1_CSHL.c ****     uint8 numberOfSensors = CapSense_1_numberOfSensors[widget] + rawIndex;
 746:.\Generated_Source\PSoC5/CapSense_1_CSHL.c ****     
 747:.\Generated_Source\PSoC5/CapSense_1_CSHL.c ****     /* Enable all sensors of the widget */
 748:.\Generated_Source\PSoC5/CapSense_1_CSHL.c ****     do
 749:.\Generated_Source\PSoC5/CapSense_1_CSHL.c ****     {
 750:.\Generated_Source\PSoC5/CapSense_1_CSHL.c ****         pos = (rawIndex >> 3u);
 751:.\Generated_Source\PSoC5/CapSense_1_CSHL.c ****         enMask = 0x01u << (rawIndex & 0x07u);
 752:.\Generated_Source\PSoC5/CapSense_1_CSHL.c ****         
 753:.\Generated_Source\PSoC5/CapSense_1_CSHL.c ****         CapSense_1_sensorEnableMask[pos] |= enMask;
 424              		.loc 1 753 0
 425 0000 024A     		ldr	r2, .L40
 426 0002 1378     		ldrb	r3, [r2]	@ zero_extendqisi2
 427 0004 43F00103 		orr	r3, r3, #1
 428 0008 1370     		strb	r3, [r2]
 429              	.LVL40:
 430 000a 7047     		bx	lr
 431              	.L41:
 432              		.align	2
 433              	.L40:
 434 000c 00000000 		.word	CapSense_1_sensorEnableMask
 435              		.cfi_endproc
 436              	.LFE9:
 437              		.size	CapSense_1_EnableWidget, .-CapSense_1_EnableWidget
 438              		.section	.text.CapSense_1_DisableWidget,"ax",%progbits
ARM GAS  C:\Users\user\AppData\Local\Temp\ccxeGpeX.s 			page 22


 439              		.align	2
 440              		.global	CapSense_1_DisableWidget
 441              		.thumb
 442              		.thumb_func
 443              		.type	CapSense_1_DisableWidget, %function
 444              	CapSense_1_DisableWidget:
 445              	.LFB10:
 754:.\Generated_Source\PSoC5/CapSense_1_CSHL.c ****         rawIndex++;
 755:.\Generated_Source\PSoC5/CapSense_1_CSHL.c ****     }
 756:.\Generated_Source\PSoC5/CapSense_1_CSHL.c ****     while(rawIndex < numberOfSensors);
 757:.\Generated_Source\PSoC5/CapSense_1_CSHL.c ****     
 758:.\Generated_Source\PSoC5/CapSense_1_CSHL.c **** 
 759:.\Generated_Source\PSoC5/CapSense_1_CSHL.c **** }
 760:.\Generated_Source\PSoC5/CapSense_1_CSHL.c **** 
 761:.\Generated_Source\PSoC5/CapSense_1_CSHL.c **** 
 762:.\Generated_Source\PSoC5/CapSense_1_CSHL.c **** /*******************************************************************************
 763:.\Generated_Source\PSoC5/CapSense_1_CSHL.c **** * Function Name: CapSense_1_DisableWidget
 764:.\Generated_Source\PSoC5/CapSense_1_CSHL.c **** ********************************************************************************
 765:.\Generated_Source\PSoC5/CapSense_1_CSHL.c **** *
 766:.\Generated_Source\PSoC5/CapSense_1_CSHL.c **** * Summary:
 767:.\Generated_Source\PSoC5/CapSense_1_CSHL.c **** *  Disable all widget elements (sensors) from scanning process.
 768:.\Generated_Source\PSoC5/CapSense_1_CSHL.c **** *
 769:.\Generated_Source\PSoC5/CapSense_1_CSHL.c **** * Parameters:
 770:.\Generated_Source\PSoC5/CapSense_1_CSHL.c **** *  widget:  widget number.
 771:.\Generated_Source\PSoC5/CapSense_1_CSHL.c **** *
 772:.\Generated_Source\PSoC5/CapSense_1_CSHL.c **** * Return:
 773:.\Generated_Source\PSoC5/CapSense_1_CSHL.c **** *  None
 774:.\Generated_Source\PSoC5/CapSense_1_CSHL.c **** *
 775:.\Generated_Source\PSoC5/CapSense_1_CSHL.c **** * Global Variables:
 776:.\Generated_Source\PSoC5/CapSense_1_CSHL.c **** *  CapSense_1_sensorEnableMask[] - used to store the sensor scanning 
 777:.\Generated_Source\PSoC5/CapSense_1_CSHL.c **** *  state.
 778:.\Generated_Source\PSoC5/CapSense_1_CSHL.c **** *  CapSense_1_sensorEnableMask[0] contains the masked bits for sensors 
 779:.\Generated_Source\PSoC5/CapSense_1_CSHL.c **** *  0 through 7 (sensor 0 is bit 0, sensor 1 is bit 1).
 780:.\Generated_Source\PSoC5/CapSense_1_CSHL.c **** *  CapSense_1_sensorEnableMask[1] contains the masked bits for 
 781:.\Generated_Source\PSoC5/CapSense_1_CSHL.c **** *  sensors 8 through 15 (if needed), and so on.
 782:.\Generated_Source\PSoC5/CapSense_1_CSHL.c **** *  0 - sensor doesn't scan by CapSense_1_ScanEnabledWidgets().
 783:.\Generated_Source\PSoC5/CapSense_1_CSHL.c **** *  1 - sensor scans by CapSense_1_ScanEnabledWidgets().
 784:.\Generated_Source\PSoC5/CapSense_1_CSHL.c **** *
 785:.\Generated_Source\PSoC5/CapSense_1_CSHL.c **** * Reentrant:
 786:.\Generated_Source\PSoC5/CapSense_1_CSHL.c **** *  No
 787:.\Generated_Source\PSoC5/CapSense_1_CSHL.c **** *
 788:.\Generated_Source\PSoC5/CapSense_1_CSHL.c **** *******************************************************************************/
 789:.\Generated_Source\PSoC5/CapSense_1_CSHL.c **** void CapSense_1_DisableWidget(uint8 widget)
 790:.\Generated_Source\PSoC5/CapSense_1_CSHL.c ****                                     
 791:.\Generated_Source\PSoC5/CapSense_1_CSHL.c **** {
 446              		.loc 1 791 0
 447              		.cfi_startproc
 448              		@ args = 0, pretend = 0, frame = 0
 449              		@ frame_needed = 0, uses_anonymous_args = 0
 450              		@ link register save eliminated.
 451              	.LVL41:
 792:.\Generated_Source\PSoC5/CapSense_1_CSHL.c ****     uint8 pos;
 793:.\Generated_Source\PSoC5/CapSense_1_CSHL.c ****     uint8 enMask;
 794:.\Generated_Source\PSoC5/CapSense_1_CSHL.c ****     uint8 rawIndex = CapSense_1_rawDataIndex[widget];
 795:.\Generated_Source\PSoC5/CapSense_1_CSHL.c ****     uint8 numberOfSensors = CapSense_1_numberOfSensors[widget] + rawIndex;
 796:.\Generated_Source\PSoC5/CapSense_1_CSHL.c ****    
 797:.\Generated_Source\PSoC5/CapSense_1_CSHL.c ****     /* Disable all sensors of the widget */
ARM GAS  C:\Users\user\AppData\Local\Temp\ccxeGpeX.s 			page 23


 798:.\Generated_Source\PSoC5/CapSense_1_CSHL.c ****     do
 799:.\Generated_Source\PSoC5/CapSense_1_CSHL.c ****     {
 800:.\Generated_Source\PSoC5/CapSense_1_CSHL.c ****         pos = (rawIndex >> 3u);
 801:.\Generated_Source\PSoC5/CapSense_1_CSHL.c ****         enMask = 0x01u << (rawIndex & 0x07u);
 802:.\Generated_Source\PSoC5/CapSense_1_CSHL.c ****         
 803:.\Generated_Source\PSoC5/CapSense_1_CSHL.c ****         CapSense_1_sensorEnableMask[pos] &= (uint8)~enMask;
 452              		.loc 1 803 0
 453 0000 024A     		ldr	r2, .L43
 454 0002 1378     		ldrb	r3, [r2]	@ zero_extendqisi2
 455 0004 23F00103 		bic	r3, r3, #1
 456 0008 1370     		strb	r3, [r2]
 457              	.LVL42:
 458 000a 7047     		bx	lr
 459              	.L44:
 460              		.align	2
 461              	.L43:
 462 000c 00000000 		.word	CapSense_1_sensorEnableMask
 463              		.cfi_endproc
 464              	.LFE10:
 465              		.size	CapSense_1_DisableWidget, .-CapSense_1_DisableWidget
 466              		.section	.text.CapSense_1_IIR4Filter,"ax",%progbits
 467              		.align	2
 468              		.global	CapSense_1_IIR4Filter
 469              		.thumb
 470              		.thumb_func
 471              		.type	CapSense_1_IIR4Filter, %function
 472              	CapSense_1_IIR4Filter:
 473              	.LFB11:
 804:.\Generated_Source\PSoC5/CapSense_1_CSHL.c ****         rawIndex++;
 805:.\Generated_Source\PSoC5/CapSense_1_CSHL.c ****     }
 806:.\Generated_Source\PSoC5/CapSense_1_CSHL.c ****     while(rawIndex < numberOfSensors);
 807:.\Generated_Source\PSoC5/CapSense_1_CSHL.c ****     
 808:.\Generated_Source\PSoC5/CapSense_1_CSHL.c **** 
 809:.\Generated_Source\PSoC5/CapSense_1_CSHL.c **** }
 810:.\Generated_Source\PSoC5/CapSense_1_CSHL.c **** #if(CapSense_1_TOTAL_CENTROIDS_COUNT)
 811:.\Generated_Source\PSoC5/CapSense_1_CSHL.c ****     /*******************************************************************************
 812:.\Generated_Source\PSoC5/CapSense_1_CSHL.c ****     * Function Name: CapSense_1_FindMaximum
 813:.\Generated_Source\PSoC5/CapSense_1_CSHL.c ****     ********************************************************************************
 814:.\Generated_Source\PSoC5/CapSense_1_CSHL.c ****     *
 815:.\Generated_Source\PSoC5/CapSense_1_CSHL.c ****     * Summary:
 816:.\Generated_Source\PSoC5/CapSense_1_CSHL.c ****     *  Finds index of maximum element within defined centroid. Checks 
 817:.\Generated_Source\PSoC5/CapSense_1_CSHL.c ****     *  CapSense_1_SensorSignal[] within defined cenrtoid and 
 818:.\Generated_Source\PSoC5/CapSense_1_CSHL.c ****     *  returns index of maximum element. The values below finger threshold are 
 819:.\Generated_Source\PSoC5/CapSense_1_CSHL.c ****     *  ignored.
 820:.\Generated_Source\PSoC5/CapSense_1_CSHL.c ****     *  The centrod defines by offset of first element and number of elements - count.
 821:.\Generated_Source\PSoC5/CapSense_1_CSHL.c ****     *  The diplexed centroid requires at least consecutive two elements above
 822:.\Generated_Source\PSoC5/CapSense_1_CSHL.c ****     *  FingerThreshold to find index of maximum element.
 823:.\Generated_Source\PSoC5/CapSense_1_CSHL.c ****     * 
 824:.\Generated_Source\PSoC5/CapSense_1_CSHL.c ****     * Parameters:
 825:.\Generated_Source\PSoC5/CapSense_1_CSHL.c ****     *  offset:  Start index of cetroid in CapSense_1_sensorSignal[] array.
 826:.\Generated_Source\PSoC5/CapSense_1_CSHL.c ****     *  count:   number of elements within centroid.
 827:.\Generated_Source\PSoC5/CapSense_1_CSHL.c ****     *  fingerThreshold:  Finger threshould.
 828:.\Generated_Source\PSoC5/CapSense_1_CSHL.c ****     *  diplex:   pointer to diplex table.
 829:.\Generated_Source\PSoC5/CapSense_1_CSHL.c ****     * 
 830:.\Generated_Source\PSoC5/CapSense_1_CSHL.c ****     * Return:
 831:.\Generated_Source\PSoC5/CapSense_1_CSHL.c ****     *  Returns index of maximum element within defined centroid.
 832:.\Generated_Source\PSoC5/CapSense_1_CSHL.c ****     *  If index of maximum element doesn't find the 0xFF returns.
ARM GAS  C:\Users\user\AppData\Local\Temp\ccxeGpeX.s 			page 24


 833:.\Generated_Source\PSoC5/CapSense_1_CSHL.c ****     * 
 834:.\Generated_Source\PSoC5/CapSense_1_CSHL.c ****     *******************************************************************************/
 835:.\Generated_Source\PSoC5/CapSense_1_CSHL.c ****     #if (CapSense_1_IS_DIPLEX_SLIDER)
 836:.\Generated_Source\PSoC5/CapSense_1_CSHL.c ****         uint8 CapSense_1_FindMaximum(uint8 offset, uint8 count, uint8 fingerThreshold, const uint8 
 837:.\Generated_Source\PSoC5/CapSense_1_CSHL.c **** 	                                       
 838:.\Generated_Source\PSoC5/CapSense_1_CSHL.c ****     #else 
 839:.\Generated_Source\PSoC5/CapSense_1_CSHL.c ****         uint8 CapSense_1_FindMaximum(uint8 offset, uint8 count, uint8 fingerThreshold)
 840:.\Generated_Source\PSoC5/CapSense_1_CSHL.c **** 	                                       
 841:.\Generated_Source\PSoC5/CapSense_1_CSHL.c ****     #endif /* (CapSense_1_IS_DIPLEX_SLIDER) */
 842:.\Generated_Source\PSoC5/CapSense_1_CSHL.c ****     {
 843:.\Generated_Source\PSoC5/CapSense_1_CSHL.c ****         uint8 i;
 844:.\Generated_Source\PSoC5/CapSense_1_CSHL.c ****         #if (CapSense_1_IS_DIPLEX_SLIDER)        
 845:.\Generated_Source\PSoC5/CapSense_1_CSHL.c ****             uint8 curPos = 0u;
 846:.\Generated_Source\PSoC5/CapSense_1_CSHL.c ****             /* No centroid at the Start */
 847:.\Generated_Source\PSoC5/CapSense_1_CSHL.c ****             uint8 curCntrdSize = 0u;
 848:.\Generated_Source\PSoC5/CapSense_1_CSHL.c ****             uint8 curCtrdStartPos = 0xFFu;
 849:.\Generated_Source\PSoC5/CapSense_1_CSHL.c ****             /* The biggset centroid is zero */
 850:.\Generated_Source\PSoC5/CapSense_1_CSHL.c ****             uint8 biggestCtrdSize = 0u;
 851:.\Generated_Source\PSoC5/CapSense_1_CSHL.c ****             uint8 biggestCtrdStartPos = 0u;
 852:.\Generated_Source\PSoC5/CapSense_1_CSHL.c ****         #endif /* (CapSense_1_IS_DIPLEX_SLIDER) */
 853:.\Generated_Source\PSoC5/CapSense_1_CSHL.c ****         uint8 maximum = 0xFFu;
 854:.\Generated_Source\PSoC5/CapSense_1_CSHL.c ****         uint8 temp = 0u;
 855:.\Generated_Source\PSoC5/CapSense_1_CSHL.c ****         uint8 *startOfSlider = &CapSense_1_sensorSignal[offset]; 
 856:.\Generated_Source\PSoC5/CapSense_1_CSHL.c **** 
 857:.\Generated_Source\PSoC5/CapSense_1_CSHL.c ****         #if (CapSense_1_IS_DIPLEX_SLIDER)        
 858:.\Generated_Source\PSoC5/CapSense_1_CSHL.c ****             if(diplex != 0u)
 859:.\Generated_Source\PSoC5/CapSense_1_CSHL.c ****             {
 860:.\Generated_Source\PSoC5/CapSense_1_CSHL.c ****                 /* Initialize */
 861:.\Generated_Source\PSoC5/CapSense_1_CSHL.c ****                 i = 0u;
 862:.\Generated_Source\PSoC5/CapSense_1_CSHL.c ****                 
 863:.\Generated_Source\PSoC5/CapSense_1_CSHL.c ****                 /* Make slider x2 as Diplexed */
 864:.\Generated_Source\PSoC5/CapSense_1_CSHL.c ****                 count <<= 1u;
 865:.\Generated_Source\PSoC5/CapSense_1_CSHL.c ****                 while(1u)
 866:.\Generated_Source\PSoC5/CapSense_1_CSHL.c ****                 { 
 867:.\Generated_Source\PSoC5/CapSense_1_CSHL.c ****                     if (startOfSlider[curPos] > 0u)    /* Looking for centroids */
 868:.\Generated_Source\PSoC5/CapSense_1_CSHL.c ****                     {
 869:.\Generated_Source\PSoC5/CapSense_1_CSHL.c ****                         if (curCtrdStartPos == 0xFFu)
 870:.\Generated_Source\PSoC5/CapSense_1_CSHL.c ****                         {
 871:.\Generated_Source\PSoC5/CapSense_1_CSHL.c ****                             /* Start of centroid */
 872:.\Generated_Source\PSoC5/CapSense_1_CSHL.c ****                             curCtrdStartPos = i;
 873:.\Generated_Source\PSoC5/CapSense_1_CSHL.c ****                             curCntrdSize++;
 874:.\Generated_Source\PSoC5/CapSense_1_CSHL.c ****                         }
 875:.\Generated_Source\PSoC5/CapSense_1_CSHL.c ****                         else
 876:.\Generated_Source\PSoC5/CapSense_1_CSHL.c ****                         {
 877:.\Generated_Source\PSoC5/CapSense_1_CSHL.c ****                             curCntrdSize++;
 878:.\Generated_Source\PSoC5/CapSense_1_CSHL.c ****                         }
 879:.\Generated_Source\PSoC5/CapSense_1_CSHL.c ****                     }
 880:.\Generated_Source\PSoC5/CapSense_1_CSHL.c ****                     else   /* Select the bigest and indicate zero start */
 881:.\Generated_Source\PSoC5/CapSense_1_CSHL.c ****                     {          
 882:.\Generated_Source\PSoC5/CapSense_1_CSHL.c ****                         if(curCntrdSize > 0u)
 883:.\Generated_Source\PSoC5/CapSense_1_CSHL.c ****                         {
 884:.\Generated_Source\PSoC5/CapSense_1_CSHL.c ****                             /* We are in the end of current */
 885:.\Generated_Source\PSoC5/CapSense_1_CSHL.c ****                             if(curCntrdSize > biggestCtrdSize)
 886:.\Generated_Source\PSoC5/CapSense_1_CSHL.c ****                             {
 887:.\Generated_Source\PSoC5/CapSense_1_CSHL.c ****                                 biggestCtrdSize = curCntrdSize;
 888:.\Generated_Source\PSoC5/CapSense_1_CSHL.c ****                                 biggestCtrdStartPos = curCtrdStartPos;
 889:.\Generated_Source\PSoC5/CapSense_1_CSHL.c ****                             }
ARM GAS  C:\Users\user\AppData\Local\Temp\ccxeGpeX.s 			page 25


 890:.\Generated_Source\PSoC5/CapSense_1_CSHL.c ****                             
 891:.\Generated_Source\PSoC5/CapSense_1_CSHL.c ****                             curCntrdSize = 0u;
 892:.\Generated_Source\PSoC5/CapSense_1_CSHL.c ****                             curCtrdStartPos = 0xFFu;
 893:.\Generated_Source\PSoC5/CapSense_1_CSHL.c ****                         }
 894:.\Generated_Source\PSoC5/CapSense_1_CSHL.c ****                     }
 895:.\Generated_Source\PSoC5/CapSense_1_CSHL.c ****                     
 896:.\Generated_Source\PSoC5/CapSense_1_CSHL.c ****                     i++; 
 897:.\Generated_Source\PSoC5/CapSense_1_CSHL.c ****                     curPos = diplex[i];
 898:.\Generated_Source\PSoC5/CapSense_1_CSHL.c ****                     if(i == count)
 899:.\Generated_Source\PSoC5/CapSense_1_CSHL.c ****                     {
 900:.\Generated_Source\PSoC5/CapSense_1_CSHL.c ****                         break;
 901:.\Generated_Source\PSoC5/CapSense_1_CSHL.c ****                     }            
 902:.\Generated_Source\PSoC5/CapSense_1_CSHL.c ****                 }
 903:.\Generated_Source\PSoC5/CapSense_1_CSHL.c ****                     
 904:.\Generated_Source\PSoC5/CapSense_1_CSHL.c ****                     /* Find the biggest centroid if two are the same size, last one wins
 905:.\Generated_Source\PSoC5/CapSense_1_CSHL.c ****                        We are in the end of current */
 906:.\Generated_Source\PSoC5/CapSense_1_CSHL.c ****                 if (curCntrdSize >= biggestCtrdSize) 
 907:.\Generated_Source\PSoC5/CapSense_1_CSHL.c ****                 {
 908:.\Generated_Source\PSoC5/CapSense_1_CSHL.c ****                     biggestCtrdSize = curCntrdSize;
 909:.\Generated_Source\PSoC5/CapSense_1_CSHL.c ****                     biggestCtrdStartPos = curCtrdStartPos;
 910:.\Generated_Source\PSoC5/CapSense_1_CSHL.c ****                 }
 911:.\Generated_Source\PSoC5/CapSense_1_CSHL.c ****             }
 912:.\Generated_Source\PSoC5/CapSense_1_CSHL.c ****             else
 913:.\Generated_Source\PSoC5/CapSense_1_CSHL.c ****             {
 914:.\Generated_Source\PSoC5/CapSense_1_CSHL.c ****                 /* Without diplexing */ 
 915:.\Generated_Source\PSoC5/CapSense_1_CSHL.c ****                 biggestCtrdSize = count;
 916:.\Generated_Source\PSoC5/CapSense_1_CSHL.c ****             }
 917:.\Generated_Source\PSoC5/CapSense_1_CSHL.c ****                         
 918:.\Generated_Source\PSoC5/CapSense_1_CSHL.c **** 
 919:.\Generated_Source\PSoC5/CapSense_1_CSHL.c ****             /* Check centroid size */
 920:.\Generated_Source\PSoC5/CapSense_1_CSHL.c ****             #if (CapSense_1_IS_NON_DIPLEX_SLIDER)
 921:.\Generated_Source\PSoC5/CapSense_1_CSHL.c ****                 if((biggestCtrdSize >= 2u) || ((biggestCtrdSize == 1u) && (diplex == 0u)))
 922:.\Generated_Source\PSoC5/CapSense_1_CSHL.c ****             #else                    
 923:.\Generated_Source\PSoC5/CapSense_1_CSHL.c ****                 if(biggestCtrdSize >= 2u)
 924:.\Generated_Source\PSoC5/CapSense_1_CSHL.c ****             #endif /* (CapSense_1_IS_NON_DIPLEX_SLIDER) */
 925:.\Generated_Source\PSoC5/CapSense_1_CSHL.c ****                 {
 926:.\Generated_Source\PSoC5/CapSense_1_CSHL.c ****                     for (i = biggestCtrdStartPos; i < (biggestCtrdStartPos + biggestCtrdSize); i++)
 927:.\Generated_Source\PSoC5/CapSense_1_CSHL.c ****                     {
 928:.\Generated_Source\PSoC5/CapSense_1_CSHL.c ****                         #if (CapSense_1_IS_DIPLEX_SLIDER && CapSense_1_IS_NON_DIPLEX_SLIDER)
 929:.\Generated_Source\PSoC5/CapSense_1_CSHL.c ****                             if (diplex == 0u)
 930:.\Generated_Source\PSoC5/CapSense_1_CSHL.c ****                             {
 931:.\Generated_Source\PSoC5/CapSense_1_CSHL.c ****                                 curPos = i;
 932:.\Generated_Source\PSoC5/CapSense_1_CSHL.c ****                             }
 933:.\Generated_Source\PSoC5/CapSense_1_CSHL.c ****                             else
 934:.\Generated_Source\PSoC5/CapSense_1_CSHL.c ****                             {
 935:.\Generated_Source\PSoC5/CapSense_1_CSHL.c ****                                 curPos = diplex[i];
 936:.\Generated_Source\PSoC5/CapSense_1_CSHL.c ****                             }                    
 937:.\Generated_Source\PSoC5/CapSense_1_CSHL.c ****                         #elif (CapSense_1_IS_DIPLEX_SLIDER)                    
 938:.\Generated_Source\PSoC5/CapSense_1_CSHL.c ****                             curPos = diplex[i];                    
 939:.\Generated_Source\PSoC5/CapSense_1_CSHL.c ****                         #endif /* (CapSense_1_IS_DIPLEX_SLIDER && CapSense_1_IS_NON_DIPLEX_SLIDER) 
 940:.\Generated_Source\PSoC5/CapSense_1_CSHL.c ****                         /* Looking for the grater element within centroid */
 941:.\Generated_Source\PSoC5/CapSense_1_CSHL.c ****                         if(startOfSlider[curPos] > fingerThreshold)
 942:.\Generated_Source\PSoC5/CapSense_1_CSHL.c ****                         {
 943:.\Generated_Source\PSoC5/CapSense_1_CSHL.c ****                             if(startOfSlider[curPos] > temp)
 944:.\Generated_Source\PSoC5/CapSense_1_CSHL.c ****                             {
 945:.\Generated_Source\PSoC5/CapSense_1_CSHL.c ****                                 maximum = i;
 946:.\Generated_Source\PSoC5/CapSense_1_CSHL.c ****                                 temp = startOfSlider[curPos];
ARM GAS  C:\Users\user\AppData\Local\Temp\ccxeGpeX.s 			page 26


 947:.\Generated_Source\PSoC5/CapSense_1_CSHL.c ****                             }
 948:.\Generated_Source\PSoC5/CapSense_1_CSHL.c ****                         }
 949:.\Generated_Source\PSoC5/CapSense_1_CSHL.c ****                     }
 950:.\Generated_Source\PSoC5/CapSense_1_CSHL.c ****                 } 
 951:.\Generated_Source\PSoC5/CapSense_1_CSHL.c ****         #else
 952:.\Generated_Source\PSoC5/CapSense_1_CSHL.c ****             for (i = 0u; i < count; i++)
 953:.\Generated_Source\PSoC5/CapSense_1_CSHL.c ****             {                      
 954:.\Generated_Source\PSoC5/CapSense_1_CSHL.c ****                 /* Looking for the grater element within centroid */
 955:.\Generated_Source\PSoC5/CapSense_1_CSHL.c ****                 if(startOfSlider[i] > fingerThreshold)
 956:.\Generated_Source\PSoC5/CapSense_1_CSHL.c ****                 {
 957:.\Generated_Source\PSoC5/CapSense_1_CSHL.c ****                     if(startOfSlider[i] > temp)
 958:.\Generated_Source\PSoC5/CapSense_1_CSHL.c ****                     {
 959:.\Generated_Source\PSoC5/CapSense_1_CSHL.c ****                         maximum = i;
 960:.\Generated_Source\PSoC5/CapSense_1_CSHL.c ****                         temp = startOfSlider[i];
 961:.\Generated_Source\PSoC5/CapSense_1_CSHL.c ****                     }
 962:.\Generated_Source\PSoC5/CapSense_1_CSHL.c ****                 }
 963:.\Generated_Source\PSoC5/CapSense_1_CSHL.c ****             }    
 964:.\Generated_Source\PSoC5/CapSense_1_CSHL.c ****         #endif /* (CapSense_1_IS_DIPLEX_SLIDER) */
 965:.\Generated_Source\PSoC5/CapSense_1_CSHL.c ****         return (maximum);
 966:.\Generated_Source\PSoC5/CapSense_1_CSHL.c ****     }
 967:.\Generated_Source\PSoC5/CapSense_1_CSHL.c ****     
 968:.\Generated_Source\PSoC5/CapSense_1_CSHL.c ****     
 969:.\Generated_Source\PSoC5/CapSense_1_CSHL.c ****     /*******************************************************************************
 970:.\Generated_Source\PSoC5/CapSense_1_CSHL.c ****     * Function Name: CapSense_1_CalcCentroid
 971:.\Generated_Source\PSoC5/CapSense_1_CSHL.c ****     ********************************************************************************
 972:.\Generated_Source\PSoC5/CapSense_1_CSHL.c ****     *
 973:.\Generated_Source\PSoC5/CapSense_1_CSHL.c ****     * Summary:
 974:.\Generated_Source\PSoC5/CapSense_1_CSHL.c ****     *  Returns position value calculated accoring index of maximum element and API
 975:.\Generated_Source\PSoC5/CapSense_1_CSHL.c ****     *  resolution.
 976:.\Generated_Source\PSoC5/CapSense_1_CSHL.c ****     *
 977:.\Generated_Source\PSoC5/CapSense_1_CSHL.c ****     * Parameters:
 978:.\Generated_Source\PSoC5/CapSense_1_CSHL.c ****     *  type:  widget type.
 979:.\Generated_Source\PSoC5/CapSense_1_CSHL.c ****     *  diplex:  pointer to diplex table.
 980:.\Generated_Source\PSoC5/CapSense_1_CSHL.c ****     *  maximum:  Index of maximum element within centroid.
 981:.\Generated_Source\PSoC5/CapSense_1_CSHL.c ****     *  offset:   Start index of cetroid in CapSense_1_SensorSignal[] array.
 982:.\Generated_Source\PSoC5/CapSense_1_CSHL.c ****     *  count:    Number of elements within centroid.
 983:.\Generated_Source\PSoC5/CapSense_1_CSHL.c ****     *  resolution:  multiplicator calculated according to centroid type and
 984:.\Generated_Source\PSoC5/CapSense_1_CSHL.c ****     *  API resolution.
 985:.\Generated_Source\PSoC5/CapSense_1_CSHL.c ****     *  noiseThreshold:  Noise threshould.
 986:.\Generated_Source\PSoC5/CapSense_1_CSHL.c ****     * 
 987:.\Generated_Source\PSoC5/CapSense_1_CSHL.c ****     * Return:
 988:.\Generated_Source\PSoC5/CapSense_1_CSHL.c ****     *  Returns position value of the slider.
 989:.\Generated_Source\PSoC5/CapSense_1_CSHL.c ****     * 
 990:.\Generated_Source\PSoC5/CapSense_1_CSHL.c ****     *
 991:.\Generated_Source\PSoC5/CapSense_1_CSHL.c ****     * Reentrant:
 992:.\Generated_Source\PSoC5/CapSense_1_CSHL.c ****     *  No.
 993:.\Generated_Source\PSoC5/CapSense_1_CSHL.c ****     *
 994:.\Generated_Source\PSoC5/CapSense_1_CSHL.c ****     *******************************************************************************/
 995:.\Generated_Source\PSoC5/CapSense_1_CSHL.c ****     uint8 CapSense_1_CalcCentroid(uint8 maximum, uint8 offset, 
 996:.\Generated_Source\PSoC5/CapSense_1_CSHL.c ****                                         uint8 count, uint16 resolution, uint8 noiseThreshold)
 997:.\Generated_Source\PSoC5/CapSense_1_CSHL.c **** 	                                    
 998:.\Generated_Source\PSoC5/CapSense_1_CSHL.c ****     {
 999:.\Generated_Source\PSoC5/CapSense_1_CSHL.c ****         #if ((CapSense_1_TOTAL_LINEAR_SLIDERS_COUNT > 0u) || (CapSense_1_TOTAL_TOUCH_PADS_COUNT > 0
1000:.\Generated_Source\PSoC5/CapSense_1_CSHL.c ****             uint8 posPrev = 0u;
1001:.\Generated_Source\PSoC5/CapSense_1_CSHL.c ****             uint8 posNext = 0u;
1002:.\Generated_Source\PSoC5/CapSense_1_CSHL.c ****         #endif /* ((CapSense_1_TOTAL_LINEAR_SLIDERS_COUNT>0u) || (CapSense_1_TOTAL_TOUCH_PADS_COUNT
1003:.\Generated_Source\PSoC5/CapSense_1_CSHL.c ****                
ARM GAS  C:\Users\user\AppData\Local\Temp\ccxeGpeX.s 			page 27


1004:.\Generated_Source\PSoC5/CapSense_1_CSHL.c ****         #if (CapSense_1_IS_DIPLEX_SLIDER)                
1005:.\Generated_Source\PSoC5/CapSense_1_CSHL.c ****             uint8 pos;
1006:.\Generated_Source\PSoC5/CapSense_1_CSHL.c ****         #endif /* (CapSense_1_IS_DIPLEX_SLIDER) */
1007:.\Generated_Source\PSoC5/CapSense_1_CSHL.c ****         
1008:.\Generated_Source\PSoC5/CapSense_1_CSHL.c ****         /* Helps while centroid calulation */
1009:.\Generated_Source\PSoC5/CapSense_1_CSHL.c ****         static uint8 CapSense_1_centroid[3u];
1010:.\Generated_Source\PSoC5/CapSense_1_CSHL.c **** 
1011:.\Generated_Source\PSoC5/CapSense_1_CSHL.c ****         uint8 position;
1012:.\Generated_Source\PSoC5/CapSense_1_CSHL.c ****         uint32 numerator;
1013:.\Generated_Source\PSoC5/CapSense_1_CSHL.c ****         int32 denominator;
1014:.\Generated_Source\PSoC5/CapSense_1_CSHL.c ****         uint8 *startOfSlider = &CapSense_1_sensorSignal[offset];
1015:.\Generated_Source\PSoC5/CapSense_1_CSHL.c ****                     
1016:.\Generated_Source\PSoC5/CapSense_1_CSHL.c ****         #if (CapSense_1_ADD_SLIDER_TYPE)
1017:.\Generated_Source\PSoC5/CapSense_1_CSHL.c ****             if(type == CapSense_1_TYPE_RADIAL_SLIDER)
1018:.\Generated_Source\PSoC5/CapSense_1_CSHL.c ****             {
1019:.\Generated_Source\PSoC5/CapSense_1_CSHL.c ****         #endif /* (CapSense_1_ADD_SLIDER_TYPE) */
1020:.\Generated_Source\PSoC5/CapSense_1_CSHL.c **** 
1021:.\Generated_Source\PSoC5/CapSense_1_CSHL.c ****             #if (CapSense_1_TOTAL_RADIAL_SLIDERS_COUNT > 0u)                
1022:.\Generated_Source\PSoC5/CapSense_1_CSHL.c ****                 /* Copy Signal for found centriod */
1023:.\Generated_Source\PSoC5/CapSense_1_CSHL.c ****                 CapSense_1_centroid[CapSense_1_POS] = startOfSlider[maximum];
1024:.\Generated_Source\PSoC5/CapSense_1_CSHL.c ****                  
1025:.\Generated_Source\PSoC5/CapSense_1_CSHL.c ****                 /* Check borders for ROTARY Slider */
1026:.\Generated_Source\PSoC5/CapSense_1_CSHL.c ****                 if (maximum == 0u)                   /* Start of centroid */
1027:.\Generated_Source\PSoC5/CapSense_1_CSHL.c ****                 { 
1028:.\Generated_Source\PSoC5/CapSense_1_CSHL.c ****                     CapSense_1_centroid[CapSense_1_POS_PREV] = startOfSlider[count - 1u];
1029:.\Generated_Source\PSoC5/CapSense_1_CSHL.c ****                     CapSense_1_centroid[CapSense_1_POS_NEXT] = startOfSlider[1u];
1030:.\Generated_Source\PSoC5/CapSense_1_CSHL.c ****                 }
1031:.\Generated_Source\PSoC5/CapSense_1_CSHL.c ****                 else if (maximum == (count - 1u))    /* End of centroid */
1032:.\Generated_Source\PSoC5/CapSense_1_CSHL.c ****                 {
1033:.\Generated_Source\PSoC5/CapSense_1_CSHL.c ****                     CapSense_1_centroid[CapSense_1_POS_PREV] = startOfSlider[maximum - 1u];
1034:.\Generated_Source\PSoC5/CapSense_1_CSHL.c ****                     CapSense_1_centroid[CapSense_1_POS_NEXT] = startOfSlider[0u];
1035:.\Generated_Source\PSoC5/CapSense_1_CSHL.c ****                 }
1036:.\Generated_Source\PSoC5/CapSense_1_CSHL.c ****                 else                                /* Not first Not last */
1037:.\Generated_Source\PSoC5/CapSense_1_CSHL.c ****                 {
1038:.\Generated_Source\PSoC5/CapSense_1_CSHL.c ****                     CapSense_1_centroid[CapSense_1_POS_PREV] = startOfSlider[maximum - 1u];
1039:.\Generated_Source\PSoC5/CapSense_1_CSHL.c ****                     CapSense_1_centroid[CapSense_1_POS_NEXT] = startOfSlider[maximum + 1u];
1040:.\Generated_Source\PSoC5/CapSense_1_CSHL.c ****                 }
1041:.\Generated_Source\PSoC5/CapSense_1_CSHL.c ****             #endif /* (CapSense_1_TOTAL_RADIAL_SLIDERS_COUNT > 0u) */
1042:.\Generated_Source\PSoC5/CapSense_1_CSHL.c **** 
1043:.\Generated_Source\PSoC5/CapSense_1_CSHL.c ****         #if (CapSense_1_ADD_SLIDER_TYPE)
1044:.\Generated_Source\PSoC5/CapSense_1_CSHL.c ****             }
1045:.\Generated_Source\PSoC5/CapSense_1_CSHL.c ****             else
1046:.\Generated_Source\PSoC5/CapSense_1_CSHL.c ****             {
1047:.\Generated_Source\PSoC5/CapSense_1_CSHL.c ****         #endif /* (CapSense_1_ADD_SLIDER_TYPE) */
1048:.\Generated_Source\PSoC5/CapSense_1_CSHL.c **** 
1049:.\Generated_Source\PSoC5/CapSense_1_CSHL.c ****             #if ((CapSense_1_TOTAL_LINEAR_SLIDERS_COUNT > 0u) || (CapSense_1_TOTAL_TOUCH_PADS_COUNT
1050:.\Generated_Source\PSoC5/CapSense_1_CSHL.c ****                 #if (CapSense_1_IS_DIPLEX_SLIDER && CapSense_1_IS_NON_DIPLEX_SLIDER)               
1051:.\Generated_Source\PSoC5/CapSense_1_CSHL.c ****                     /* Calculate next and previous near to maximum */
1052:.\Generated_Source\PSoC5/CapSense_1_CSHL.c ****                     if(diplex == 0u)
1053:.\Generated_Source\PSoC5/CapSense_1_CSHL.c ****                     {
1054:.\Generated_Source\PSoC5/CapSense_1_CSHL.c ****                         pos     = maximum;
1055:.\Generated_Source\PSoC5/CapSense_1_CSHL.c ****                         posPrev = maximum - 1u;
1056:.\Generated_Source\PSoC5/CapSense_1_CSHL.c ****                         posNext = maximum + 1u; 
1057:.\Generated_Source\PSoC5/CapSense_1_CSHL.c ****                     }
1058:.\Generated_Source\PSoC5/CapSense_1_CSHL.c ****                     else
1059:.\Generated_Source\PSoC5/CapSense_1_CSHL.c ****                     {
1060:.\Generated_Source\PSoC5/CapSense_1_CSHL.c ****                         pos     = diplex[maximum];
ARM GAS  C:\Users\user\AppData\Local\Temp\ccxeGpeX.s 			page 28


1061:.\Generated_Source\PSoC5/CapSense_1_CSHL.c ****                         posPrev = diplex[maximum - 1u];
1062:.\Generated_Source\PSoC5/CapSense_1_CSHL.c ****                         posNext = diplex[maximum + 1u];
1063:.\Generated_Source\PSoC5/CapSense_1_CSHL.c ****                         count <<= 1u;
1064:.\Generated_Source\PSoC5/CapSense_1_CSHL.c ****                     }                    
1065:.\Generated_Source\PSoC5/CapSense_1_CSHL.c ****                 #elif (CapSense_1_IS_DIPLEX_SLIDER)
1066:.\Generated_Source\PSoC5/CapSense_1_CSHL.c ****                     /* Calculate next and previous near to maximum */
1067:.\Generated_Source\PSoC5/CapSense_1_CSHL.c ****                     pos     = diplex[maximum];
1068:.\Generated_Source\PSoC5/CapSense_1_CSHL.c ****                     posPrev = diplex[maximum - 1u];
1069:.\Generated_Source\PSoC5/CapSense_1_CSHL.c ****                     posNext = diplex[maximum + 1u];
1070:.\Generated_Source\PSoC5/CapSense_1_CSHL.c ****                     count <<= 1u;                    
1071:.\Generated_Source\PSoC5/CapSense_1_CSHL.c ****                 #else                    
1072:.\Generated_Source\PSoC5/CapSense_1_CSHL.c ****                     /* Calculate next and previous near to maximum */
1073:.\Generated_Source\PSoC5/CapSense_1_CSHL.c ****                     if (maximum >= 1u)
1074:.\Generated_Source\PSoC5/CapSense_1_CSHL.c ****                     {
1075:.\Generated_Source\PSoC5/CapSense_1_CSHL.c ****                         posPrev = maximum - 1u;
1076:.\Generated_Source\PSoC5/CapSense_1_CSHL.c ****                     }
1077:.\Generated_Source\PSoC5/CapSense_1_CSHL.c ****                     posNext = maximum + 1u; 
1078:.\Generated_Source\PSoC5/CapSense_1_CSHL.c ****                 #endif /* (CapSense_1_IS_DIPLEX_SLIDER && CapSense_1_IS_NON_DIPLEX_SLIDER) */
1079:.\Generated_Source\PSoC5/CapSense_1_CSHL.c ****                         
1080:.\Generated_Source\PSoC5/CapSense_1_CSHL.c ****                 /* Copy Signal for found centriod */
1081:.\Generated_Source\PSoC5/CapSense_1_CSHL.c ****                 #if (CapSense_1_IS_DIPLEX_SLIDER)
1082:.\Generated_Source\PSoC5/CapSense_1_CSHL.c ****                     CapSense_1_centroid[CapSense_1_POS] = startOfSlider[pos];
1083:.\Generated_Source\PSoC5/CapSense_1_CSHL.c ****                 #else
1084:.\Generated_Source\PSoC5/CapSense_1_CSHL.c ****                     CapSense_1_centroid[CapSense_1_POS] = startOfSlider[maximum];
1085:.\Generated_Source\PSoC5/CapSense_1_CSHL.c ****                 #endif /* (CapSense_1_IS_DIPLEX_SLIDER) */
1086:.\Generated_Source\PSoC5/CapSense_1_CSHL.c ****                     
1087:.\Generated_Source\PSoC5/CapSense_1_CSHL.c ****                 /* Check borders for LINEAR Slider */
1088:.\Generated_Source\PSoC5/CapSense_1_CSHL.c ****                 if (maximum == 0u)                   /* Start of centroid */
1089:.\Generated_Source\PSoC5/CapSense_1_CSHL.c ****                 { 
1090:.\Generated_Source\PSoC5/CapSense_1_CSHL.c ****                     CapSense_1_centroid[CapSense_1_POS_PREV] = 0u;
1091:.\Generated_Source\PSoC5/CapSense_1_CSHL.c ****                     CapSense_1_centroid[CapSense_1_POS_NEXT] = startOfSlider[posNext];
1092:.\Generated_Source\PSoC5/CapSense_1_CSHL.c ****                 }
1093:.\Generated_Source\PSoC5/CapSense_1_CSHL.c ****                 else if (maximum == ((count) - 1u)) /* End of centroid */
1094:.\Generated_Source\PSoC5/CapSense_1_CSHL.c ****                 {
1095:.\Generated_Source\PSoC5/CapSense_1_CSHL.c ****                     CapSense_1_centroid[CapSense_1_POS_PREV] = startOfSlider[posPrev];
1096:.\Generated_Source\PSoC5/CapSense_1_CSHL.c ****                     CapSense_1_centroid[CapSense_1_POS_NEXT] = 0u;
1097:.\Generated_Source\PSoC5/CapSense_1_CSHL.c ****                 }
1098:.\Generated_Source\PSoC5/CapSense_1_CSHL.c ****                 else                                /* Not first Not last */
1099:.\Generated_Source\PSoC5/CapSense_1_CSHL.c ****                 {
1100:.\Generated_Source\PSoC5/CapSense_1_CSHL.c ****                     CapSense_1_centroid[CapSense_1_POS_PREV] = startOfSlider[posPrev];
1101:.\Generated_Source\PSoC5/CapSense_1_CSHL.c ****                     CapSense_1_centroid[CapSense_1_POS_NEXT] = startOfSlider[posNext];
1102:.\Generated_Source\PSoC5/CapSense_1_CSHL.c ****                 }
1103:.\Generated_Source\PSoC5/CapSense_1_CSHL.c ****             #endif /* ((CapSense_1_TOTAL_LINEAR_SLIDERS_COUNT>0u)||(CapSense_1_TOTAL_TOUCH_PADS_COU
1104:.\Generated_Source\PSoC5/CapSense_1_CSHL.c **** 
1105:.\Generated_Source\PSoC5/CapSense_1_CSHL.c ****         #if (CapSense_1_ADD_SLIDER_TYPE)
1106:.\Generated_Source\PSoC5/CapSense_1_CSHL.c ****             }
1107:.\Generated_Source\PSoC5/CapSense_1_CSHL.c ****         #endif /* (CapSense_1_ADD_SLIDER_TYPE) */
1108:.\Generated_Source\PSoC5/CapSense_1_CSHL.c ****     
1109:.\Generated_Source\PSoC5/CapSense_1_CSHL.c ****         /* Subtract noiseThreshold */
1110:.\Generated_Source\PSoC5/CapSense_1_CSHL.c ****         if(CapSense_1_centroid[CapSense_1_POS_PREV] > noiseThreshold)
1111:.\Generated_Source\PSoC5/CapSense_1_CSHL.c ****         {
1112:.\Generated_Source\PSoC5/CapSense_1_CSHL.c ****             CapSense_1_centroid[CapSense_1_POS_PREV] -= noiseThreshold;
1113:.\Generated_Source\PSoC5/CapSense_1_CSHL.c ****         }
1114:.\Generated_Source\PSoC5/CapSense_1_CSHL.c ****         else
1115:.\Generated_Source\PSoC5/CapSense_1_CSHL.c ****         {
1116:.\Generated_Source\PSoC5/CapSense_1_CSHL.c ****             CapSense_1_centroid[CapSense_1_POS_PREV] = 0u;
1117:.\Generated_Source\PSoC5/CapSense_1_CSHL.c ****         }
ARM GAS  C:\Users\user\AppData\Local\Temp\ccxeGpeX.s 			page 29


1118:.\Generated_Source\PSoC5/CapSense_1_CSHL.c ****         
1119:.\Generated_Source\PSoC5/CapSense_1_CSHL.c ****         /* Maximum always grater than fingerThreshold, so grate than noiseThreshold */
1120:.\Generated_Source\PSoC5/CapSense_1_CSHL.c ****         CapSense_1_centroid[CapSense_1_POS] -= noiseThreshold;
1121:.\Generated_Source\PSoC5/CapSense_1_CSHL.c ****         
1122:.\Generated_Source\PSoC5/CapSense_1_CSHL.c ****         /* Subtract noiseThreshold */
1123:.\Generated_Source\PSoC5/CapSense_1_CSHL.c ****         if(CapSense_1_centroid[CapSense_1_POS_NEXT] > noiseThreshold)
1124:.\Generated_Source\PSoC5/CapSense_1_CSHL.c ****         {
1125:.\Generated_Source\PSoC5/CapSense_1_CSHL.c ****             CapSense_1_centroid[CapSense_1_POS_NEXT] -= noiseThreshold;
1126:.\Generated_Source\PSoC5/CapSense_1_CSHL.c ****         }
1127:.\Generated_Source\PSoC5/CapSense_1_CSHL.c ****         else
1128:.\Generated_Source\PSoC5/CapSense_1_CSHL.c ****         {
1129:.\Generated_Source\PSoC5/CapSense_1_CSHL.c ****             CapSense_1_centroid[CapSense_1_POS_NEXT] = 0u;
1130:.\Generated_Source\PSoC5/CapSense_1_CSHL.c ****         }
1131:.\Generated_Source\PSoC5/CapSense_1_CSHL.c ****         
1132:.\Generated_Source\PSoC5/CapSense_1_CSHL.c ****         
1133:.\Generated_Source\PSoC5/CapSense_1_CSHL.c ****         /* Si+1 - Si-1 */
1134:.\Generated_Source\PSoC5/CapSense_1_CSHL.c ****         numerator = (uint32) CapSense_1_centroid[CapSense_1_POS_NEXT] -
1135:.\Generated_Source\PSoC5/CapSense_1_CSHL.c ****                     (uint32) CapSense_1_centroid[CapSense_1_POS_PREV];
1136:.\Generated_Source\PSoC5/CapSense_1_CSHL.c **** 
1137:.\Generated_Source\PSoC5/CapSense_1_CSHL.c ****         /* Si+1 + Si + Si-1 */
1138:.\Generated_Source\PSoC5/CapSense_1_CSHL.c ****         denominator = (int32) CapSense_1_centroid[CapSense_1_POS_PREV] + 
1139:.\Generated_Source\PSoC5/CapSense_1_CSHL.c ****                       (int32) CapSense_1_centroid[CapSense_1_POS] + 
1140:.\Generated_Source\PSoC5/CapSense_1_CSHL.c ****                       (int32) CapSense_1_centroid[CapSense_1_POS_NEXT];
1141:.\Generated_Source\PSoC5/CapSense_1_CSHL.c ****         
1142:.\Generated_Source\PSoC5/CapSense_1_CSHL.c ****         /* (numerator/denominator) + maximum */
1143:.\Generated_Source\PSoC5/CapSense_1_CSHL.c ****         denominator = (((int32)(uint32)((uint32)numerator << 8u)/denominator) + (int32)(uint32)((ui
1144:.\Generated_Source\PSoC5/CapSense_1_CSHL.c **** 
1145:.\Generated_Source\PSoC5/CapSense_1_CSHL.c ****         #if(CapSense_1_TOTAL_RADIAL_SLIDERS_COUNT > 0u)
1146:.\Generated_Source\PSoC5/CapSense_1_CSHL.c ****             /* Only required for RADIAL Slider */
1147:.\Generated_Source\PSoC5/CapSense_1_CSHL.c ****             if(denominator < 0)
1148:.\Generated_Source\PSoC5/CapSense_1_CSHL.c ****             {
1149:.\Generated_Source\PSoC5/CapSense_1_CSHL.c ****                 denominator += (int32)((uint16)((uint16) count << 8u));
1150:.\Generated_Source\PSoC5/CapSense_1_CSHL.c ****             }
1151:.\Generated_Source\PSoC5/CapSense_1_CSHL.c ****         #endif /* (CapSense_1_TOTAL_RADIAL_SLIDERS_COUNT > 0u) */
1152:.\Generated_Source\PSoC5/CapSense_1_CSHL.c **** 
1153:.\Generated_Source\PSoC5/CapSense_1_CSHL.c ****         denominator *= (int16)resolution;
1154:.\Generated_Source\PSoC5/CapSense_1_CSHL.c **** 
1155:.\Generated_Source\PSoC5/CapSense_1_CSHL.c ****         /* Round the relust and put it to uint8 */
1156:.\Generated_Source\PSoC5/CapSense_1_CSHL.c ****         position = ((uint8) HI16((uint32)denominator + CapSense_1_CENTROID_ROUND_VALUE));
1157:.\Generated_Source\PSoC5/CapSense_1_CSHL.c **** 
1158:.\Generated_Source\PSoC5/CapSense_1_CSHL.c ****         return (position);
1159:.\Generated_Source\PSoC5/CapSense_1_CSHL.c ****     }    
1160:.\Generated_Source\PSoC5/CapSense_1_CSHL.c **** #endif /* (CapSense_1_TOTAL_CENTROIDS_COUNT) */
1161:.\Generated_Source\PSoC5/CapSense_1_CSHL.c **** 
1162:.\Generated_Source\PSoC5/CapSense_1_CSHL.c **** 
1163:.\Generated_Source\PSoC5/CapSense_1_CSHL.c **** #if(CapSense_1_TOTAL_LINEAR_SLIDERS_COUNT > 0u)
1164:.\Generated_Source\PSoC5/CapSense_1_CSHL.c ****     /*******************************************************************************
1165:.\Generated_Source\PSoC5/CapSense_1_CSHL.c ****     * Function Name: CapSense_1_GetCentroidPos
1166:.\Generated_Source\PSoC5/CapSense_1_CSHL.c ****     ********************************************************************************
1167:.\Generated_Source\PSoC5/CapSense_1_CSHL.c ****     *
1168:.\Generated_Source\PSoC5/CapSense_1_CSHL.c ****     * Summary:
1169:.\Generated_Source\PSoC5/CapSense_1_CSHL.c ****     *  Checks the CapSense_1_Signal[ ] array for a centroid within
1170:.\Generated_Source\PSoC5/CapSense_1_CSHL.c ****     *  slider specified range. The centroid position is calculated to the resolution
1171:.\Generated_Source\PSoC5/CapSense_1_CSHL.c ****     *  specified in the CapSense customizer. The position filters are applied to the
1172:.\Generated_Source\PSoC5/CapSense_1_CSHL.c ****     *  result if enabled.
1173:.\Generated_Source\PSoC5/CapSense_1_CSHL.c ****     *
1174:.\Generated_Source\PSoC5/CapSense_1_CSHL.c ****     * Parameters:
ARM GAS  C:\Users\user\AppData\Local\Temp\ccxeGpeX.s 			page 30


1175:.\Generated_Source\PSoC5/CapSense_1_CSHL.c ****     *  widget:  Widget number.
1176:.\Generated_Source\PSoC5/CapSense_1_CSHL.c ****     *  For every linear slider widget there are defines in this format:
1177:.\Generated_Source\PSoC5/CapSense_1_CSHL.c ****     *  #define CapSense_1_LS__"widget_name"            5
1178:.\Generated_Source\PSoC5/CapSense_1_CSHL.c ****     * 
1179:.\Generated_Source\PSoC5/CapSense_1_CSHL.c ****     * Return:
1180:.\Generated_Source\PSoC5/CapSense_1_CSHL.c ****     *  Returns position value of the linear slider.
1181:.\Generated_Source\PSoC5/CapSense_1_CSHL.c ****     *
1182:.\Generated_Source\PSoC5/CapSense_1_CSHL.c ****     * Side Effects:
1183:.\Generated_Source\PSoC5/CapSense_1_CSHL.c ****     *  If any sensor within the slider widget is active, the function returns values
1184:.\Generated_Source\PSoC5/CapSense_1_CSHL.c ****     *  from zero to the API resolution value set in the CapSense customizer. If no
1185:.\Generated_Source\PSoC5/CapSense_1_CSHL.c ****     *  sensors are active, the function returns 0xFFFF. If an error occurs during
1186:.\Generated_Source\PSoC5/CapSense_1_CSHL.c ****     *  execution of the centroid/diplexing algorithm, the function returns 0xFFFF.
1187:.\Generated_Source\PSoC5/CapSense_1_CSHL.c ****     *  There are no checks of widget type argument provided to this function.
1188:.\Generated_Source\PSoC5/CapSense_1_CSHL.c ****     *  The unproper widget type provided will cause unexpected position calculations.
1189:.\Generated_Source\PSoC5/CapSense_1_CSHL.c ****     *
1190:.\Generated_Source\PSoC5/CapSense_1_CSHL.c ****     * Note:
1191:.\Generated_Source\PSoC5/CapSense_1_CSHL.c ****     *  If noise counts on the slider segments are greater than the noise
1192:.\Generated_Source\PSoC5/CapSense_1_CSHL.c ****     *  threshold, this subroutine may generate a false centroid result. The noise
1193:.\Generated_Source\PSoC5/CapSense_1_CSHL.c ****     *  threshold should be set carefully (high enough above the noise level) so
1194:.\Generated_Source\PSoC5/CapSense_1_CSHL.c ****     *  that noise will not generate a false centroid.
1195:.\Generated_Source\PSoC5/CapSense_1_CSHL.c ****     *
1196:.\Generated_Source\PSoC5/CapSense_1_CSHL.c ****     * Reentrant:
1197:.\Generated_Source\PSoC5/CapSense_1_CSHL.c ****     *  No.
1198:.\Generated_Source\PSoC5/CapSense_1_CSHL.c ****     *
1199:.\Generated_Source\PSoC5/CapSense_1_CSHL.c ****     *******************************************************************************/
1200:.\Generated_Source\PSoC5/CapSense_1_CSHL.c ****     uint16 CapSense_1_GetCentroidPos(uint8 widget) 
1201:.\Generated_Source\PSoC5/CapSense_1_CSHL.c ****     {
1202:.\Generated_Source\PSoC5/CapSense_1_CSHL.c ****         #if (CapSense_1_IS_DIPLEX_SLIDER)
1203:.\Generated_Source\PSoC5/CapSense_1_CSHL.c ****             const uint8 CYCODE *diplex;
1204:.\Generated_Source\PSoC5/CapSense_1_CSHL.c ****         #endif /* (CapSense_1_IS_DIPLEX_SLIDER) */
1205:.\Generated_Source\PSoC5/CapSense_1_CSHL.c ****                 
1206:.\Generated_Source\PSoC5/CapSense_1_CSHL.c ****         #if (0u != CapSense_1_LINEAR_SLIDERS_POS_FILTERS_MASK)
1207:.\Generated_Source\PSoC5/CapSense_1_CSHL.c ****             uint8 posIndex;
1208:.\Generated_Source\PSoC5/CapSense_1_CSHL.c ****             uint8 firstTimeIndex = CapSense_1_posFiltersData[widget];
1209:.\Generated_Source\PSoC5/CapSense_1_CSHL.c ****             uint8 posFiltersMask = CapSense_1_posFiltersMask[widget];  
1210:.\Generated_Source\PSoC5/CapSense_1_CSHL.c ****         #endif /* (0u != CapSense_1_LINEAR_SLIDERS_POS_FILTERS_MASK) */
1211:.\Generated_Source\PSoC5/CapSense_1_CSHL.c **** 
1212:.\Generated_Source\PSoC5/CapSense_1_CSHL.c ****         #if ((0u != (CapSense_1_MEDIAN_FILTER & CapSense_1_LINEAR_SLIDERS_POS_FILTERS_MASK)) || \
1213:.\Generated_Source\PSoC5/CapSense_1_CSHL.c ****              (0u != (CapSense_1_AVERAGING_FILTER & CapSense_1_LINEAR_SLIDERS_POS_FILTERS_MASK)))
1214:.\Generated_Source\PSoC5/CapSense_1_CSHL.c ****             uint8 tempPos;
1215:.\Generated_Source\PSoC5/CapSense_1_CSHL.c ****         #endif /* ((0u != (CapSense_1_MEDIAN_FILTER & CapSense_1_LINEAR_SLIDERS_POS_FILTERS_MASK)) 
1216:.\Generated_Source\PSoC5/CapSense_1_CSHL.c ****                *   (0u != (CapSense_1_AVERAGING_FILTER & CapSense_1_LINEAR_SLIDERS_POS_FILTERS_MASK
1217:.\Generated_Source\PSoC5/CapSense_1_CSHL.c ****                */
1218:.\Generated_Source\PSoC5/CapSense_1_CSHL.c **** 
1219:.\Generated_Source\PSoC5/CapSense_1_CSHL.c ****         uint8 maximum;
1220:.\Generated_Source\PSoC5/CapSense_1_CSHL.c ****         uint16 position;
1221:.\Generated_Source\PSoC5/CapSense_1_CSHL.c ****         uint8 offset = CapSense_1_rawDataIndex[widget];
1222:.\Generated_Source\PSoC5/CapSense_1_CSHL.c ****         uint8 count = CapSense_1_numberOfSensors[widget];
1223:.\Generated_Source\PSoC5/CapSense_1_CSHL.c ****                         
1224:.\Generated_Source\PSoC5/CapSense_1_CSHL.c ****         #if (CapSense_1_IS_DIPLEX_SLIDER)
1225:.\Generated_Source\PSoC5/CapSense_1_CSHL.c ****             if(widget < CapSense_1_TOTAL_DIPLEXED_SLIDERS_COUNT)
1226:.\Generated_Source\PSoC5/CapSense_1_CSHL.c ****             {
1227:.\Generated_Source\PSoC5/CapSense_1_CSHL.c ****                 maximum = CapSense_1_diplexTable[widget];
1228:.\Generated_Source\PSoC5/CapSense_1_CSHL.c ****                 diplex = &CapSense_1_diplexTable[maximum];
1229:.\Generated_Source\PSoC5/CapSense_1_CSHL.c ****             }
1230:.\Generated_Source\PSoC5/CapSense_1_CSHL.c ****             else
1231:.\Generated_Source\PSoC5/CapSense_1_CSHL.c ****             {
ARM GAS  C:\Users\user\AppData\Local\Temp\ccxeGpeX.s 			page 31


1232:.\Generated_Source\PSoC5/CapSense_1_CSHL.c ****                 diplex = 0u;
1233:.\Generated_Source\PSoC5/CapSense_1_CSHL.c ****             }
1234:.\Generated_Source\PSoC5/CapSense_1_CSHL.c ****         #endif /* (CapSense_1_IS_DIPLEX_SLIDER) */
1235:.\Generated_Source\PSoC5/CapSense_1_CSHL.c **** 
1236:.\Generated_Source\PSoC5/CapSense_1_CSHL.c ****         /* Find Maximum within centroid */      
1237:.\Generated_Source\PSoC5/CapSense_1_CSHL.c ****         #if (CapSense_1_IS_DIPLEX_SLIDER)        
1238:.\Generated_Source\PSoC5/CapSense_1_CSHL.c ****             maximum = CapSense_1_FindMaximum(offset, count, CapSense_1_fingerThreshold[widget], dip
1239:.\Generated_Source\PSoC5/CapSense_1_CSHL.c ****         #else
1240:.\Generated_Source\PSoC5/CapSense_1_CSHL.c ****             maximum = CapSense_1_FindMaximum(offset, count, CapSense_1_fingerThreshold[widget]);
1241:.\Generated_Source\PSoC5/CapSense_1_CSHL.c ****         #endif /* (CapSense_1_IS_DIPLEX_SLIDER) */
1242:.\Generated_Source\PSoC5/CapSense_1_CSHL.c **** 
1243:.\Generated_Source\PSoC5/CapSense_1_CSHL.c ****         if (maximum != 0xFFu)
1244:.\Generated_Source\PSoC5/CapSense_1_CSHL.c ****         {
1245:.\Generated_Source\PSoC5/CapSense_1_CSHL.c ****             /* Calculate centroid */
1246:.\Generated_Source\PSoC5/CapSense_1_CSHL.c ****             position = (uint16) CapSense_1_CalcCentroid(maximum, 
1247:.\Generated_Source\PSoC5/CapSense_1_CSHL.c ****                          offset, count, CapSense_1_centroidMult[widget], CapSense_1_noiseThreshold[
1248:.\Generated_Source\PSoC5/CapSense_1_CSHL.c **** 
1249:.\Generated_Source\PSoC5/CapSense_1_CSHL.c ****             #if (0u != CapSense_1_LINEAR_SLIDERS_POS_FILTERS_MASK)
1250:.\Generated_Source\PSoC5/CapSense_1_CSHL.c ****                 /* Check if this linear slider has enabled filters */
1251:.\Generated_Source\PSoC5/CapSense_1_CSHL.c ****                 if (0u != (posFiltersMask & CapSense_1_ANY_POS_FILTER))
1252:.\Generated_Source\PSoC5/CapSense_1_CSHL.c ****                 {
1253:.\Generated_Source\PSoC5/CapSense_1_CSHL.c ****                     /* Caluclate position to store filters data */
1254:.\Generated_Source\PSoC5/CapSense_1_CSHL.c ****                     posIndex  = firstTimeIndex + 1u;
1255:.\Generated_Source\PSoC5/CapSense_1_CSHL.c ****                     
1256:.\Generated_Source\PSoC5/CapSense_1_CSHL.c ****                     if (0u == CapSense_1_posFiltersData[firstTimeIndex])
1257:.\Generated_Source\PSoC5/CapSense_1_CSHL.c ****                     {
1258:.\Generated_Source\PSoC5/CapSense_1_CSHL.c ****                         /* Init filters */
1259:.\Generated_Source\PSoC5/CapSense_1_CSHL.c ****                         CapSense_1_posFiltersData[posIndex] = (uint8) position;
1260:.\Generated_Source\PSoC5/CapSense_1_CSHL.c ****                         #if ((0u != (CapSense_1_MEDIAN_FILTER & \
1261:.\Generated_Source\PSoC5/CapSense_1_CSHL.c ****                                      CapSense_1_LINEAR_SLIDERS_POS_FILTERS_MASK)) || \
1262:.\Generated_Source\PSoC5/CapSense_1_CSHL.c ****                              (0u != (CapSense_1_AVERAGING_FILTER & \
1263:.\Generated_Source\PSoC5/CapSense_1_CSHL.c ****                                      CapSense_1_LINEAR_SLIDERS_POS_FILTERS_MASK)))
1264:.\Generated_Source\PSoC5/CapSense_1_CSHL.c **** 
1265:.\Generated_Source\PSoC5/CapSense_1_CSHL.c ****                             if ( (0u != (posFiltersMask & CapSense_1_MEDIAN_FILTER)) || 
1266:.\Generated_Source\PSoC5/CapSense_1_CSHL.c ****                                  (0u != (posFiltersMask & CapSense_1_AVERAGING_FILTER)) )
1267:.\Generated_Source\PSoC5/CapSense_1_CSHL.c ****                             {
1268:.\Generated_Source\PSoC5/CapSense_1_CSHL.c ****                                 CapSense_1_posFiltersData[posIndex + 1u] = (uint8) position;
1269:.\Generated_Source\PSoC5/CapSense_1_CSHL.c ****                             }
1270:.\Generated_Source\PSoC5/CapSense_1_CSHL.c ****                         #endif /* ((0u != (CapSense_1_MEDIAN_FILTER & \
1271:.\Generated_Source\PSoC5/CapSense_1_CSHL.c ****                                *           CapSense_1_LINEAR_SLIDERS_POS_FILTERS_MASK)) || \
1272:.\Generated_Source\PSoC5/CapSense_1_CSHL.c ****                                *   (0u != (CapSense_1_AVERAGING_FILTER & \
1273:.\Generated_Source\PSoC5/CapSense_1_CSHL.c ****                                *           CapSense_1_LINEAR_SLIDERS_POS_FILTERS_MASK)))
1274:.\Generated_Source\PSoC5/CapSense_1_CSHL.c ****                                */
1275:.\Generated_Source\PSoC5/CapSense_1_CSHL.c ****                         
1276:.\Generated_Source\PSoC5/CapSense_1_CSHL.c ****                         CapSense_1_posFiltersData[firstTimeIndex] = 1u;
1277:.\Generated_Source\PSoC5/CapSense_1_CSHL.c ****                     }
1278:.\Generated_Source\PSoC5/CapSense_1_CSHL.c ****                     else
1279:.\Generated_Source\PSoC5/CapSense_1_CSHL.c ****                     {
1280:.\Generated_Source\PSoC5/CapSense_1_CSHL.c ****                         /* Do filtering */
1281:.\Generated_Source\PSoC5/CapSense_1_CSHL.c ****                         #if (0u != (CapSense_1_MEDIAN_FILTER & CapSense_1_LINEAR_SLIDERS_POS_FILTER
1282:.\Generated_Source\PSoC5/CapSense_1_CSHL.c ****                             if (0u != (posFiltersMask & CapSense_1_MEDIAN_FILTER))
1283:.\Generated_Source\PSoC5/CapSense_1_CSHL.c ****                             {
1284:.\Generated_Source\PSoC5/CapSense_1_CSHL.c ****                                 tempPos = (uint8) position;
1285:.\Generated_Source\PSoC5/CapSense_1_CSHL.c ****                                 position = CapSense_1_MedianFilter(position,
1286:.\Generated_Source\PSoC5/CapSense_1_CSHL.c ****                                                                 (uint16)CapSense_1_posFiltersData[p
1287:.\Generated_Source\PSoC5/CapSense_1_CSHL.c ****                                                                 (uint16)CapSense_1_posFiltersData[p
1288:.\Generated_Source\PSoC5/CapSense_1_CSHL.c ****                                 CapSense_1_posFiltersData[posIndex + 1u] =
ARM GAS  C:\Users\user\AppData\Local\Temp\ccxeGpeX.s 			page 32


1289:.\Generated_Source\PSoC5/CapSense_1_CSHL.c ****                                                                              CapSense_1_posFiltersD
1290:.\Generated_Source\PSoC5/CapSense_1_CSHL.c ****                                 CapSense_1_posFiltersData[posIndex] = tempPos;
1291:.\Generated_Source\PSoC5/CapSense_1_CSHL.c ****                             }
1292:.\Generated_Source\PSoC5/CapSense_1_CSHL.c ****                         #endif /*(0u != (CapSense_1_MEDIAN_FILTER &
1293:.\Generated_Source\PSoC5/CapSense_1_CSHL.c ****                                *         CapSense_1_LINEAR_SLIDERS_POS_FILTERS_MASK))
1294:.\Generated_Source\PSoC5/CapSense_1_CSHL.c ****                                */
1295:.\Generated_Source\PSoC5/CapSense_1_CSHL.c **** 
1296:.\Generated_Source\PSoC5/CapSense_1_CSHL.c ****                         #if(0u!=(CapSense_1_AVERAGING_FILTER & CapSense_1_LINEAR_SLIDERS_POS_FILTER
1297:.\Generated_Source\PSoC5/CapSense_1_CSHL.c ****                             if (0u != (posFiltersMask & CapSense_1_AVERAGING_FILTER)) 
1298:.\Generated_Source\PSoC5/CapSense_1_CSHL.c ****                             {
1299:.\Generated_Source\PSoC5/CapSense_1_CSHL.c ****                                 tempPos = (uint8) position;
1300:.\Generated_Source\PSoC5/CapSense_1_CSHL.c ****                                 position = CapSense_1_AveragingFilter(position,
1301:.\Generated_Source\PSoC5/CapSense_1_CSHL.c ****                                                                 (uint16)CapSense_1_posFiltersData[p
1302:.\Generated_Source\PSoC5/CapSense_1_CSHL.c ****                                                                 (uint16)CapSense_1_posFiltersData[p
1303:.\Generated_Source\PSoC5/CapSense_1_CSHL.c ****                                 CapSense_1_posFiltersData[posIndex+1u]=CapSense_1_posFiltersData[po
1304:.\Generated_Source\PSoC5/CapSense_1_CSHL.c ****                                 CapSense_1_posFiltersData[posIndex] = tempPos;
1305:.\Generated_Source\PSoC5/CapSense_1_CSHL.c ****                             }
1306:.\Generated_Source\PSoC5/CapSense_1_CSHL.c ****                         #endif /* (0u != (CapSense_1_AVERAGING_FILTER & \
1307:.\Generated_Source\PSoC5/CapSense_1_CSHL.c ****                                *           CapSense_1_LINEAR_SLIDERS_POS_FILTERS_MASK))
1308:.\Generated_Source\PSoC5/CapSense_1_CSHL.c ****                                */
1309:.\Generated_Source\PSoC5/CapSense_1_CSHL.c **** 
1310:.\Generated_Source\PSoC5/CapSense_1_CSHL.c ****                         #if (0u != (CapSense_1_IIR2_FILTER & CapSense_1_LINEAR_SLIDERS_POS_FILTERS_
1311:.\Generated_Source\PSoC5/CapSense_1_CSHL.c ****                             if (0u != (posFiltersMask & CapSense_1_IIR2_FILTER)) 
1312:.\Generated_Source\PSoC5/CapSense_1_CSHL.c ****                             {
1313:.\Generated_Source\PSoC5/CapSense_1_CSHL.c ****                                 position = CapSense_1_IIR2Filter(position,
1314:.\Generated_Source\PSoC5/CapSense_1_CSHL.c ****                                                                     (uint16)CapSense_1_posFiltersDa
1315:.\Generated_Source\PSoC5/CapSense_1_CSHL.c ****                                 CapSense_1_posFiltersData[posIndex] = (uint8) position;
1316:.\Generated_Source\PSoC5/CapSense_1_CSHL.c ****                             }
1317:.\Generated_Source\PSoC5/CapSense_1_CSHL.c ****                         #endif /* (0u != (CapSense_1_IIR2_FILTER & \
1318:.\Generated_Source\PSoC5/CapSense_1_CSHL.c ****                                *          CapSense_1_LINEAR_SLIDERS_POS_FILTERS_MASK))
1319:.\Generated_Source\PSoC5/CapSense_1_CSHL.c ****                                */
1320:.\Generated_Source\PSoC5/CapSense_1_CSHL.c **** 
1321:.\Generated_Source\PSoC5/CapSense_1_CSHL.c ****                         #if (0u != (CapSense_1_IIR4_FILTER & CapSense_1_LINEAR_SLIDERS_POS_FILTERS_
1322:.\Generated_Source\PSoC5/CapSense_1_CSHL.c ****                             if (0u != (posFiltersMask & CapSense_1_IIR4_FILTER))
1323:.\Generated_Source\PSoC5/CapSense_1_CSHL.c ****                             {
1324:.\Generated_Source\PSoC5/CapSense_1_CSHL.c ****                                 position = CapSense_1_IIR4Filter(position,
1325:.\Generated_Source\PSoC5/CapSense_1_CSHL.c ****                                                                     (uint16)CapSense_1_posFiltersDa
1326:.\Generated_Source\PSoC5/CapSense_1_CSHL.c ****                                 CapSense_1_posFiltersData[posIndex] = (uint8) position;
1327:.\Generated_Source\PSoC5/CapSense_1_CSHL.c ****                             }                                
1328:.\Generated_Source\PSoC5/CapSense_1_CSHL.c ****                         #endif /* (0u != (CapSense_1_IIR4_FILTER & \
1329:.\Generated_Source\PSoC5/CapSense_1_CSHL.c ****                                *          CapSense_1_LINEAR_SLIDERS_POS_FILTERS_MASK))
1330:.\Generated_Source\PSoC5/CapSense_1_CSHL.c ****                                */
1331:.\Generated_Source\PSoC5/CapSense_1_CSHL.c **** 
1332:.\Generated_Source\PSoC5/CapSense_1_CSHL.c ****                         #if (0u != (CapSense_1_JITTER_FILTER & CapSense_1_LINEAR_SLIDERS_POS_FILTER
1333:.\Generated_Source\PSoC5/CapSense_1_CSHL.c ****                             if (0u != (posFiltersMask & CapSense_1_JITTER_FILTER))
1334:.\Generated_Source\PSoC5/CapSense_1_CSHL.c ****                             {
1335:.\Generated_Source\PSoC5/CapSense_1_CSHL.c ****                                 position = CapSense_1_JitterFilter(position,
1336:.\Generated_Source\PSoC5/CapSense_1_CSHL.c ****                                                                     (uint16)CapSense_1_posFiltersDa
1337:.\Generated_Source\PSoC5/CapSense_1_CSHL.c ****                                 CapSense_1_posFiltersData[posIndex] = (uint8) position;
1338:.\Generated_Source\PSoC5/CapSense_1_CSHL.c ****                             }
1339:.\Generated_Source\PSoC5/CapSense_1_CSHL.c ****                         #endif /* (0u != (CapSense_1_JITTER_FILTER & \
1340:.\Generated_Source\PSoC5/CapSense_1_CSHL.c ****                                *           CapSense_1_LINEAR_SLIDERS_POS_FILTERS_MASK))
1341:.\Generated_Source\PSoC5/CapSense_1_CSHL.c ****                                */
1342:.\Generated_Source\PSoC5/CapSense_1_CSHL.c ****                     }
1343:.\Generated_Source\PSoC5/CapSense_1_CSHL.c ****                 }
1344:.\Generated_Source\PSoC5/CapSense_1_CSHL.c ****             #endif /* (0u != CapSense_1_LINEAR_SLIDERS_POS_FILTERS_MASK) */
1345:.\Generated_Source\PSoC5/CapSense_1_CSHL.c **** 
ARM GAS  C:\Users\user\AppData\Local\Temp\ccxeGpeX.s 			page 33


1346:.\Generated_Source\PSoC5/CapSense_1_CSHL.c ****         }
1347:.\Generated_Source\PSoC5/CapSense_1_CSHL.c ****         else
1348:.\Generated_Source\PSoC5/CapSense_1_CSHL.c ****         {
1349:.\Generated_Source\PSoC5/CapSense_1_CSHL.c ****             /* The maximum wasn't found */
1350:.\Generated_Source\PSoC5/CapSense_1_CSHL.c ****             position = 0xFFFFu;
1351:.\Generated_Source\PSoC5/CapSense_1_CSHL.c **** 
1352:.\Generated_Source\PSoC5/CapSense_1_CSHL.c ****             #if(0u != CapSense_1_LINEAR_SLIDERS_POS_FILTERS_MASK)
1353:.\Generated_Source\PSoC5/CapSense_1_CSHL.c ****                 /* Reset the filters */
1354:.\Generated_Source\PSoC5/CapSense_1_CSHL.c ****                 if(0u != (posFiltersMask & CapSense_1_ANY_POS_FILTER))
1355:.\Generated_Source\PSoC5/CapSense_1_CSHL.c ****                 {
1356:.\Generated_Source\PSoC5/CapSense_1_CSHL.c ****                     CapSense_1_posFiltersData[firstTimeIndex] = 0u;
1357:.\Generated_Source\PSoC5/CapSense_1_CSHL.c ****                 }
1358:.\Generated_Source\PSoC5/CapSense_1_CSHL.c ****             #endif /* (0u != CapSense_1_LINEAR_SLIDERS_POS_FILTERS_MASK) */
1359:.\Generated_Source\PSoC5/CapSense_1_CSHL.c ****         }
1360:.\Generated_Source\PSoC5/CapSense_1_CSHL.c **** 
1361:.\Generated_Source\PSoC5/CapSense_1_CSHL.c ****         
1362:.\Generated_Source\PSoC5/CapSense_1_CSHL.c ****         return (position);
1363:.\Generated_Source\PSoC5/CapSense_1_CSHL.c ****     }
1364:.\Generated_Source\PSoC5/CapSense_1_CSHL.c **** #endif /* (CapSense_1_TOTAL_LINEAR_SLIDERS_COUNT > 0u) */
1365:.\Generated_Source\PSoC5/CapSense_1_CSHL.c **** 
1366:.\Generated_Source\PSoC5/CapSense_1_CSHL.c **** 
1367:.\Generated_Source\PSoC5/CapSense_1_CSHL.c **** #if(CapSense_1_TOTAL_RADIAL_SLIDERS_COUNT > 0u)
1368:.\Generated_Source\PSoC5/CapSense_1_CSHL.c ****     /*******************************************************************************
1369:.\Generated_Source\PSoC5/CapSense_1_CSHL.c ****     * Function Name: CapSense_1_GetRadialCentroidPos
1370:.\Generated_Source\PSoC5/CapSense_1_CSHL.c ****     ********************************************************************************
1371:.\Generated_Source\PSoC5/CapSense_1_CSHL.c ****     *
1372:.\Generated_Source\PSoC5/CapSense_1_CSHL.c ****     * Summary:
1373:.\Generated_Source\PSoC5/CapSense_1_CSHL.c ****     *  Checks the CapSense_1_Signal[ ] array for a centroid within
1374:.\Generated_Source\PSoC5/CapSense_1_CSHL.c ****     *  slider specified range. The centroid position is calculated to the resolution
1375:.\Generated_Source\PSoC5/CapSense_1_CSHL.c ****     *  specified in the CapSense customizer. The position filters are applied to the
1376:.\Generated_Source\PSoC5/CapSense_1_CSHL.c ****     *  result if enabled.
1377:.\Generated_Source\PSoC5/CapSense_1_CSHL.c ****     *
1378:.\Generated_Source\PSoC5/CapSense_1_CSHL.c ****     * Parameters:
1379:.\Generated_Source\PSoC5/CapSense_1_CSHL.c ****     *  widget:  Widget number.
1380:.\Generated_Source\PSoC5/CapSense_1_CSHL.c ****     *  For every radial slider widget there are defines in this format:
1381:.\Generated_Source\PSoC5/CapSense_1_CSHL.c ****     *  #define CapSense_1_RS_"widget_name"            5
1382:.\Generated_Source\PSoC5/CapSense_1_CSHL.c ****     * 
1383:.\Generated_Source\PSoC5/CapSense_1_CSHL.c ****     * Return:
1384:.\Generated_Source\PSoC5/CapSense_1_CSHL.c ****     *  Returns position value of the radial slider.
1385:.\Generated_Source\PSoC5/CapSense_1_CSHL.c ****     *
1386:.\Generated_Source\PSoC5/CapSense_1_CSHL.c ****     * Side Effects:
1387:.\Generated_Source\PSoC5/CapSense_1_CSHL.c ****     *  If any sensor within the slider widget is active, the function returns values
1388:.\Generated_Source\PSoC5/CapSense_1_CSHL.c ****     *  from zero to the API resolution value set in the CapSense customizer. If no
1389:.\Generated_Source\PSoC5/CapSense_1_CSHL.c ****     *  sensors are active, the function returns 0xFFFF.
1390:.\Generated_Source\PSoC5/CapSense_1_CSHL.c ****     *  There are no checks of widget type argument provided to this function.
1391:.\Generated_Source\PSoC5/CapSense_1_CSHL.c ****     *  The unproper widget type provided will cause unexpected position calculations.
1392:.\Generated_Source\PSoC5/CapSense_1_CSHL.c ****     *
1393:.\Generated_Source\PSoC5/CapSense_1_CSHL.c ****     * Note:
1394:.\Generated_Source\PSoC5/CapSense_1_CSHL.c ****     *  If noise counts on the slider segments are greater than the noise
1395:.\Generated_Source\PSoC5/CapSense_1_CSHL.c ****     *  threshold, this subroutine may generate a false centroid result. The noise
1396:.\Generated_Source\PSoC5/CapSense_1_CSHL.c ****     *  threshold should be set carefully (high enough above the noise level) so 
1397:.\Generated_Source\PSoC5/CapSense_1_CSHL.c ****     *  that noise will not generate a false centroid.
1398:.\Generated_Source\PSoC5/CapSense_1_CSHL.c ****     *
1399:.\Generated_Source\PSoC5/CapSense_1_CSHL.c ****     *
1400:.\Generated_Source\PSoC5/CapSense_1_CSHL.c ****     * Reentrant:
1401:.\Generated_Source\PSoC5/CapSense_1_CSHL.c ****     *  No.
1402:.\Generated_Source\PSoC5/CapSense_1_CSHL.c ****     *
ARM GAS  C:\Users\user\AppData\Local\Temp\ccxeGpeX.s 			page 34


1403:.\Generated_Source\PSoC5/CapSense_1_CSHL.c ****     *******************************************************************************/
1404:.\Generated_Source\PSoC5/CapSense_1_CSHL.c ****      uint16 CapSense_1_GetRadialCentroidPos(uint8 widget)
1405:.\Generated_Source\PSoC5/CapSense_1_CSHL.c **** 	                                       
1406:.\Generated_Source\PSoC5/CapSense_1_CSHL.c ****     {
1407:.\Generated_Source\PSoC5/CapSense_1_CSHL.c ****         #if (0u != CapSense_1_RADIAL_SLIDERS_POS_FILTERS_MASK)
1408:.\Generated_Source\PSoC5/CapSense_1_CSHL.c ****             uint8 posIndex;
1409:.\Generated_Source\PSoC5/CapSense_1_CSHL.c ****             uint8 firstTimeIndex = CapSense_1_posFiltersData[widget];
1410:.\Generated_Source\PSoC5/CapSense_1_CSHL.c ****             uint8 posFiltersMask = CapSense_1_posFiltersMask[widget]; 
1411:.\Generated_Source\PSoC5/CapSense_1_CSHL.c ****         #endif /* (0u != CapSense_1_RADIAL_SLIDERS_POS_FILTERS_MASK) */
1412:.\Generated_Source\PSoC5/CapSense_1_CSHL.c **** 
1413:.\Generated_Source\PSoC5/CapSense_1_CSHL.c ****         #if ((0u != (CapSense_1_MEDIAN_FILTER & CapSense_1_RADIAL_SLIDERS_POS_FILTERS_MASK)) || \
1414:.\Generated_Source\PSoC5/CapSense_1_CSHL.c ****              (0u != (CapSense_1_AVERAGING_FILTER & CapSense_1_RADIAL_SLIDERS_POS_FILTERS_MASK)))
1415:.\Generated_Source\PSoC5/CapSense_1_CSHL.c ****             uint8 tempPos;
1416:.\Generated_Source\PSoC5/CapSense_1_CSHL.c ****         #endif /* ((0u != (CapSense_1_MEDIAN_FILTER & CapSense_1_RADIAL_SLIDERS_POS_FILTERS_MASK)) 
1417:.\Generated_Source\PSoC5/CapSense_1_CSHL.c ****                *   (0u != (CapSense_1_AVERAGING_FILTER & CapSense_1_RADIAL_SLIDERS_POS_FILTERS_MASK
1418:.\Generated_Source\PSoC5/CapSense_1_CSHL.c ****                */
1419:.\Generated_Source\PSoC5/CapSense_1_CSHL.c **** 
1420:.\Generated_Source\PSoC5/CapSense_1_CSHL.c ****         uint8 maximum;
1421:.\Generated_Source\PSoC5/CapSense_1_CSHL.c ****         uint16 position;
1422:.\Generated_Source\PSoC5/CapSense_1_CSHL.c ****         uint8 offset = CapSense_1_rawDataIndex[widget];
1423:.\Generated_Source\PSoC5/CapSense_1_CSHL.c ****         uint8 count = CapSense_1_numberOfSensors[widget];
1424:.\Generated_Source\PSoC5/CapSense_1_CSHL.c ****         
1425:.\Generated_Source\PSoC5/CapSense_1_CSHL.c ****         /* Find Maximum within centroid */        
1426:.\Generated_Source\PSoC5/CapSense_1_CSHL.c ****         #if (CapSense_1_IS_DIPLEX_SLIDER)
1427:.\Generated_Source\PSoC5/CapSense_1_CSHL.c ****             maximum = CapSense_1_FindMaximum(offset, count, CapSense_1_fingerThreshold[widget], 0u)
1428:.\Generated_Source\PSoC5/CapSense_1_CSHL.c ****         #else
1429:.\Generated_Source\PSoC5/CapSense_1_CSHL.c ****             maximum = CapSense_1_FindMaximum(offset, count, CapSense_1_fingerThreshold[widget]);
1430:.\Generated_Source\PSoC5/CapSense_1_CSHL.c ****         #endif /* (CapSense_1_IS_DIPLEX_SLIDER) */
1431:.\Generated_Source\PSoC5/CapSense_1_CSHL.c ****         
1432:.\Generated_Source\PSoC5/CapSense_1_CSHL.c ****         if (maximum != 0xFFu)
1433:.\Generated_Source\PSoC5/CapSense_1_CSHL.c ****         {
1434:.\Generated_Source\PSoC5/CapSense_1_CSHL.c ****             /* Calculate centroid */
1435:.\Generated_Source\PSoC5/CapSense_1_CSHL.c ****             position = (uint16) CapSense_1_CalcCentroid(maximum, 
1436:.\Generated_Source\PSoC5/CapSense_1_CSHL.c ****                          offset, count, CapSense_1_centroidMult[widget], CapSense_1_noiseThreshold[
1437:.\Generated_Source\PSoC5/CapSense_1_CSHL.c **** 
1438:.\Generated_Source\PSoC5/CapSense_1_CSHL.c ****             #if (0u != CapSense_1_RADIAL_SLIDERS_POS_FILTERS_MASK)
1439:.\Generated_Source\PSoC5/CapSense_1_CSHL.c ****                 /* Check if this Radial slider has enabled filters */
1440:.\Generated_Source\PSoC5/CapSense_1_CSHL.c ****                 if (0u != (posFiltersMask & CapSense_1_ANY_POS_FILTER))
1441:.\Generated_Source\PSoC5/CapSense_1_CSHL.c ****                 {
1442:.\Generated_Source\PSoC5/CapSense_1_CSHL.c ****                     /* Caluclate position to store filters data */
1443:.\Generated_Source\PSoC5/CapSense_1_CSHL.c ****                     posIndex  = firstTimeIndex + 1u;
1444:.\Generated_Source\PSoC5/CapSense_1_CSHL.c ****                     
1445:.\Generated_Source\PSoC5/CapSense_1_CSHL.c ****                     if (0u == CapSense_1_posFiltersData[firstTimeIndex])
1446:.\Generated_Source\PSoC5/CapSense_1_CSHL.c ****                     {
1447:.\Generated_Source\PSoC5/CapSense_1_CSHL.c ****                         /* Init filters */
1448:.\Generated_Source\PSoC5/CapSense_1_CSHL.c ****                         CapSense_1_posFiltersData[posIndex] = (uint8) position;
1449:.\Generated_Source\PSoC5/CapSense_1_CSHL.c ****                         #if ((0u != (CapSense_1_MEDIAN_FILTER & \
1450:.\Generated_Source\PSoC5/CapSense_1_CSHL.c ****                                      CapSense_1_RADIAL_SLIDERS_POS_FILTERS_MASK)) || \
1451:.\Generated_Source\PSoC5/CapSense_1_CSHL.c ****                              (0u != (CapSense_1_AVERAGING_FILTER & \
1452:.\Generated_Source\PSoC5/CapSense_1_CSHL.c ****                                      CapSense_1_RADIAL_SLIDERS_POS_FILTERS_MASK)))
1453:.\Generated_Source\PSoC5/CapSense_1_CSHL.c **** 
1454:.\Generated_Source\PSoC5/CapSense_1_CSHL.c ****                             if ( (0u != (posFiltersMask & CapSense_1_MEDIAN_FILTER))  || 
1455:.\Generated_Source\PSoC5/CapSense_1_CSHL.c ****                                  (0u != (posFiltersMask & CapSense_1_AVERAGING_FILTER)) )
1456:.\Generated_Source\PSoC5/CapSense_1_CSHL.c ****                             {
1457:.\Generated_Source\PSoC5/CapSense_1_CSHL.c ****                                 CapSense_1_posFiltersData[posIndex + 1u] = (uint8) position;
1458:.\Generated_Source\PSoC5/CapSense_1_CSHL.c ****                             }
1459:.\Generated_Source\PSoC5/CapSense_1_CSHL.c ****                         #endif /* ((0u != (CapSense_1_MEDIAN_FILTER & \
ARM GAS  C:\Users\user\AppData\Local\Temp\ccxeGpeX.s 			page 35


1460:.\Generated_Source\PSoC5/CapSense_1_CSHL.c ****                                *           CapSense_1_RADIAL_SLIDERS_POS_FILTERS_MASK)) || \
1461:.\Generated_Source\PSoC5/CapSense_1_CSHL.c ****                                *   (0u != (CapSense_1_AVERAGING_FILTER & \
1462:.\Generated_Source\PSoC5/CapSense_1_CSHL.c ****                                *           CapSense_1_RADIAL_SLIDERS_POS_FILTERS_MASK)))
1463:.\Generated_Source\PSoC5/CapSense_1_CSHL.c ****                                */
1464:.\Generated_Source\PSoC5/CapSense_1_CSHL.c ****                         
1465:.\Generated_Source\PSoC5/CapSense_1_CSHL.c ****                         CapSense_1_posFiltersData[firstTimeIndex] = 1u;
1466:.\Generated_Source\PSoC5/CapSense_1_CSHL.c ****                     }
1467:.\Generated_Source\PSoC5/CapSense_1_CSHL.c ****                     else
1468:.\Generated_Source\PSoC5/CapSense_1_CSHL.c ****                     {
1469:.\Generated_Source\PSoC5/CapSense_1_CSHL.c ****                         /* Do filtering */
1470:.\Generated_Source\PSoC5/CapSense_1_CSHL.c ****                         #if (0u != (CapSense_1_MEDIAN_FILTER & CapSense_1_RADIAL_SLIDERS_POS_FILTER
1471:.\Generated_Source\PSoC5/CapSense_1_CSHL.c ****                             if (0u != (posFiltersMask & CapSense_1_MEDIAN_FILTER))
1472:.\Generated_Source\PSoC5/CapSense_1_CSHL.c ****                             {
1473:.\Generated_Source\PSoC5/CapSense_1_CSHL.c ****                                 tempPos = (uint8) position;
1474:.\Generated_Source\PSoC5/CapSense_1_CSHL.c ****                                 position = CapSense_1_MedianFilter(position,
1475:.\Generated_Source\PSoC5/CapSense_1_CSHL.c ****                                                                         CapSense_1_posFiltersData[p
1476:.\Generated_Source\PSoC5/CapSense_1_CSHL.c ****                                                                         CapSense_1_posFiltersData[p
1477:.\Generated_Source\PSoC5/CapSense_1_CSHL.c ****                                 CapSense_1_posFiltersData[posIndex + 1u] = 
1478:.\Generated_Source\PSoC5/CapSense_1_CSHL.c ****                                                                               CapSense_1_posFilters
1479:.\Generated_Source\PSoC5/CapSense_1_CSHL.c ****                                 CapSense_1_posFiltersData[posIndex] = tempPos;
1480:.\Generated_Source\PSoC5/CapSense_1_CSHL.c ****                             }
1481:.\Generated_Source\PSoC5/CapSense_1_CSHL.c ****                         #endif /* (0u != (CapSense_1_MEDIAN_FILTER & 
1482:.\Generated_Source\PSoC5/CapSense_1_CSHL.c ****                                *          CapSense_1_RADIAL_SLIDERS_POS_FILTERS_MASK))
1483:.\Generated_Source\PSoC5/CapSense_1_CSHL.c ****                                */
1484:.\Generated_Source\PSoC5/CapSense_1_CSHL.c **** 
1485:.\Generated_Source\PSoC5/CapSense_1_CSHL.c ****                         #if (0u != (CapSense_1_AVERAGING_FILTER & \
1486:.\Generated_Source\PSoC5/CapSense_1_CSHL.c ****                                     CapSense_1_RADIAL_SLIDERS_POS_FILTERS_MASK))
1487:.\Generated_Source\PSoC5/CapSense_1_CSHL.c ****                             if (0u != (posFiltersMask & CapSense_1_AVERAGING_FILTER))
1488:.\Generated_Source\PSoC5/CapSense_1_CSHL.c ****                             {
1489:.\Generated_Source\PSoC5/CapSense_1_CSHL.c ****                                 tempPos = (uint8) position;
1490:.\Generated_Source\PSoC5/CapSense_1_CSHL.c ****                                 position = CapSense_1_AveragingFilter(position, 
1491:.\Generated_Source\PSoC5/CapSense_1_CSHL.c ****                                                                        CapSense_1_posFiltersData[po
1492:.\Generated_Source\PSoC5/CapSense_1_CSHL.c ****                                                                        CapSense_1_posFiltersData[po
1493:.\Generated_Source\PSoC5/CapSense_1_CSHL.c ****                                 CapSense_1_posFiltersData[posIndex+1u]= CapSense_1_posFiltersData[p
1494:.\Generated_Source\PSoC5/CapSense_1_CSHL.c ****                                 CapSense_1_posFiltersData[posIndex] = tempPos;
1495:.\Generated_Source\PSoC5/CapSense_1_CSHL.c ****                             }
1496:.\Generated_Source\PSoC5/CapSense_1_CSHL.c ****                         #endif /* (0u != (CapSense_1_AVERAGING_FILTER & \
1497:.\Generated_Source\PSoC5/CapSense_1_CSHL.c ****                                *          CapSense_1_RADIAL_SLIDERS_POS_FILTERS_MASK))
1498:.\Generated_Source\PSoC5/CapSense_1_CSHL.c ****                                */
1499:.\Generated_Source\PSoC5/CapSense_1_CSHL.c **** 
1500:.\Generated_Source\PSoC5/CapSense_1_CSHL.c ****                         #if (0u != (CapSense_1_IIR2_FILTER & CapSense_1_RADIAL_SLIDERS_POS_FILTERS_
1501:.\Generated_Source\PSoC5/CapSense_1_CSHL.c ****                             if (0u != (posFiltersMask & CapSense_1_IIR2_FILTER))
1502:.\Generated_Source\PSoC5/CapSense_1_CSHL.c ****                             {
1503:.\Generated_Source\PSoC5/CapSense_1_CSHL.c ****                                 position = CapSense_1_IIR2Filter(position,
1504:.\Generated_Source\PSoC5/CapSense_1_CSHL.c ****                                                                     (uint16)CapSense_1_posFiltersDa
1505:.\Generated_Source\PSoC5/CapSense_1_CSHL.c ****                                 CapSense_1_posFiltersData[posIndex] = (uint8) position;
1506:.\Generated_Source\PSoC5/CapSense_1_CSHL.c ****                             }
1507:.\Generated_Source\PSoC5/CapSense_1_CSHL.c ****                         #endif /* (0u != (CapSense_1_IIR2_FILTER & 
1508:.\Generated_Source\PSoC5/CapSense_1_CSHL.c ****                                *          CapSense_1_RADIAL_SLIDERS_POS_FILTERS_MASK))
1509:.\Generated_Source\PSoC5/CapSense_1_CSHL.c ****                                */
1510:.\Generated_Source\PSoC5/CapSense_1_CSHL.c **** 
1511:.\Generated_Source\PSoC5/CapSense_1_CSHL.c ****                         #if (0u != (CapSense_1_IIR4_FILTER & CapSense_1_RADIAL_SLIDERS_POS_FILTERS_
1512:.\Generated_Source\PSoC5/CapSense_1_CSHL.c ****                             if (0u != (posFiltersMask & CapSense_1_IIR4_FILTER))
1513:.\Generated_Source\PSoC5/CapSense_1_CSHL.c ****                             {
1514:.\Generated_Source\PSoC5/CapSense_1_CSHL.c ****                                 position = CapSense_1_IIR4Filter(position,
1515:.\Generated_Source\PSoC5/CapSense_1_CSHL.c ****                                                                     (uint16)CapSense_1_posFiltersDa
1516:.\Generated_Source\PSoC5/CapSense_1_CSHL.c ****                                 CapSense_1_posFiltersData[posIndex] = (uint8) position;
ARM GAS  C:\Users\user\AppData\Local\Temp\ccxeGpeX.s 			page 36


1517:.\Generated_Source\PSoC5/CapSense_1_CSHL.c ****                             }
1518:.\Generated_Source\PSoC5/CapSense_1_CSHL.c ****                         #endif /* (0u != (CapSense_1_IIR4_FILTER & 
1519:.\Generated_Source\PSoC5/CapSense_1_CSHL.c ****                                *          CapSense_1_RADIAL_SLIDERS_POS_FILTERS_MASK))
1520:.\Generated_Source\PSoC5/CapSense_1_CSHL.c ****                                */
1521:.\Generated_Source\PSoC5/CapSense_1_CSHL.c **** 
1522:.\Generated_Source\PSoC5/CapSense_1_CSHL.c ****                         #if (0u != (CapSense_1_JITTER_FILTER & CapSense_1_RADIAL_SLIDERS_POS_FILTER
1523:.\Generated_Source\PSoC5/CapSense_1_CSHL.c ****                             if (0u != (posFiltersMask & CapSense_1_JITTER_FILTER))
1524:.\Generated_Source\PSoC5/CapSense_1_CSHL.c ****                             {
1525:.\Generated_Source\PSoC5/CapSense_1_CSHL.c ****                                 position = CapSense_1_JitterFilter(position, 
1526:.\Generated_Source\PSoC5/CapSense_1_CSHL.c ****                                                                          CapSense_1_posFiltersData[
1527:.\Generated_Source\PSoC5/CapSense_1_CSHL.c ****                                 CapSense_1_posFiltersData[posIndex] = (uint8) position;
1528:.\Generated_Source\PSoC5/CapSense_1_CSHL.c ****                             }
1529:.\Generated_Source\PSoC5/CapSense_1_CSHL.c ****                         #endif /* (0u != (CapSense_1_JITTER_FILTER &
1530:.\Generated_Source\PSoC5/CapSense_1_CSHL.c ****                                *           CapSense_1_RADIAL_SLIDERS_POS_FILTERS_MASK))
1531:.\Generated_Source\PSoC5/CapSense_1_CSHL.c ****                                */
1532:.\Generated_Source\PSoC5/CapSense_1_CSHL.c ****                     }
1533:.\Generated_Source\PSoC5/CapSense_1_CSHL.c ****                 }
1534:.\Generated_Source\PSoC5/CapSense_1_CSHL.c ****             #endif /* (0u != CapSense_1_RADIAL_SLIDERS_POS_FILTERS_MASK) */
1535:.\Generated_Source\PSoC5/CapSense_1_CSHL.c **** 
1536:.\Generated_Source\PSoC5/CapSense_1_CSHL.c ****         }
1537:.\Generated_Source\PSoC5/CapSense_1_CSHL.c ****         else
1538:.\Generated_Source\PSoC5/CapSense_1_CSHL.c ****         {
1539:.\Generated_Source\PSoC5/CapSense_1_CSHL.c ****             /* The maximum didn't find */
1540:.\Generated_Source\PSoC5/CapSense_1_CSHL.c ****             position = 0xFFFFu;
1541:.\Generated_Source\PSoC5/CapSense_1_CSHL.c **** 
1542:.\Generated_Source\PSoC5/CapSense_1_CSHL.c ****             #if (0u != CapSense_1_RADIAL_SLIDERS_POS_FILTERS_MASK)
1543:.\Generated_Source\PSoC5/CapSense_1_CSHL.c ****                 /* Reset the filters */
1544:.\Generated_Source\PSoC5/CapSense_1_CSHL.c ****                 if((posFiltersMask & CapSense_1_ANY_POS_FILTER) != 0u)
1545:.\Generated_Source\PSoC5/CapSense_1_CSHL.c ****                 {
1546:.\Generated_Source\PSoC5/CapSense_1_CSHL.c ****                     CapSense_1_posFiltersData[firstTimeIndex] = 0u;
1547:.\Generated_Source\PSoC5/CapSense_1_CSHL.c ****                 }
1548:.\Generated_Source\PSoC5/CapSense_1_CSHL.c ****             #endif /* (0u != CapSense_1_RADIAL_SLIDERS_POS_FILTERS_MASK) */
1549:.\Generated_Source\PSoC5/CapSense_1_CSHL.c ****         }
1550:.\Generated_Source\PSoC5/CapSense_1_CSHL.c ****         
1551:.\Generated_Source\PSoC5/CapSense_1_CSHL.c ****         return (position);
1552:.\Generated_Source\PSoC5/CapSense_1_CSHL.c ****     }
1553:.\Generated_Source\PSoC5/CapSense_1_CSHL.c **** #endif
1554:.\Generated_Source\PSoC5/CapSense_1_CSHL.c **** 
1555:.\Generated_Source\PSoC5/CapSense_1_CSHL.c **** 
1556:.\Generated_Source\PSoC5/CapSense_1_CSHL.c **** #if(CapSense_1_TOTAL_TOUCH_PADS_COUNT > 0u)
1557:.\Generated_Source\PSoC5/CapSense_1_CSHL.c ****     /*******************************************************************************
1558:.\Generated_Source\PSoC5/CapSense_1_CSHL.c ****     * Function Name: CapSense_1_GetTouchCentroidPos
1559:.\Generated_Source\PSoC5/CapSense_1_CSHL.c ****     ********************************************************************************
1560:.\Generated_Source\PSoC5/CapSense_1_CSHL.c ****     *
1561:.\Generated_Source\PSoC5/CapSense_1_CSHL.c ****     * Summary:
1562:.\Generated_Source\PSoC5/CapSense_1_CSHL.c ****     *  If a finger is present on touch pad, this function calculates the X and Y
1563:.\Generated_Source\PSoC5/CapSense_1_CSHL.c ****     *  position of the finger by calculating the centroids within touch pad specified
1564:.\Generated_Source\PSoC5/CapSense_1_CSHL.c ****     *  range. The X and Y positions are calculated to the API resolutions set in the
1565:.\Generated_Source\PSoC5/CapSense_1_CSHL.c ****     *  CapSense customizer. Returns a 1 if a finger is on the touchpad.
1566:.\Generated_Source\PSoC5/CapSense_1_CSHL.c ****     *  The position filter is applied to the result if enabled.
1567:.\Generated_Source\PSoC5/CapSense_1_CSHL.c ****     *  This function is available only if a touch pad is defined by the CapSense
1568:.\Generated_Source\PSoC5/CapSense_1_CSHL.c ****     *  customizer.
1569:.\Generated_Source\PSoC5/CapSense_1_CSHL.c ****     *
1570:.\Generated_Source\PSoC5/CapSense_1_CSHL.c ****     * Parameters:
1571:.\Generated_Source\PSoC5/CapSense_1_CSHL.c ****     *  widget:  Widget number. 
1572:.\Generated_Source\PSoC5/CapSense_1_CSHL.c ****     *  For every touchpad widget there are defines in this format:
1573:.\Generated_Source\PSoC5/CapSense_1_CSHL.c ****     *  #define CapSense_1_TP_"widget_name"            5
ARM GAS  C:\Users\user\AppData\Local\Temp\ccxeGpeX.s 			page 37


1574:.\Generated_Source\PSoC5/CapSense_1_CSHL.c ****     *
1575:.\Generated_Source\PSoC5/CapSense_1_CSHL.c ****     *  pos:     Pointer to the array of two uint16 elements, where result
1576:.\Generated_Source\PSoC5/CapSense_1_CSHL.c ****     *  result of calculation of X and Y position are stored.
1577:.\Generated_Source\PSoC5/CapSense_1_CSHL.c ****     *  pos[0u]  - position of X
1578:.\Generated_Source\PSoC5/CapSense_1_CSHL.c ****     *  pos[1u]  - position of Y
1579:.\Generated_Source\PSoC5/CapSense_1_CSHL.c ****     *
1580:.\Generated_Source\PSoC5/CapSense_1_CSHL.c ****     * Return:
1581:.\Generated_Source\PSoC5/CapSense_1_CSHL.c ****     *  Returns a 1 if a finger is on the touch pad, 0 - if not.
1582:.\Generated_Source\PSoC5/CapSense_1_CSHL.c ****     *
1583:.\Generated_Source\PSoC5/CapSense_1_CSHL.c ****     * Side Effects:
1584:.\Generated_Source\PSoC5/CapSense_1_CSHL.c ****     *   There are no checks of widget type argument provided to this function.
1585:.\Generated_Source\PSoC5/CapSense_1_CSHL.c ****     *   The unproper widget type provided will cause unexpected position
1586:.\Generated_Source\PSoC5/CapSense_1_CSHL.c ****     *   calculations.
1587:.\Generated_Source\PSoC5/CapSense_1_CSHL.c ****     *
1588:.\Generated_Source\PSoC5/CapSense_1_CSHL.c ****     * Reentrant:
1589:.\Generated_Source\PSoC5/CapSense_1_CSHL.c ****     *  No.
1590:.\Generated_Source\PSoC5/CapSense_1_CSHL.c ****     *
1591:.\Generated_Source\PSoC5/CapSense_1_CSHL.c ****     *******************************************************************************/
1592:.\Generated_Source\PSoC5/CapSense_1_CSHL.c ****     uint8 CapSense_1_GetTouchCentroidPos(uint8 widget, uint16* pos)
1593:.\Generated_Source\PSoC5/CapSense_1_CSHL.c **** 	                                    
1594:.\Generated_Source\PSoC5/CapSense_1_CSHL.c ****     {
1595:.\Generated_Source\PSoC5/CapSense_1_CSHL.c ****         #if (0u != CapSense_1_TOUCH_PADS_POS_FILTERS_MASK)
1596:.\Generated_Source\PSoC5/CapSense_1_CSHL.c ****             uint8 posXIndex;
1597:.\Generated_Source\PSoC5/CapSense_1_CSHL.c ****             uint8 posYIndex;
1598:.\Generated_Source\PSoC5/CapSense_1_CSHL.c ****             uint8 firstTimeIndex = CapSense_1_posFiltersData[widget];
1599:.\Generated_Source\PSoC5/CapSense_1_CSHL.c ****             uint8 posFiltersMask = CapSense_1_posFiltersMask[widget];
1600:.\Generated_Source\PSoC5/CapSense_1_CSHL.c ****         #endif /* (0u != CapSense_1_TOUCH_PADS_POS_FILTERS_MASK) */
1601:.\Generated_Source\PSoC5/CapSense_1_CSHL.c **** 
1602:.\Generated_Source\PSoC5/CapSense_1_CSHL.c ****         #if ((0u != (CapSense_1_MEDIAN_FILTER & CapSense_1_TOUCH_PADS_POS_FILTERS_MASK)) || \
1603:.\Generated_Source\PSoC5/CapSense_1_CSHL.c ****              (0u != (CapSense_1_AVERAGING_FILTER & CapSense_1_TOUCH_PADS_POS_FILTERS_MASK)))
1604:.\Generated_Source\PSoC5/CapSense_1_CSHL.c ****             uint16 tempPos;
1605:.\Generated_Source\PSoC5/CapSense_1_CSHL.c ****         #endif /* ((0u != (CapSense_1_MEDIAN_FILTER & CapSense_1_TOUCH_PADS_POS_FILTERS_MASK)) || \
1606:.\Generated_Source\PSoC5/CapSense_1_CSHL.c ****                *   (0u != (CapSense_1_AVERAGING_FILTER & CapSense_1_TOUCH_PADS_POS_FILTERS_MASK)))
1607:.\Generated_Source\PSoC5/CapSense_1_CSHL.c ****                */
1608:.\Generated_Source\PSoC5/CapSense_1_CSHL.c **** 
1609:.\Generated_Source\PSoC5/CapSense_1_CSHL.c ****         uint8 maxX;
1610:.\Generated_Source\PSoC5/CapSense_1_CSHL.c ****         uint8 maxY;
1611:.\Generated_Source\PSoC5/CapSense_1_CSHL.c ****         uint8 posX;
1612:.\Generated_Source\PSoC5/CapSense_1_CSHL.c ****         uint8 posY;
1613:.\Generated_Source\PSoC5/CapSense_1_CSHL.c ****         uint8 touch = 0u;
1614:.\Generated_Source\PSoC5/CapSense_1_CSHL.c ****         uint8 offset = CapSense_1_rawDataIndex[widget];
1615:.\Generated_Source\PSoC5/CapSense_1_CSHL.c ****         uint8 count = CapSense_1_numberOfSensors[widget];
1616:.\Generated_Source\PSoC5/CapSense_1_CSHL.c ****         
1617:.\Generated_Source\PSoC5/CapSense_1_CSHL.c ****         /* Find Maximum within X centroid */
1618:.\Generated_Source\PSoC5/CapSense_1_CSHL.c ****         #if (CapSense_1_IS_DIPLEX_SLIDER)
1619:.\Generated_Source\PSoC5/CapSense_1_CSHL.c ****             maxX = CapSense_1_FindMaximum(offset, count, CapSense_1_fingerThreshold[widget], 0u);
1620:.\Generated_Source\PSoC5/CapSense_1_CSHL.c ****         #else
1621:.\Generated_Source\PSoC5/CapSense_1_CSHL.c ****             maxX = CapSense_1_FindMaximum(offset, count, CapSense_1_fingerThreshold[widget]);
1622:.\Generated_Source\PSoC5/CapSense_1_CSHL.c ****         #endif /* (CapSense_1_IS_DIPLEX_SLIDER) */
1623:.\Generated_Source\PSoC5/CapSense_1_CSHL.c **** 
1624:.\Generated_Source\PSoC5/CapSense_1_CSHL.c ****         if (maxX != 0xFFu)
1625:.\Generated_Source\PSoC5/CapSense_1_CSHL.c ****         {
1626:.\Generated_Source\PSoC5/CapSense_1_CSHL.c ****             offset = CapSense_1_rawDataIndex[widget + 1u];
1627:.\Generated_Source\PSoC5/CapSense_1_CSHL.c ****             count = CapSense_1_numberOfSensors[widget + 1u];
1628:.\Generated_Source\PSoC5/CapSense_1_CSHL.c **** 
1629:.\Generated_Source\PSoC5/CapSense_1_CSHL.c ****             /* Find Maximum within Y centroid */
1630:.\Generated_Source\PSoC5/CapSense_1_CSHL.c ****             #if (CapSense_1_IS_DIPLEX_SLIDER)
ARM GAS  C:\Users\user\AppData\Local\Temp\ccxeGpeX.s 			page 38


1631:.\Generated_Source\PSoC5/CapSense_1_CSHL.c ****                 maxY = CapSense_1_FindMaximum(offset, count, CapSense_1_fingerThreshold[widget + 1u
1632:.\Generated_Source\PSoC5/CapSense_1_CSHL.c ****             #else
1633:.\Generated_Source\PSoC5/CapSense_1_CSHL.c ****                 maxY = CapSense_1_FindMaximum(offset, count, CapSense_1_fingerThreshold[widget + 1u
1634:.\Generated_Source\PSoC5/CapSense_1_CSHL.c ****             #endif /* (CapSense_1_IS_DIPLEX_SLIDER) */
1635:.\Generated_Source\PSoC5/CapSense_1_CSHL.c **** 
1636:.\Generated_Source\PSoC5/CapSense_1_CSHL.c ****             if (maxY != 0xFFu)
1637:.\Generated_Source\PSoC5/CapSense_1_CSHL.c ****             {
1638:.\Generated_Source\PSoC5/CapSense_1_CSHL.c ****                 /* X and Y maximums are found = true touch */
1639:.\Generated_Source\PSoC5/CapSense_1_CSHL.c ****                 touch = 1u;
1640:.\Generated_Source\PSoC5/CapSense_1_CSHL.c ****                 
1641:.\Generated_Source\PSoC5/CapSense_1_CSHL.c ****                 /* Calculate Y centroid */
1642:.\Generated_Source\PSoC5/CapSense_1_CSHL.c ****                 posY = CapSense_1_CalcCentroid(maxY, offset, count, 
1643:.\Generated_Source\PSoC5/CapSense_1_CSHL.c ****                             CapSense_1_centroidMult[widget + 1u], CapSense_1_noiseThreshold[widget 
1644:.\Generated_Source\PSoC5/CapSense_1_CSHL.c ****                 
1645:.\Generated_Source\PSoC5/CapSense_1_CSHL.c ****                 /* Calculate X centroid */
1646:.\Generated_Source\PSoC5/CapSense_1_CSHL.c ****                 offset = CapSense_1_rawDataIndex[widget];
1647:.\Generated_Source\PSoC5/CapSense_1_CSHL.c ****                 count = CapSense_1_numberOfSensors[widget];
1648:.\Generated_Source\PSoC5/CapSense_1_CSHL.c ****                 
1649:.\Generated_Source\PSoC5/CapSense_1_CSHL.c ****                 posX = CapSense_1_CalcCentroid(maxX, offset, count, 
1650:.\Generated_Source\PSoC5/CapSense_1_CSHL.c ****                             CapSense_1_centroidMult[widget],CapSense_1_noiseThreshold[widget]);
1651:.\Generated_Source\PSoC5/CapSense_1_CSHL.c ****     
1652:.\Generated_Source\PSoC5/CapSense_1_CSHL.c ****                 #if (0u != CapSense_1_TOUCH_PADS_POS_FILTERS_MASK)
1653:.\Generated_Source\PSoC5/CapSense_1_CSHL.c ****                     /* Check if this TP has enabled filters */
1654:.\Generated_Source\PSoC5/CapSense_1_CSHL.c ****                     if (0u != (posFiltersMask & CapSense_1_ANY_POS_FILTER))
1655:.\Generated_Source\PSoC5/CapSense_1_CSHL.c ****                     {
1656:.\Generated_Source\PSoC5/CapSense_1_CSHL.c ****                         /* Caluclate position to store filters data */
1657:.\Generated_Source\PSoC5/CapSense_1_CSHL.c ****                         posXIndex  = firstTimeIndex + 1u;
1658:.\Generated_Source\PSoC5/CapSense_1_CSHL.c ****                         posYIndex  = CapSense_1_posFiltersData[widget + 1u];
1659:.\Generated_Source\PSoC5/CapSense_1_CSHL.c ****                         
1660:.\Generated_Source\PSoC5/CapSense_1_CSHL.c ****                         if (0u == CapSense_1_posFiltersData[firstTimeIndex])
1661:.\Generated_Source\PSoC5/CapSense_1_CSHL.c ****                         {
1662:.\Generated_Source\PSoC5/CapSense_1_CSHL.c ****                             /* Init filters */
1663:.\Generated_Source\PSoC5/CapSense_1_CSHL.c ****                             CapSense_1_posFiltersData[posXIndex] = posX;
1664:.\Generated_Source\PSoC5/CapSense_1_CSHL.c ****                             CapSense_1_posFiltersData[posYIndex] = posY;
1665:.\Generated_Source\PSoC5/CapSense_1_CSHL.c **** 
1666:.\Generated_Source\PSoC5/CapSense_1_CSHL.c ****                             #if((0u != (CapSense_1_MEDIAN_FILTER & \
1667:.\Generated_Source\PSoC5/CapSense_1_CSHL.c ****                                         CapSense_1_TOUCH_PADS_POS_FILTERS_MASK))|| \
1668:.\Generated_Source\PSoC5/CapSense_1_CSHL.c ****                                 (0u != (CapSense_1_AVERAGING_FILTER & \
1669:.\Generated_Source\PSoC5/CapSense_1_CSHL.c ****                                         CapSense_1_TOUCH_PADS_POS_FILTERS_MASK)))
1670:.\Generated_Source\PSoC5/CapSense_1_CSHL.c **** 
1671:.\Generated_Source\PSoC5/CapSense_1_CSHL.c ****                                 if ( (0u != (posFiltersMask & CapSense_1_MEDIAN_FILTER)) || 
1672:.\Generated_Source\PSoC5/CapSense_1_CSHL.c ****                                      (0u != (posFiltersMask & CapSense_1_AVERAGING_FILTER)) )
1673:.\Generated_Source\PSoC5/CapSense_1_CSHL.c ****                                 {
1674:.\Generated_Source\PSoC5/CapSense_1_CSHL.c ****                                     CapSense_1_posFiltersData[posXIndex + 1u] = posX;
1675:.\Generated_Source\PSoC5/CapSense_1_CSHL.c ****                                     CapSense_1_posFiltersData[posYIndex + 1u] = posY;
1676:.\Generated_Source\PSoC5/CapSense_1_CSHL.c ****                                 }
1677:.\Generated_Source\PSoC5/CapSense_1_CSHL.c ****                             #endif /* ((0u != (CapSense_1_MEDIAN_FILTER & \
1678:.\Generated_Source\PSoC5/CapSense_1_CSHL.c ****                                    *           CapSense_1_TOUCH_PADS_POS_FILTERS_MASK)) || \
1679:.\Generated_Source\PSoC5/CapSense_1_CSHL.c ****                                    *    (0u != (CapSense_1_AVERAGING_FILTER & \
1680:.\Generated_Source\PSoC5/CapSense_1_CSHL.c ****                                    *            CapSense_1_TOUCH_PADS_POS_FILTERS_MASK)))
1681:.\Generated_Source\PSoC5/CapSense_1_CSHL.c ****                                    */
1682:.\Generated_Source\PSoC5/CapSense_1_CSHL.c ****                             
1683:.\Generated_Source\PSoC5/CapSense_1_CSHL.c ****                             CapSense_1_posFiltersData[firstTimeIndex] = 1u;
1684:.\Generated_Source\PSoC5/CapSense_1_CSHL.c ****                         }
1685:.\Generated_Source\PSoC5/CapSense_1_CSHL.c ****                         else
1686:.\Generated_Source\PSoC5/CapSense_1_CSHL.c ****                         {
1687:.\Generated_Source\PSoC5/CapSense_1_CSHL.c ****                             /* Do filtering */
ARM GAS  C:\Users\user\AppData\Local\Temp\ccxeGpeX.s 			page 39


1688:.\Generated_Source\PSoC5/CapSense_1_CSHL.c ****                             #if (0u != (CapSense_1_MEDIAN_FILTER & CapSense_1_TOUCH_PADS_POS_FILTER
1689:.\Generated_Source\PSoC5/CapSense_1_CSHL.c ****                                 if (0u != (posFiltersMask & CapSense_1_MEDIAN_FILTER))
1690:.\Generated_Source\PSoC5/CapSense_1_CSHL.c ****                                 {
1691:.\Generated_Source\PSoC5/CapSense_1_CSHL.c ****                                     tempPos = posX;
1692:.\Generated_Source\PSoC5/CapSense_1_CSHL.c ****                                     posX = (uint8) CapSense_1_MedianFilter(posX,
1693:.\Generated_Source\PSoC5/CapSense_1_CSHL.c ****                                                                       CapSense_1_posFiltersData[pos
1694:.\Generated_Source\PSoC5/CapSense_1_CSHL.c ****                                                                       CapSense_1_posFiltersData[pos
1695:.\Generated_Source\PSoC5/CapSense_1_CSHL.c ****                                     CapSense_1_posFiltersData[posXIndex + 1u] = 
1696:.\Generated_Source\PSoC5/CapSense_1_CSHL.c ****                                                                              CapSense_1_posFiltersD
1697:.\Generated_Source\PSoC5/CapSense_1_CSHL.c ****                                     CapSense_1_posFiltersData[posXIndex] = tempPos;
1698:.\Generated_Source\PSoC5/CapSense_1_CSHL.c ****                                     
1699:.\Generated_Source\PSoC5/CapSense_1_CSHL.c ****                                     tempPos = posY;
1700:.\Generated_Source\PSoC5/CapSense_1_CSHL.c ****                                     posY = (uint8) CapSense_1_MedianFilter(posY,
1701:.\Generated_Source\PSoC5/CapSense_1_CSHL.c ****                                                                        CapSense_1_posFiltersData[po
1702:.\Generated_Source\PSoC5/CapSense_1_CSHL.c ****                                                                        CapSense_1_posFiltersData[po
1703:.\Generated_Source\PSoC5/CapSense_1_CSHL.c ****                                     CapSense_1_posFiltersData[posYIndex + 1u] = 
1704:.\Generated_Source\PSoC5/CapSense_1_CSHL.c ****                                                                              CapSense_1_posFiltersD
1705:.\Generated_Source\PSoC5/CapSense_1_CSHL.c ****                                     CapSense_1_posFiltersData[posYIndex] = tempPos;
1706:.\Generated_Source\PSoC5/CapSense_1_CSHL.c ****                                 }
1707:.\Generated_Source\PSoC5/CapSense_1_CSHL.c ****                                 
1708:.\Generated_Source\PSoC5/CapSense_1_CSHL.c ****                             #endif /* (0u != (CapSense_1_MEDIAN_FILTER & \
1709:.\Generated_Source\PSoC5/CapSense_1_CSHL.c ****                                    *          CapSense_1_TOUCH_PADS_POS_FILTERS_MASK))
1710:.\Generated_Source\PSoC5/CapSense_1_CSHL.c ****                                    */
1711:.\Generated_Source\PSoC5/CapSense_1_CSHL.c **** 
1712:.\Generated_Source\PSoC5/CapSense_1_CSHL.c ****                             #if(0u !=(CapSense_1_AVERAGING_FILTER & CapSense_1_TOUCH_PADS_POS_FILTE
1713:.\Generated_Source\PSoC5/CapSense_1_CSHL.c ****                                 if (0u != (posFiltersMask & CapSense_1_AVERAGING_FILTER))
1714:.\Generated_Source\PSoC5/CapSense_1_CSHL.c ****                                 {
1715:.\Generated_Source\PSoC5/CapSense_1_CSHL.c ****                                     tempPos = posX;
1716:.\Generated_Source\PSoC5/CapSense_1_CSHL.c ****                                     posX = (uint8) CapSense_1_AveragingFilter(posX,
1717:.\Generated_Source\PSoC5/CapSense_1_CSHL.c ****                                                                        CapSense_1_posFiltersData[po
1718:.\Generated_Source\PSoC5/CapSense_1_CSHL.c ****                                                                        CapSense_1_posFiltersData[po
1719:.\Generated_Source\PSoC5/CapSense_1_CSHL.c ****                                     CapSense_1_posFiltersData[posXIndex + 1u] = 
1720:.\Generated_Source\PSoC5/CapSense_1_CSHL.c ****                                                                              CapSense_1_posFiltersD
1721:.\Generated_Source\PSoC5/CapSense_1_CSHL.c ****                                     CapSense_1_posFiltersData[posXIndex] = tempPos;
1722:.\Generated_Source\PSoC5/CapSense_1_CSHL.c ****                                     
1723:.\Generated_Source\PSoC5/CapSense_1_CSHL.c ****                                     tempPos = posY;
1724:.\Generated_Source\PSoC5/CapSense_1_CSHL.c ****                                     posY = (uint8) CapSense_1_AveragingFilter(posY, 
1725:.\Generated_Source\PSoC5/CapSense_1_CSHL.c ****                                                                       CapSense_1_posFiltersData[pos
1726:.\Generated_Source\PSoC5/CapSense_1_CSHL.c ****                                                                       CapSense_1_posFiltersData[pos
1727:.\Generated_Source\PSoC5/CapSense_1_CSHL.c ****                                     CapSense_1_posFiltersData[posYIndex + 1u] = 
1728:.\Generated_Source\PSoC5/CapSense_1_CSHL.c ****                                                                             CapSense_1_posFiltersDa
1729:.\Generated_Source\PSoC5/CapSense_1_CSHL.c ****                                     CapSense_1_posFiltersData[posYIndex] = tempPos;
1730:.\Generated_Source\PSoC5/CapSense_1_CSHL.c ****                                 }
1731:.\Generated_Source\PSoC5/CapSense_1_CSHL.c **** 
1732:.\Generated_Source\PSoC5/CapSense_1_CSHL.c ****                             #endif /* (0u != (CapSense_1_AVERAGING_FILTER & \
1733:.\Generated_Source\PSoC5/CapSense_1_CSHL.c ****                                    *           CapSense_1_TOUCH_PADS_POS_FILTERS_MASK))
1734:.\Generated_Source\PSoC5/CapSense_1_CSHL.c ****                                    */
1735:.\Generated_Source\PSoC5/CapSense_1_CSHL.c **** 
1736:.\Generated_Source\PSoC5/CapSense_1_CSHL.c ****                             #if (0u != (CapSense_1_IIR2_FILTER & CapSense_1_TOUCH_PADS_POS_FILTERS_
1737:.\Generated_Source\PSoC5/CapSense_1_CSHL.c ****                                 if (0u != (posFiltersMask & CapSense_1_IIR2_FILTER))
1738:.\Generated_Source\PSoC5/CapSense_1_CSHL.c ****                                 {
1739:.\Generated_Source\PSoC5/CapSense_1_CSHL.c ****                                     posX = (uint8) CapSense_1_IIR2Filter(posX, 
1740:.\Generated_Source\PSoC5/CapSense_1_CSHL.c ****                                                                            CapSense_1_posFiltersDat
1741:.\Generated_Source\PSoC5/CapSense_1_CSHL.c ****                                     CapSense_1_posFiltersData[posXIndex] = posX;
1742:.\Generated_Source\PSoC5/CapSense_1_CSHL.c ****                                     
1743:.\Generated_Source\PSoC5/CapSense_1_CSHL.c ****                                     posY = (uint8) CapSense_1_IIR2Filter(posY, 
1744:.\Generated_Source\PSoC5/CapSense_1_CSHL.c ****                                                                             CapSense_1_posFiltersDa
ARM GAS  C:\Users\user\AppData\Local\Temp\ccxeGpeX.s 			page 40


1745:.\Generated_Source\PSoC5/CapSense_1_CSHL.c ****                                     CapSense_1_posFiltersData[posYIndex] = posY;
1746:.\Generated_Source\PSoC5/CapSense_1_CSHL.c ****                                 }
1747:.\Generated_Source\PSoC5/CapSense_1_CSHL.c ****                                 
1748:.\Generated_Source\PSoC5/CapSense_1_CSHL.c ****                             #endif /* (0u != (CapSense_1_IIR2_FILTER & \
1749:.\Generated_Source\PSoC5/CapSense_1_CSHL.c ****                                    *          CapSense_1_TOUCH_PADS_POS_FILTERS_MASK))
1750:.\Generated_Source\PSoC5/CapSense_1_CSHL.c ****                                    */
1751:.\Generated_Source\PSoC5/CapSense_1_CSHL.c **** 
1752:.\Generated_Source\PSoC5/CapSense_1_CSHL.c ****                             #if (0u != (CapSense_1_IIR4_FILTER & CapSense_1_TOUCH_PADS_POS_FILTERS_
1753:.\Generated_Source\PSoC5/CapSense_1_CSHL.c ****                                 if (0u != (posFiltersMask & CapSense_1_IIR4_FILTER))
1754:.\Generated_Source\PSoC5/CapSense_1_CSHL.c ****                                 {
1755:.\Generated_Source\PSoC5/CapSense_1_CSHL.c ****                                     posX = (uint8) CapSense_1_IIR4Filter((uint16)posX,
1756:.\Generated_Source\PSoC5/CapSense_1_CSHL.c ****                                                                     (uint16)CapSense_1_posFiltersDa
1757:.\Generated_Source\PSoC5/CapSense_1_CSHL.c ****                                     CapSense_1_posFiltersData[posXIndex] = posX;
1758:.\Generated_Source\PSoC5/CapSense_1_CSHL.c **** 
1759:.\Generated_Source\PSoC5/CapSense_1_CSHL.c ****                                     posY = (uint8) CapSense_1_IIR4Filter((uint16)posY,
1760:.\Generated_Source\PSoC5/CapSense_1_CSHL.c ****                                                                     (uint16)CapSense_1_posFiltersDa
1761:.\Generated_Source\PSoC5/CapSense_1_CSHL.c ****                                     CapSense_1_posFiltersData[posYIndex] = posY;
1762:.\Generated_Source\PSoC5/CapSense_1_CSHL.c ****                                 }
1763:.\Generated_Source\PSoC5/CapSense_1_CSHL.c ****                                 
1764:.\Generated_Source\PSoC5/CapSense_1_CSHL.c ****                             #endif /* (0u != (CapSense_1_IIR4_FILTER & \
1765:.\Generated_Source\PSoC5/CapSense_1_CSHL.c ****                                    *           CapSense_1_TOUCH_PADS_POS_FILTERS_MASK))
1766:.\Generated_Source\PSoC5/CapSense_1_CSHL.c ****                                    */
1767:.\Generated_Source\PSoC5/CapSense_1_CSHL.c **** 
1768:.\Generated_Source\PSoC5/CapSense_1_CSHL.c ****                             #if (0u != (CapSense_1_JITTER_FILTER & CapSense_1_TOUCH_PADS_POS_FILTER
1769:.\Generated_Source\PSoC5/CapSense_1_CSHL.c ****                                 if (0u != (posFiltersMask & CapSense_1_JITTER_FILTER))
1770:.\Generated_Source\PSoC5/CapSense_1_CSHL.c ****                                     {
1771:.\Generated_Source\PSoC5/CapSense_1_CSHL.c ****                                         posX = (uint8) CapSense_1_JitterFilter(posX, 
1772:.\Generated_Source\PSoC5/CapSense_1_CSHL.c ****                                                                             CapSense_1_posFiltersDa
1773:.\Generated_Source\PSoC5/CapSense_1_CSHL.c ****                                         CapSense_1_posFiltersData[posXIndex] = posX;
1774:.\Generated_Source\PSoC5/CapSense_1_CSHL.c ****                                         
1775:.\Generated_Source\PSoC5/CapSense_1_CSHL.c ****                                         posY = (uint8) CapSense_1_JitterFilter(posY, 
1776:.\Generated_Source\PSoC5/CapSense_1_CSHL.c ****                                                                             CapSense_1_posFiltersDa
1777:.\Generated_Source\PSoC5/CapSense_1_CSHL.c ****                                         CapSense_1_posFiltersData[posYIndex] = posY;
1778:.\Generated_Source\PSoC5/CapSense_1_CSHL.c ****                                     }
1779:.\Generated_Source\PSoC5/CapSense_1_CSHL.c ****                             #endif /* (0u != (CapSense_1_JITTER_FILTER & \
1780:.\Generated_Source\PSoC5/CapSense_1_CSHL.c ****                                    *           CapSense_1_TOUCH_PADS_POS_FILTERS_MASK))
1781:.\Generated_Source\PSoC5/CapSense_1_CSHL.c ****                                    */
1782:.\Generated_Source\PSoC5/CapSense_1_CSHL.c ****                         }
1783:.\Generated_Source\PSoC5/CapSense_1_CSHL.c ****                     }
1784:.\Generated_Source\PSoC5/CapSense_1_CSHL.c ****                 #endif /* (0u != CapSense_1_TOUCH_PADS_POS_FILTERS_MASK) */
1785:.\Generated_Source\PSoC5/CapSense_1_CSHL.c **** 
1786:.\Generated_Source\PSoC5/CapSense_1_CSHL.c ****                 /* Save positions */
1787:.\Generated_Source\PSoC5/CapSense_1_CSHL.c ****                 pos[0u] = posX;
1788:.\Generated_Source\PSoC5/CapSense_1_CSHL.c ****                 pos[1u] = posY;
1789:.\Generated_Source\PSoC5/CapSense_1_CSHL.c ****             }
1790:.\Generated_Source\PSoC5/CapSense_1_CSHL.c ****         }
1791:.\Generated_Source\PSoC5/CapSense_1_CSHL.c **** 
1792:.\Generated_Source\PSoC5/CapSense_1_CSHL.c ****         #if (0u != CapSense_1_TOUCH_PADS_POS_FILTERS_MASK)
1793:.\Generated_Source\PSoC5/CapSense_1_CSHL.c ****             if(touch == 0u)
1794:.\Generated_Source\PSoC5/CapSense_1_CSHL.c ****             {
1795:.\Generated_Source\PSoC5/CapSense_1_CSHL.c ****                 /* Reset the filters */
1796:.\Generated_Source\PSoC5/CapSense_1_CSHL.c ****                 if ((posFiltersMask & CapSense_1_ANY_POS_FILTER) != 0u)
1797:.\Generated_Source\PSoC5/CapSense_1_CSHL.c ****                 {
1798:.\Generated_Source\PSoC5/CapSense_1_CSHL.c ****                     CapSense_1_posFiltersData[firstTimeIndex] = 0u;
1799:.\Generated_Source\PSoC5/CapSense_1_CSHL.c ****                 }
1800:.\Generated_Source\PSoC5/CapSense_1_CSHL.c ****             }
1801:.\Generated_Source\PSoC5/CapSense_1_CSHL.c ****         #endif /* (0u != CapSense_1_TOUCH_PADS_POS_FILTERS_MASK) */
ARM GAS  C:\Users\user\AppData\Local\Temp\ccxeGpeX.s 			page 41


1802:.\Generated_Source\PSoC5/CapSense_1_CSHL.c ****         
1803:.\Generated_Source\PSoC5/CapSense_1_CSHL.c ****         return (touch);
1804:.\Generated_Source\PSoC5/CapSense_1_CSHL.c ****     }
1805:.\Generated_Source\PSoC5/CapSense_1_CSHL.c **** #endif /* (CapSense_1_TOTAL_TOUCH_PADS_COUNT > 0u) */
1806:.\Generated_Source\PSoC5/CapSense_1_CSHL.c **** 
1807:.\Generated_Source\PSoC5/CapSense_1_CSHL.c **** 
1808:.\Generated_Source\PSoC5/CapSense_1_CSHL.c **** #if ( (CapSense_1_RAW_FILTER_MASK & CapSense_1_MEDIAN_FILTER) | \
1809:.\Generated_Source\PSoC5/CapSense_1_CSHL.c ****       (CapSense_1_POS_FILTERS_MASK & CapSense_1_MEDIAN_FILTER) )
1810:.\Generated_Source\PSoC5/CapSense_1_CSHL.c ****     /*******************************************************************************
1811:.\Generated_Source\PSoC5/CapSense_1_CSHL.c ****     * Function Name: CapSense_1_MedianFilter
1812:.\Generated_Source\PSoC5/CapSense_1_CSHL.c ****     ********************************************************************************
1813:.\Generated_Source\PSoC5/CapSense_1_CSHL.c ****     *
1814:.\Generated_Source\PSoC5/CapSense_1_CSHL.c ****     * Summary:
1815:.\Generated_Source\PSoC5/CapSense_1_CSHL.c ****     *  Median filter function. 
1816:.\Generated_Source\PSoC5/CapSense_1_CSHL.c ****     *  The median filter looks at the three most recent samples and reports the 
1817:.\Generated_Source\PSoC5/CapSense_1_CSHL.c ****     *  median value.
1818:.\Generated_Source\PSoC5/CapSense_1_CSHL.c ****     *
1819:.\Generated_Source\PSoC5/CapSense_1_CSHL.c ****     * Parameters:
1820:.\Generated_Source\PSoC5/CapSense_1_CSHL.c ****     *  x1:  Current value.
1821:.\Generated_Source\PSoC5/CapSense_1_CSHL.c ****     *  x2:  Previous value.
1822:.\Generated_Source\PSoC5/CapSense_1_CSHL.c ****     *  x3:  Before previous value.
1823:.\Generated_Source\PSoC5/CapSense_1_CSHL.c ****     *
1824:.\Generated_Source\PSoC5/CapSense_1_CSHL.c ****     * Return:
1825:.\Generated_Source\PSoC5/CapSense_1_CSHL.c ****     *  Returns filtered value.
1826:.\Generated_Source\PSoC5/CapSense_1_CSHL.c ****     *
1827:.\Generated_Source\PSoC5/CapSense_1_CSHL.c ****     *******************************************************************************/
1828:.\Generated_Source\PSoC5/CapSense_1_CSHL.c ****     uint16 CapSense_1_MedianFilter(uint16 x1, uint16 x2, uint16 x3)
1829:.\Generated_Source\PSoC5/CapSense_1_CSHL.c ****                                          
1830:.\Generated_Source\PSoC5/CapSense_1_CSHL.c ****     {
1831:.\Generated_Source\PSoC5/CapSense_1_CSHL.c ****         uint16 tmp;
1832:.\Generated_Source\PSoC5/CapSense_1_CSHL.c ****         
1833:.\Generated_Source\PSoC5/CapSense_1_CSHL.c ****         if (x1 > x2)
1834:.\Generated_Source\PSoC5/CapSense_1_CSHL.c ****         {
1835:.\Generated_Source\PSoC5/CapSense_1_CSHL.c ****             tmp = x2;
1836:.\Generated_Source\PSoC5/CapSense_1_CSHL.c ****             x2 = x1;
1837:.\Generated_Source\PSoC5/CapSense_1_CSHL.c ****             x1 = tmp;
1838:.\Generated_Source\PSoC5/CapSense_1_CSHL.c ****         }
1839:.\Generated_Source\PSoC5/CapSense_1_CSHL.c ****         
1840:.\Generated_Source\PSoC5/CapSense_1_CSHL.c ****         if (x2 > x3)
1841:.\Generated_Source\PSoC5/CapSense_1_CSHL.c ****         {
1842:.\Generated_Source\PSoC5/CapSense_1_CSHL.c ****             x2 = x3;
1843:.\Generated_Source\PSoC5/CapSense_1_CSHL.c ****         }
1844:.\Generated_Source\PSoC5/CapSense_1_CSHL.c ****         
1845:.\Generated_Source\PSoC5/CapSense_1_CSHL.c ****         return ((x1 > x2) ? x1 : x2);
1846:.\Generated_Source\PSoC5/CapSense_1_CSHL.c ****     }
1847:.\Generated_Source\PSoC5/CapSense_1_CSHL.c **** #endif /* ( (CapSense_1_RAW_FILTER_MASK & CapSense_1_MEDIAN_FILTER) | \
1848:.\Generated_Source\PSoC5/CapSense_1_CSHL.c ****        *    (CapSense_1_POS_FILTERS_MASK & CapSense_1_MEDIAN_FILTER) )
1849:.\Generated_Source\PSoC5/CapSense_1_CSHL.c ****        */
1850:.\Generated_Source\PSoC5/CapSense_1_CSHL.c **** 
1851:.\Generated_Source\PSoC5/CapSense_1_CSHL.c **** 
1852:.\Generated_Source\PSoC5/CapSense_1_CSHL.c **** #if ( (CapSense_1_RAW_FILTER_MASK & CapSense_1_AVERAGING_FILTER) | \
1853:.\Generated_Source\PSoC5/CapSense_1_CSHL.c ****       (CapSense_1_POS_FILTERS_MASK & CapSense_1_AVERAGING_FILTER) )
1854:.\Generated_Source\PSoC5/CapSense_1_CSHL.c ****     /*******************************************************************************
1855:.\Generated_Source\PSoC5/CapSense_1_CSHL.c ****     * Function Name: CapSense_1_AveragingFilter
1856:.\Generated_Source\PSoC5/CapSense_1_CSHL.c ****     ********************************************************************************
1857:.\Generated_Source\PSoC5/CapSense_1_CSHL.c ****     *
1858:.\Generated_Source\PSoC5/CapSense_1_CSHL.c ****     * Summary:
ARM GAS  C:\Users\user\AppData\Local\Temp\ccxeGpeX.s 			page 42


1859:.\Generated_Source\PSoC5/CapSense_1_CSHL.c ****     *  Averaging filter function.
1860:.\Generated_Source\PSoC5/CapSense_1_CSHL.c ****     *  The averaging filter looks at the three most recent samples of position and
1861:.\Generated_Source\PSoC5/CapSense_1_CSHL.c ****     *  reports the averaging value.
1862:.\Generated_Source\PSoC5/CapSense_1_CSHL.c ****     *
1863:.\Generated_Source\PSoC5/CapSense_1_CSHL.c ****     * Parameters:
1864:.\Generated_Source\PSoC5/CapSense_1_CSHL.c ****     *  x1:  Current value.
1865:.\Generated_Source\PSoC5/CapSense_1_CSHL.c ****     *  x2:  Previous value.
1866:.\Generated_Source\PSoC5/CapSense_1_CSHL.c ****     *  x3:  Before previous value.
1867:.\Generated_Source\PSoC5/CapSense_1_CSHL.c ****     *
1868:.\Generated_Source\PSoC5/CapSense_1_CSHL.c ****     * Return:
1869:.\Generated_Source\PSoC5/CapSense_1_CSHL.c ****     *  Returns filtered value.
1870:.\Generated_Source\PSoC5/CapSense_1_CSHL.c ****     *
1871:.\Generated_Source\PSoC5/CapSense_1_CSHL.c ****     *******************************************************************************/
1872:.\Generated_Source\PSoC5/CapSense_1_CSHL.c ****     uint16 CapSense_1_AveragingFilter(uint16 x1, uint16 x2, uint16 x3)
1873:.\Generated_Source\PSoC5/CapSense_1_CSHL.c ****                                             
1874:.\Generated_Source\PSoC5/CapSense_1_CSHL.c ****     {
1875:.\Generated_Source\PSoC5/CapSense_1_CSHL.c ****         uint32 tmp = ((uint32)x1 + (uint32)x2 + (uint32)x3) / 3u;
1876:.\Generated_Source\PSoC5/CapSense_1_CSHL.c ****         
1877:.\Generated_Source\PSoC5/CapSense_1_CSHL.c ****         return ((uint16) tmp);
1878:.\Generated_Source\PSoC5/CapSense_1_CSHL.c ****     }
1879:.\Generated_Source\PSoC5/CapSense_1_CSHL.c **** #endif /* ( (CapSense_1_RAW_FILTER_MASK & CapSense_1_AVERAGING_FILTER) | \
1880:.\Generated_Source\PSoC5/CapSense_1_CSHL.c ****        *    (CapSense_1_POS_FILTERS_MASK & CapSense_1_AVERAGING_FILTER) )
1881:.\Generated_Source\PSoC5/CapSense_1_CSHL.c ****        */
1882:.\Generated_Source\PSoC5/CapSense_1_CSHL.c **** 
1883:.\Generated_Source\PSoC5/CapSense_1_CSHL.c **** 
1884:.\Generated_Source\PSoC5/CapSense_1_CSHL.c **** #if ( (CapSense_1_RAW_FILTER_MASK & CapSense_1_IIR2_FILTER) | \
1885:.\Generated_Source\PSoC5/CapSense_1_CSHL.c ****       (CapSense_1_POS_FILTERS_MASK & CapSense_1_IIR2_FILTER) )
1886:.\Generated_Source\PSoC5/CapSense_1_CSHL.c ****     /*******************************************************************************
1887:.\Generated_Source\PSoC5/CapSense_1_CSHL.c ****     * Function Name: CapSense_1_IIR2Filter
1888:.\Generated_Source\PSoC5/CapSense_1_CSHL.c ****     ********************************************************************************
1889:.\Generated_Source\PSoC5/CapSense_1_CSHL.c ****     *
1890:.\Generated_Source\PSoC5/CapSense_1_CSHL.c ****     * Summary:
1891:.\Generated_Source\PSoC5/CapSense_1_CSHL.c ****     *  IIR1/2 filter function. IIR1/2 = 1/2current + 1/2previous.
1892:.\Generated_Source\PSoC5/CapSense_1_CSHL.c ****     *
1893:.\Generated_Source\PSoC5/CapSense_1_CSHL.c ****     * Parameters:
1894:.\Generated_Source\PSoC5/CapSense_1_CSHL.c ****     *  x1:  Current value.
1895:.\Generated_Source\PSoC5/CapSense_1_CSHL.c ****     *  x2:  Previous value.
1896:.\Generated_Source\PSoC5/CapSense_1_CSHL.c ****     *
1897:.\Generated_Source\PSoC5/CapSense_1_CSHL.c ****     * Return:
1898:.\Generated_Source\PSoC5/CapSense_1_CSHL.c ****     *  Returns filtered value.
1899:.\Generated_Source\PSoC5/CapSense_1_CSHL.c ****     *
1900:.\Generated_Source\PSoC5/CapSense_1_CSHL.c ****     *******************************************************************************/
1901:.\Generated_Source\PSoC5/CapSense_1_CSHL.c ****     uint16 CapSense_1_IIR2Filter(uint16 x1, uint16 x2)
1902:.\Generated_Source\PSoC5/CapSense_1_CSHL.c ****                                        
1903:.\Generated_Source\PSoC5/CapSense_1_CSHL.c ****     {
1904:.\Generated_Source\PSoC5/CapSense_1_CSHL.c ****         uint32 tmp;
1905:.\Generated_Source\PSoC5/CapSense_1_CSHL.c ****         
1906:.\Generated_Source\PSoC5/CapSense_1_CSHL.c ****         /* IIR = 1/2 Current Value+ 1/2 Previous Value */
1907:.\Generated_Source\PSoC5/CapSense_1_CSHL.c ****         tmp = (uint32)x1 + (uint32)x2;
1908:.\Generated_Source\PSoC5/CapSense_1_CSHL.c ****         tmp >>= 1u;
1909:.\Generated_Source\PSoC5/CapSense_1_CSHL.c ****     
1910:.\Generated_Source\PSoC5/CapSense_1_CSHL.c ****         return ((uint16) tmp);
1911:.\Generated_Source\PSoC5/CapSense_1_CSHL.c ****     }
1912:.\Generated_Source\PSoC5/CapSense_1_CSHL.c **** #endif /* ( (CapSense_1_RAW_FILTER_MASK & CapSense_1_IIR2_FILTER) | \
1913:.\Generated_Source\PSoC5/CapSense_1_CSHL.c ****        *    (CapSense_1_POS_FILTERS_MASK & CapSense_1_IIR2_FILTER) )
1914:.\Generated_Source\PSoC5/CapSense_1_CSHL.c ****        */
1915:.\Generated_Source\PSoC5/CapSense_1_CSHL.c **** 
ARM GAS  C:\Users\user\AppData\Local\Temp\ccxeGpeX.s 			page 43


1916:.\Generated_Source\PSoC5/CapSense_1_CSHL.c **** 
1917:.\Generated_Source\PSoC5/CapSense_1_CSHL.c **** #if ( (CapSense_1_RAW_FILTER_MASK & CapSense_1_IIR4_FILTER) | \
1918:.\Generated_Source\PSoC5/CapSense_1_CSHL.c ****       (CapSense_1_POS_FILTERS_MASK & CapSense_1_IIR4_FILTER) )
1919:.\Generated_Source\PSoC5/CapSense_1_CSHL.c ****     /*******************************************************************************
1920:.\Generated_Source\PSoC5/CapSense_1_CSHL.c ****     * Function Name: CapSense_1_IIR4Filter
1921:.\Generated_Source\PSoC5/CapSense_1_CSHL.c ****     ********************************************************************************
1922:.\Generated_Source\PSoC5/CapSense_1_CSHL.c ****     *
1923:.\Generated_Source\PSoC5/CapSense_1_CSHL.c ****     * Summary:
1924:.\Generated_Source\PSoC5/CapSense_1_CSHL.c ****     *  IIR1/4 filter function. IIR1/4 = 1/4current + 3/4previous.
1925:.\Generated_Source\PSoC5/CapSense_1_CSHL.c ****     *
1926:.\Generated_Source\PSoC5/CapSense_1_CSHL.c ****     * Parameters:
1927:.\Generated_Source\PSoC5/CapSense_1_CSHL.c ****     *  x1:  Current value.
1928:.\Generated_Source\PSoC5/CapSense_1_CSHL.c ****     *  x2:  Previous value.
1929:.\Generated_Source\PSoC5/CapSense_1_CSHL.c ****     *
1930:.\Generated_Source\PSoC5/CapSense_1_CSHL.c ****     * Return:
1931:.\Generated_Source\PSoC5/CapSense_1_CSHL.c ****     *  Returns filtered value.
1932:.\Generated_Source\PSoC5/CapSense_1_CSHL.c ****     *
1933:.\Generated_Source\PSoC5/CapSense_1_CSHL.c ****     *******************************************************************************/
1934:.\Generated_Source\PSoC5/CapSense_1_CSHL.c ****     uint16 CapSense_1_IIR4Filter(uint16 x1, uint16 x2)
1935:.\Generated_Source\PSoC5/CapSense_1_CSHL.c ****                                        
1936:.\Generated_Source\PSoC5/CapSense_1_CSHL.c ****     {
 474              		.loc 1 1936 0
 475              		.cfi_startproc
 476              		@ args = 0, pretend = 0, frame = 0
 477              		@ frame_needed = 0, uses_anonymous_args = 0
 478              		@ link register save eliminated.
 479              	.LVL43:
1937:.\Generated_Source\PSoC5/CapSense_1_CSHL.c ****         uint32 tmp;
1938:.\Generated_Source\PSoC5/CapSense_1_CSHL.c ****         
1939:.\Generated_Source\PSoC5/CapSense_1_CSHL.c ****         /* IIR = 1/4 Current Value + 3/4 Previous Value */
1940:.\Generated_Source\PSoC5/CapSense_1_CSHL.c ****         tmp = (uint32)x1 + (uint32)x2;
 480              		.loc 1 1940 0
 481 0000 00EB4100 		add	r0, r0, r1, lsl #1
 482              	.LVL44:
1941:.\Generated_Source\PSoC5/CapSense_1_CSHL.c ****         tmp += ((uint32)x2 << 1u);
 483              		.loc 1 1941 0
 484 0004 0844     		add	r0, r0, r1
 485              	.LVL45:
1942:.\Generated_Source\PSoC5/CapSense_1_CSHL.c ****         tmp >>= 2u;
1943:.\Generated_Source\PSoC5/CapSense_1_CSHL.c ****         
1944:.\Generated_Source\PSoC5/CapSense_1_CSHL.c ****         return ((uint16) tmp);
1945:.\Generated_Source\PSoC5/CapSense_1_CSHL.c ****     }
 486              		.loc 1 1945 0
 487 0006 C0F38F00 		ubfx	r0, r0, #2, #16
 488              	.LVL46:
 489 000a 7047     		bx	lr
 490              		.cfi_endproc
 491              	.LFE11:
 492              		.size	CapSense_1_IIR4Filter, .-CapSense_1_IIR4Filter
 493              		.section	.text.CapSense_1_UpdateSensorBaseline,"ax",%progbits
 494              		.align	2
 495              		.global	CapSense_1_UpdateSensorBaseline
 496              		.thumb
 497              		.thumb_func
 498              		.type	CapSense_1_UpdateSensorBaseline, %function
 499              	CapSense_1_UpdateSensorBaseline:
 500              	.LFB4:
ARM GAS  C:\Users\user\AppData\Local\Temp\ccxeGpeX.s 			page 44


 348:.\Generated_Source\PSoC5/CapSense_1_CSHL.c ****     uint32 calc;
 501              		.loc 1 348 0
 502              		.cfi_startproc
 503              		@ args = 0, pretend = 0, frame = 0
 504              		@ frame_needed = 0, uses_anonymous_args = 0
 505              	.LVL47:
 506 0000 70B5     		push	{r4, r5, r6, lr}
 507              		.cfi_def_cfa_offset 16
 508              		.cfi_offset 4, -16
 509              		.cfi_offset 5, -12
 510              		.cfi_offset 6, -8
 511              		.cfi_offset 14, -4
 512 0002 0446     		mov	r4, r0
 513              	.LVL48:
 382:.\Generated_Source\PSoC5/CapSense_1_CSHL.c ****         CapSense_1_rawFilterData1[sensor] = filteredRawData;
 514              		.loc 1 382 0
 515 0004 254D     		ldr	r5, .L57
 516 0006 264B     		ldr	r3, .L57+4
 517 0008 33F81000 		ldrh	r0, [r3, r0, lsl #1]
 518              	.LVL49:
 519 000c 35F81410 		ldrh	r1, [r5, r4, lsl #1]
 520 0010 FFF7FEFF 		bl	CapSense_1_IIR4Filter
 521              	.LVL50:
 383:.\Generated_Source\PSoC5/CapSense_1_CSHL.c ****             
 522              		.loc 1 383 0
 523 0014 25F81400 		strh	r0, [r5, r4, lsl #1]	@ movhi
 408:.\Generated_Source\PSoC5/CapSense_1_CSHL.c ****     {
 524              		.loc 1 408 0
 525 0018 224B     		ldr	r3, .L57+8
 526 001a 33F81420 		ldrh	r2, [r3, r4, lsl #1]
 527 001e 8242     		cmp	r2, r0
 528 0020 03D8     		bhi	.L47
 410:.\Generated_Source\PSoC5/CapSense_1_CSHL.c ****         widget = 1u;    /* Positive difference - Calculate the Signal */
 529              		.loc 1 410 0
 530 0022 851A     		subs	r5, r0, r2
 531 0024 ADB2     		uxth	r5, r5
 532              	.LVL51:
 411:.\Generated_Source\PSoC5/CapSense_1_CSHL.c ****     }
 533              		.loc 1 411 0
 534 0026 0126     		movs	r6, #1
 535 0028 02E0     		b	.L48
 536              	.LVL52:
 537              	.L47:
 415:.\Generated_Source\PSoC5/CapSense_1_CSHL.c ****         widget = 0u;    /* Negative difference - Do NOT calculate the Signal */
 538              		.loc 1 415 0
 539 002a 151A     		subs	r5, r2, r0
 540 002c ADB2     		uxth	r5, r5
 541              	.LVL53:
 416:.\Generated_Source\PSoC5/CapSense_1_CSHL.c ****     }
 542              		.loc 1 416 0
 543 002e 0026     		movs	r6, #0
 544              	.LVL54:
 545              	.L48:
 419:.\Generated_Source\PSoC5/CapSense_1_CSHL.c ****     {
 546              		.loc 1 419 0
 547 0030 86B9     		cbnz	r6, .L49
 419:.\Generated_Source\PSoC5/CapSense_1_CSHL.c ****     {
ARM GAS  C:\Users\user\AppData\Local\Temp\ccxeGpeX.s 			page 45


 548              		.loc 1 419 0 is_stmt 0 discriminator 1
 549 0032 142D     		cmp	r5, #20
 550 0034 0ED9     		bls	.L49
 421:.\Generated_Source\PSoC5/CapSense_1_CSHL.c ****         {
 551              		.loc 1 421 0 is_stmt 1
 552 0036 1C4B     		ldr	r3, .L57+12
 553 0038 1B5D     		ldrb	r3, [r3, r4]	@ zero_extendqisi2
 554 003a 042B     		cmp	r3, #4
 555 003c 06D9     		bls	.L50
 423:.\Generated_Source\PSoC5/CapSense_1_CSHL.c ****             CapSense_1_lowBaselineResetCnt[sensor] = 0u;
 556              		.loc 1 423 0
 557 003e 2046     		mov	r0, r4
 558              	.LVL55:
 559 0040 FFF7FEFF 		bl	CapSense_1_BaseInit
 560              	.LVL56:
 424:.\Generated_Source\PSoC5/CapSense_1_CSHL.c ****         }
 561              		.loc 1 424 0
 562 0044 0022     		movs	r2, #0
 563 0046 184B     		ldr	r3, .L57+12
 564 0048 1A55     		strb	r2, [r3, r4]
 565 004a 17E0     		b	.L51
 566              	.LVL57:
 567              	.L50:
 428:.\Generated_Source\PSoC5/CapSense_1_CSHL.c ****         }
 568              		.loc 1 428 0
 569 004c 0133     		adds	r3, r3, #1
 570 004e 164A     		ldr	r2, .L57+12
 571 0050 1355     		strb	r3, [r2, r4]
 572 0052 13E0     		b	.L51
 573              	.L49:
 435:.\Generated_Source\PSoC5/CapSense_1_CSHL.c ****                  ((tempRaw < (uint16) CapSense_1_NEGATIVE_NOISE_THRESHOLD)
 574              		.loc 1 435 0
 575 0054 142D     		cmp	r5, #20
 576 0056 02D9     		bls	.L52
 435:.\Generated_Source\PSoC5/CapSense_1_CSHL.c ****                  ((tempRaw < (uint16) CapSense_1_NEGATIVE_NOISE_THRESHOLD)
 577              		.loc 1 435 0 is_stmt 0 discriminator 1
 578 0058 132D     		cmp	r5, #19
 579 005a 0FD8     		bhi	.L51
 437:.\Generated_Source\PSoC5/CapSense_1_CSHL.c ****             {
 580              		.loc 1 437 0 is_stmt 1
 581 005c 76B9     		cbnz	r6, .L51
 582              	.L52:
 583              	.LVL58:
 442:.\Generated_Source\PSoC5/CapSense_1_CSHL.c **** 
 584              		.loc 1 442 0
 585 005e 1349     		ldr	r1, .L57+16
 586 0060 0B5D     		ldrb	r3, [r1, r4]	@ zero_extendqisi2
 587 0062 43EA0223 		orr	r3, r3, r2, lsl #8
 588              	.LVL59:
 445:.\Generated_Source\PSoC5/CapSense_1_CSHL.c **** 
 589              		.loc 1 445 0
 590 0066 1844     		add	r0, r0, r3
 591              	.LVL60:
 448:.\Generated_Source\PSoC5/CapSense_1_CSHL.c **** 
 592              		.loc 1 448 0
 593 0068 801A     		subs	r0, r0, r2
 594              	.LVL61:
ARM GAS  C:\Users\user\AppData\Local\Temp\ccxeGpeX.s 			page 46


 451:.\Generated_Source\PSoC5/CapSense_1_CSHL.c ****                 CapSense_1_sensorBaselineLow[sensor] = ((uint8) calc);
 595              		.loc 1 451 0
 596 006a C0F30F22 		ubfx	r2, r0, #8, #16
 597 006e 0D4B     		ldr	r3, .L57+8
 598 0070 23F81420 		strh	r2, [r3, r4, lsl #1]	@ movhi
 452:.\Generated_Source\PSoC5/CapSense_1_CSHL.c **** 
 599              		.loc 1 452 0
 600 0074 0855     		strb	r0, [r1, r4]
 454:.\Generated_Source\PSoC5/CapSense_1_CSHL.c ****         #if (CapSense_1_AUTO_RESET == CapSense_1_AUTO_RESET_DISABLE)
 601              		.loc 1 454 0
 602 0076 0022     		movs	r2, #0
 603 0078 0B4B     		ldr	r3, .L57+12
 604 007a 1A55     		strb	r2, [r3, r4]
 605              	.LVL62:
 606              	.L51:
 461:.\Generated_Source\PSoC5/CapSense_1_CSHL.c ****     {
 607              		.loc 1 461 0
 608 007c 142D     		cmp	r5, #20
 609 007e 09D9     		bls	.L53
 461:.\Generated_Source\PSoC5/CapSense_1_CSHL.c ****     {
 610              		.loc 1 461 0 is_stmt 0 discriminator 1
 611 0080 46B1     		cbz	r6, .L53
 465:.\Generated_Source\PSoC5/CapSense_1_CSHL.c ****             {
 612              		.loc 1 465 0 is_stmt 1
 613 0082 FF2D     		cmp	r5, #255
 614 0084 03D9     		bls	.L54
 467:.\Generated_Source\PSoC5/CapSense_1_CSHL.c ****             }    
 615              		.loc 1 467 0
 616 0086 FF22     		movs	r2, #255
 617 0088 094B     		ldr	r3, .L57+20
 618 008a 1A55     		strb	r2, [r3, r4]
 619 008c 70BD     		pop	{r4, r5, r6, pc}
 620              	.LVL63:
 621              	.L54:
 471:.\Generated_Source\PSoC5/CapSense_1_CSHL.c ****             }
 622              		.loc 1 471 0
 623 008e 084B     		ldr	r3, .L57+20
 624 0090 1D55     		strb	r5, [r3, r4]
 625 0092 70BD     		pop	{r4, r5, r6, pc}
 626              	.LVL64:
 627              	.L53:
 480:.\Generated_Source\PSoC5/CapSense_1_CSHL.c ****     }
 628              		.loc 1 480 0
 629 0094 0022     		movs	r2, #0
 630 0096 064B     		ldr	r3, .L57+20
 631 0098 1A55     		strb	r2, [r3, r4]
 632 009a 70BD     		pop	{r4, r5, r6, pc}
 633              	.LVL65:
 634              	.L58:
 635              		.align	2
 636              	.L57:
 637 009c 00000000 		.word	CapSense_1_rawFilterData1
 638 00a0 00000000 		.word	CapSense_1_sensorRaw
 639 00a4 00000000 		.word	CapSense_1_sensorBaseline
 640 00a8 00000000 		.word	CapSense_1_lowBaselineResetCnt
 641 00ac 00000000 		.word	CapSense_1_sensorBaselineLow
 642 00b0 00000000 		.word	CapSense_1_sensorSignal
ARM GAS  C:\Users\user\AppData\Local\Temp\ccxeGpeX.s 			page 47


 643              		.cfi_endproc
 644              	.LFE4:
 645              		.size	CapSense_1_UpdateSensorBaseline, .-CapSense_1_UpdateSensorBaseline
 646              		.section	.text.CapSense_1_UpdateEnabledBaselines,"ax",%progbits
 647              		.align	2
 648              		.global	CapSense_1_UpdateEnabledBaselines
 649              		.thumb
 650              		.thumb_func
 651              		.type	CapSense_1_UpdateEnabledBaselines, %function
 652              	CapSense_1_UpdateEnabledBaselines:
 653              	.LFB5:
 521:.\Generated_Source\PSoC5/CapSense_1_CSHL.c ****     uint8 i;
 654              		.loc 1 521 0
 655              		.cfi_startproc
 656              		@ args = 0, pretend = 0, frame = 0
 657              		@ frame_needed = 0, uses_anonymous_args = 0
 658 0000 10B5     		push	{r4, lr}
 659              		.cfi_def_cfa_offset 8
 660              		.cfi_offset 4, -8
 661              		.cfi_offset 14, -4
 662              	.LVL66:
 526:.\Generated_Source\PSoC5/CapSense_1_CSHL.c ****     {
 663              		.loc 1 526 0
 664 0002 0024     		movs	r4, #0
 665 0004 0DE0     		b	.L60
 666              	.LVL67:
 667              	.L62:
 528:.\Generated_Source\PSoC5/CapSense_1_CSHL.c ****         enMask = (uint8)(0x01u << (i & 0x07u));
 668              		.loc 1 528 0
 669 0006 E208     		lsrs	r2, r4, #3
 529:.\Generated_Source\PSoC5/CapSense_1_CSHL.c ****         if((CapSense_1_sensorEnableMask[pos] & enMask) != 0u)
 670              		.loc 1 529 0
 671 0008 04F00701 		and	r1, r4, #7
 672 000c 0123     		movs	r3, #1
 673 000e 8B40     		lsls	r3, r3, r1
 674              	.LVL68:
 530:.\Generated_Source\PSoC5/CapSense_1_CSHL.c ****         {
 675              		.loc 1 530 0
 676 0010 0549     		ldr	r1, .L64
 677 0012 8A5C     		ldrb	r2, [r1, r2]	@ zero_extendqisi2
 678 0014 1342     		tst	r3, r2
 679 0016 02D0     		beq	.L61
 532:.\Generated_Source\PSoC5/CapSense_1_CSHL.c ****         }
 680              		.loc 1 532 0
 681 0018 2046     		mov	r0, r4
 682 001a FFF7FEFF 		bl	CapSense_1_UpdateSensorBaseline
 683              	.LVL69:
 684              	.L61:
 526:.\Generated_Source\PSoC5/CapSense_1_CSHL.c ****     {
 685              		.loc 1 526 0 discriminator 2
 686 001e 0134     		adds	r4, r4, #1
 687              	.LVL70:
 688 0020 E4B2     		uxtb	r4, r4
 689              	.LVL71:
 690              	.L60:
 526:.\Generated_Source\PSoC5/CapSense_1_CSHL.c ****     {
 691              		.loc 1 526 0 is_stmt 0 discriminator 1
ARM GAS  C:\Users\user\AppData\Local\Temp\ccxeGpeX.s 			page 48


 692 0022 002C     		cmp	r4, #0
 693 0024 EFD0     		beq	.L62
 535:.\Generated_Source\PSoC5/CapSense_1_CSHL.c **** 
 694              		.loc 1 535 0 is_stmt 1
 695 0026 10BD     		pop	{r4, pc}
 696              	.LVL72:
 697              	.L65:
 698              		.align	2
 699              	.L64:
 700 0028 00000000 		.word	CapSense_1_sensorEnableMask
 701              		.cfi_endproc
 702              	.LFE5:
 703              		.size	CapSense_1_UpdateEnabledBaselines, .-CapSense_1_UpdateEnabledBaselines
 704              		.global	CapSense_1_numberOfSensors
 705              		.global	CapSense_1_rawDataIndex
 706              		.global	CapSense_1_debounceCounter
 707              		.global	CapSense_1_debounce
 708              		.global	CapSense_1_hysteresis
 709              		.global	CapSense_1_noiseThreshold
 710              		.global	CapSense_1_fingerThreshold
 711              		.comm	CapSense_1_lowBaselineResetCnt,1,4
 712              		.comm	CapSense_1_sensorOnMask,1,4
 713              		.comm	CapSense_1_sensorSignal,1,4
 714              		.comm	CapSense_1_sensorBaselineLow,1,4
 715              		.comm	CapSense_1_sensorBaseline,2,4
 716              		.comm	CapSense_1_rawFilterData1,2,4
 717              		.section	.rodata
 718              		.align	2
 719              		.type	CapSense_1_numberOfSensors, %object
 720              		.size	CapSense_1_numberOfSensors, 1
 721              	CapSense_1_numberOfSensors:
 722 0000 01       		.byte	1
 723 0001 000000   		.space	3
 724              		.type	CapSense_1_rawDataIndex, %object
 725              		.size	CapSense_1_rawDataIndex, 1
 726              	CapSense_1_rawDataIndex:
 727 0004 00       		.space	1
 728 0005 000000   		.space	3
 729              		.type	CapSense_1_debounce, %object
 730              		.size	CapSense_1_debounce, 1
 731              	CapSense_1_debounce:
 732 0008 05       		.byte	5
 733 0009 000000   		.space	3
 734              		.type	CapSense_1_hysteresis, %object
 735              		.size	CapSense_1_hysteresis, 1
 736              	CapSense_1_hysteresis:
 737 000c 0A       		.byte	10
 738 000d 000000   		.space	3
 739              		.type	CapSense_1_noiseThreshold, %object
 740              		.size	CapSense_1_noiseThreshold, 1
 741              	CapSense_1_noiseThreshold:
 742 0010 14       		.byte	20
 743 0011 000000   		.space	3
 744              		.type	CapSense_1_fingerThreshold, %object
 745              		.size	CapSense_1_fingerThreshold, 1
 746              	CapSense_1_fingerThreshold:
 747 0014 64       		.byte	100
ARM GAS  C:\Users\user\AppData\Local\Temp\ccxeGpeX.s 			page 49


 748 0015 000000   		.bss
 749              		.align	2
 750              		.set	.LANCHOR0,. + 0
 751              		.type	CapSense_1_debounceCounter, %object
 752              		.size	CapSense_1_debounceCounter, 2
 753              	CapSense_1_debounceCounter:
 754 0000 0000     		.space	2
 755 0002 0000     		.text
 756              	.Letext0:
 757              		.file 2 ".\\Generated_Source\\PSoC5\\cytypes.h"
 758              		.file 3 ".\\Generated_Source\\PSoC5\\CapSense_1.h"
 759              		.file 4 ".\\Generated_Source\\PSoC5\\CapSense_1_CSHL.h"