ARM GAS  C:\Users\user\AppData\Local\Temp\ccxtGrYL.s 			page 1


   1              		.syntax unified
   2              		.cpu cortex-m3
   3              		.fpu softvfp
   4              		.eabi_attribute 20, 1
   5              		.eabi_attribute 21, 1
   6              		.eabi_attribute 23, 3
   7              		.eabi_attribute 24, 1
   8              		.eabi_attribute 25, 1
   9              		.eabi_attribute 26, 1
  10              		.eabi_attribute 30, 6
  11              		.eabi_attribute 34, 1
  12              		.eabi_attribute 18, 4
  13              		.thumb
  14              		.file	"CapSense_CSD_CSHL.c"
  15              		.text
  16              	.Ltext0:
  17              		.cfi_sections	.debug_frame
  18              		.comm	CapSense_CSD_sensorBaseline,2,4
  19              		.comm	CapSense_CSD_sensorBaselineLow,1,4
  20              		.comm	CapSense_CSD_sensorSignal,2,4
  21              		.comm	CapSense_CSD_sensorOnMask,1,4
  22              		.comm	CapSense_CSD_lowBaselineResetCnt,1,4
  23              		.global	CapSense_CSD_fingerThreshold
  24              		.data
  25              		.align	2
  26              		.type	CapSense_CSD_fingerThreshold, %object
  27              		.size	CapSense_CSD_fingerThreshold, 2
  28              	CapSense_CSD_fingerThreshold:
  29 0000 6400     		.short	100
  30              		.global	CapSense_CSD_noiseThreshold
  31 0002 0000     		.align	2
  32              		.type	CapSense_CSD_noiseThreshold, %object
  33              		.size	CapSense_CSD_noiseThreshold, 2
  34              	CapSense_CSD_noiseThreshold:
  35 0004 1400     		.short	20
  36              		.global	CapSense_CSD_hysteresis
  37 0006 0000     		.align	2
  38              		.type	CapSense_CSD_hysteresis, %object
  39              		.size	CapSense_CSD_hysteresis, 2
  40              	CapSense_CSD_hysteresis:
  41 0008 0A00     		.short	10
  42              		.global	CapSense_CSD_debounce
  43 000a 0000     		.align	2
  44              		.type	CapSense_CSD_debounce, %object
  45              		.size	CapSense_CSD_debounce, 1
  46              	CapSense_CSD_debounce:
  47 000c 05       		.byte	5
  48              		.global	CapSense_CSD_debounceCounter
  49 000d 000000   		.bss
  50              		.align	2
  51              		.type	CapSense_CSD_debounceCounter, %object
  52              		.size	CapSense_CSD_debounceCounter, 2
  53              	CapSense_CSD_debounceCounter:
  54 0000 0000     		.space	2
  55              		.global	CapSense_CSD_rawDataIndex
  56 0002 0000     		.section	.rodata
  57              		.align	2
ARM GAS  C:\Users\user\AppData\Local\Temp\ccxtGrYL.s 			page 2


  58              		.type	CapSense_CSD_rawDataIndex, %object
  59              		.size	CapSense_CSD_rawDataIndex, 1
  60              	CapSense_CSD_rawDataIndex:
  61 0000 00       		.space	1
  62              		.global	CapSense_CSD_numberOfSensors
  63 0001 000000   		.align	2
  64              		.type	CapSense_CSD_numberOfSensors, %object
  65              		.size	CapSense_CSD_numberOfSensors, 1
  66              	CapSense_CSD_numberOfSensors:
  67 0004 01       		.byte	1
  68 0005 000000   		.section	.text.CapSense_CSD_BaseInit,"ax",%progbits
  69              		.align	2
  70              		.global	CapSense_CSD_BaseInit
  71              		.thumb
  72              		.thumb_func
  73              		.type	CapSense_CSD_BaseInit, %function
  74              	CapSense_CSD_BaseInit:
  75              	.LFB0:
  76              		.file 1 ".\\Generated_Source\\PSoC5\\CapSense_CSD_CSHL.c"
   1:.\Generated_Source\PSoC5/CapSense_CSD_CSHL.c **** /*******************************************************************************
   2:.\Generated_Source\PSoC5/CapSense_CSD_CSHL.c **** * File Name: CapSense_CSD_CSHL.c
   3:.\Generated_Source\PSoC5/CapSense_CSD_CSHL.c **** * Version 3.40
   4:.\Generated_Source\PSoC5/CapSense_CSD_CSHL.c **** *
   5:.\Generated_Source\PSoC5/CapSense_CSD_CSHL.c **** * Description:
   6:.\Generated_Source\PSoC5/CapSense_CSD_CSHL.c **** *  This file provides the source code to the High Level APIs for the CapSesne
   7:.\Generated_Source\PSoC5/CapSense_CSD_CSHL.c **** *  CSD component.
   8:.\Generated_Source\PSoC5/CapSense_CSD_CSHL.c **** *
   9:.\Generated_Source\PSoC5/CapSense_CSD_CSHL.c **** * Note:
  10:.\Generated_Source\PSoC5/CapSense_CSD_CSHL.c **** *
  11:.\Generated_Source\PSoC5/CapSense_CSD_CSHL.c **** ********************************************************************************
  12:.\Generated_Source\PSoC5/CapSense_CSD_CSHL.c **** * Copyright 2008-2013, Cypress Semiconductor Corporation.  All rights reserved.
  13:.\Generated_Source\PSoC5/CapSense_CSD_CSHL.c **** * You may use this file only in accordance with the license, terms, conditions,
  14:.\Generated_Source\PSoC5/CapSense_CSD_CSHL.c **** * disclaimers, and limitations in the end user license agreement accompanying
  15:.\Generated_Source\PSoC5/CapSense_CSD_CSHL.c **** * the software package with which this file was provided.
  16:.\Generated_Source\PSoC5/CapSense_CSD_CSHL.c **** *******************************************************************************/
  17:.\Generated_Source\PSoC5/CapSense_CSD_CSHL.c **** 
  18:.\Generated_Source\PSoC5/CapSense_CSD_CSHL.c **** #include "CapSense_CSD_CSHL.h"
  19:.\Generated_Source\PSoC5/CapSense_CSD_CSHL.c **** 
  20:.\Generated_Source\PSoC5/CapSense_CSD_CSHL.c **** /* Storage of filters data */
  21:.\Generated_Source\PSoC5/CapSense_CSD_CSHL.c **** #if ( (CapSense_CSD_RAW_FILTER_MASK & CapSense_CSD_MEDIAN_FILTER) | \
  22:.\Generated_Source\PSoC5/CapSense_CSD_CSHL.c ****       (CapSense_CSD_RAW_FILTER_MASK & CapSense_CSD_AVERAGING_FILTER) )
  23:.\Generated_Source\PSoC5/CapSense_CSD_CSHL.c **** 
  24:.\Generated_Source\PSoC5/CapSense_CSD_CSHL.c ****     uint16 CapSense_CSD_rawFilterData1[CapSense_CSD_TOTAL_SENSOR_COUNT];
  25:.\Generated_Source\PSoC5/CapSense_CSD_CSHL.c ****     uint16 CapSense_CSD_rawFilterData2[CapSense_CSD_TOTAL_SENSOR_COUNT];
  26:.\Generated_Source\PSoC5/CapSense_CSD_CSHL.c **** 
  27:.\Generated_Source\PSoC5/CapSense_CSD_CSHL.c **** #elif ( (CapSense_CSD_RAW_FILTER_MASK & CapSense_CSD_IIR2_FILTER)   | \
  28:.\Generated_Source\PSoC5/CapSense_CSD_CSHL.c ****         (CapSense_CSD_RAW_FILTER_MASK & CapSense_CSD_IIR4_FILTER)   | \
  29:.\Generated_Source\PSoC5/CapSense_CSD_CSHL.c ****         (CapSense_CSD_RAW_FILTER_MASK & CapSense_CSD_JITTER_FILTER) | \
  30:.\Generated_Source\PSoC5/CapSense_CSD_CSHL.c ****         (CapSense_CSD_RAW_FILTER_MASK & CapSense_CSD_IIR8_FILTER)   | \
  31:.\Generated_Source\PSoC5/CapSense_CSD_CSHL.c ****         (CapSense_CSD_RAW_FILTER_MASK & CapSense_CSD_IIR16_FILTER) )
  32:.\Generated_Source\PSoC5/CapSense_CSD_CSHL.c ****         
  33:.\Generated_Source\PSoC5/CapSense_CSD_CSHL.c ****     uint16 CapSense_CSD_rawFilterData1[CapSense_CSD_TOTAL_SENSOR_COUNT];
  34:.\Generated_Source\PSoC5/CapSense_CSD_CSHL.c **** 
  35:.\Generated_Source\PSoC5/CapSense_CSD_CSHL.c **** #else
  36:.\Generated_Source\PSoC5/CapSense_CSD_CSHL.c ****     /* No Raw filters */
  37:.\Generated_Source\PSoC5/CapSense_CSD_CSHL.c **** #endif  /* ( (CapSense_CSD_RAW_FILTER_MASK & CapSense_CSD_MEDIAN_FILTER) || \
  38:.\Generated_Source\PSoC5/CapSense_CSD_CSHL.c ****         *    (CapSense_CSD_RAW_FILTER_MASK & CapSense_CSD_AVERAGING_FILTER) )
ARM GAS  C:\Users\user\AppData\Local\Temp\ccxtGrYL.s 			page 3


  39:.\Generated_Source\PSoC5/CapSense_CSD_CSHL.c ****         */
  40:.\Generated_Source\PSoC5/CapSense_CSD_CSHL.c **** 
  41:.\Generated_Source\PSoC5/CapSense_CSD_CSHL.c **** uint16 CapSense_CSD_sensorBaseline[CapSense_CSD_TOTAL_SENSOR_COUNT];
  42:.\Generated_Source\PSoC5/CapSense_CSD_CSHL.c **** uint8 CapSense_CSD_sensorBaselineLow[CapSense_CSD_TOTAL_SENSOR_COUNT];
  43:.\Generated_Source\PSoC5/CapSense_CSD_CSHL.c **** uint16 CapSense_CSD_sensorSignal[CapSense_CSD_TOTAL_SENSOR_COUNT];
  44:.\Generated_Source\PSoC5/CapSense_CSD_CSHL.c **** uint8 CapSense_CSD_sensorOnMask[(((CapSense_CSD_TOTAL_SENSOR_COUNT - 1u) / 8u) + 1u)];
  45:.\Generated_Source\PSoC5/CapSense_CSD_CSHL.c **** 
  46:.\Generated_Source\PSoC5/CapSense_CSD_CSHL.c **** uint8 CapSense_CSD_lowBaselineResetCnt[CapSense_CSD_TOTAL_SENSOR_COUNT];
  47:.\Generated_Source\PSoC5/CapSense_CSD_CSHL.c **** 
  48:.\Generated_Source\PSoC5/CapSense_CSD_CSHL.c **** uint16 CapSense_CSD_fingerThreshold[] = {
  49:.\Generated_Source\PSoC5/CapSense_CSD_CSHL.c ****     100u, 
  50:.\Generated_Source\PSoC5/CapSense_CSD_CSHL.c **** };
  51:.\Generated_Source\PSoC5/CapSense_CSD_CSHL.c **** 
  52:.\Generated_Source\PSoC5/CapSense_CSD_CSHL.c **** uint16 CapSense_CSD_noiseThreshold[] = {
  53:.\Generated_Source\PSoC5/CapSense_CSD_CSHL.c ****     20u, 
  54:.\Generated_Source\PSoC5/CapSense_CSD_CSHL.c **** };
  55:.\Generated_Source\PSoC5/CapSense_CSD_CSHL.c **** 
  56:.\Generated_Source\PSoC5/CapSense_CSD_CSHL.c **** uint16 CapSense_CSD_hysteresis[] = {
  57:.\Generated_Source\PSoC5/CapSense_CSD_CSHL.c ****     10u, 
  58:.\Generated_Source\PSoC5/CapSense_CSD_CSHL.c **** };
  59:.\Generated_Source\PSoC5/CapSense_CSD_CSHL.c **** 
  60:.\Generated_Source\PSoC5/CapSense_CSD_CSHL.c **** uint8 CapSense_CSD_debounce[] = {
  61:.\Generated_Source\PSoC5/CapSense_CSD_CSHL.c ****     5u, 
  62:.\Generated_Source\PSoC5/CapSense_CSD_CSHL.c **** };
  63:.\Generated_Source\PSoC5/CapSense_CSD_CSHL.c **** 
  64:.\Generated_Source\PSoC5/CapSense_CSD_CSHL.c **** uint8 CapSense_CSD_debounceCounter[] = {
  65:.\Generated_Source\PSoC5/CapSense_CSD_CSHL.c ****     0u, 0u, 
  66:.\Generated_Source\PSoC5/CapSense_CSD_CSHL.c **** };
  67:.\Generated_Source\PSoC5/CapSense_CSD_CSHL.c **** 
  68:.\Generated_Source\PSoC5/CapSense_CSD_CSHL.c **** const uint8 CYCODE CapSense_CSD_rawDataIndex[] = {
  69:.\Generated_Source\PSoC5/CapSense_CSD_CSHL.c ****     0u, /* ProximitySensor0__PROX */
  70:.\Generated_Source\PSoC5/CapSense_CSD_CSHL.c **** 
  71:.\Generated_Source\PSoC5/CapSense_CSD_CSHL.c **** };
  72:.\Generated_Source\PSoC5/CapSense_CSD_CSHL.c **** 
  73:.\Generated_Source\PSoC5/CapSense_CSD_CSHL.c **** const uint8 CYCODE CapSense_CSD_numberOfSensors[] = {
  74:.\Generated_Source\PSoC5/CapSense_CSD_CSHL.c ****     1u, /* ProximitySensor0__PROX */
  75:.\Generated_Source\PSoC5/CapSense_CSD_CSHL.c **** 
  76:.\Generated_Source\PSoC5/CapSense_CSD_CSHL.c **** };
  77:.\Generated_Source\PSoC5/CapSense_CSD_CSHL.c **** 
  78:.\Generated_Source\PSoC5/CapSense_CSD_CSHL.c **** 
  79:.\Generated_Source\PSoC5/CapSense_CSD_CSHL.c **** 
  80:.\Generated_Source\PSoC5/CapSense_CSD_CSHL.c **** 
  81:.\Generated_Source\PSoC5/CapSense_CSD_CSHL.c **** /*******************************************************************************
  82:.\Generated_Source\PSoC5/CapSense_CSD_CSHL.c **** * Function Name: CapSense_CSD_BaseInit
  83:.\Generated_Source\PSoC5/CapSense_CSD_CSHL.c **** ********************************************************************************
  84:.\Generated_Source\PSoC5/CapSense_CSD_CSHL.c **** *
  85:.\Generated_Source\PSoC5/CapSense_CSD_CSHL.c **** * Summary:
  86:.\Generated_Source\PSoC5/CapSense_CSD_CSHL.c **** *  Loads the CapSense_CSD_sensorBaseline[sensor] array element with an 
  87:.\Generated_Source\PSoC5/CapSense_CSD_CSHL.c **** *  initial value which is equal to raw count value. 
  88:.\Generated_Source\PSoC5/CapSense_CSD_CSHL.c **** *  Resets to zero CapSense_CSD_sensorBaselineLow[sensor] and 
  89:.\Generated_Source\PSoC5/CapSense_CSD_CSHL.c **** *  CapSense_CSD_sensorSignal[sensor] array element.
  90:.\Generated_Source\PSoC5/CapSense_CSD_CSHL.c **** *  Loads CapSense_CSD_debounceCounter[sensor] array element with initial 
  91:.\Generated_Source\PSoC5/CapSense_CSD_CSHL.c **** *  value equal CapSense_CSD_debounce[].
  92:.\Generated_Source\PSoC5/CapSense_CSD_CSHL.c **** *  Loads the CapSense_CSD_rawFilterData2[sensor] and 
  93:.\Generated_Source\PSoC5/CapSense_CSD_CSHL.c **** *  CapSense_CSD_rawFilterData2[sensor] array element with an 
  94:.\Generated_Source\PSoC5/CapSense_CSD_CSHL.c **** *  initial value which is equal raw count value if raw data filter is enabled.
  95:.\Generated_Source\PSoC5/CapSense_CSD_CSHL.c **** *
ARM GAS  C:\Users\user\AppData\Local\Temp\ccxtGrYL.s 			page 4


  96:.\Generated_Source\PSoC5/CapSense_CSD_CSHL.c **** * Parameters:
  97:.\Generated_Source\PSoC5/CapSense_CSD_CSHL.c **** *  sensor:  Sensor number.
  98:.\Generated_Source\PSoC5/CapSense_CSD_CSHL.c **** *
  99:.\Generated_Source\PSoC5/CapSense_CSD_CSHL.c **** * Return:
 100:.\Generated_Source\PSoC5/CapSense_CSD_CSHL.c **** *  None
 101:.\Generated_Source\PSoC5/CapSense_CSD_CSHL.c **** *
 102:.\Generated_Source\PSoC5/CapSense_CSD_CSHL.c **** * Global Variables:
 103:.\Generated_Source\PSoC5/CapSense_CSD_CSHL.c **** *  CapSense_CSD_sensorBaseline[]    - used to store baseline value.
 104:.\Generated_Source\PSoC5/CapSense_CSD_CSHL.c **** *  CapSense_CSD_sensorBaselineLow[] - used to store fraction byte of 
 105:.\Generated_Source\PSoC5/CapSense_CSD_CSHL.c **** *  baseline value.
 106:.\Generated_Source\PSoC5/CapSense_CSD_CSHL.c **** *  CapSense_CSD_sensorSignal[]      - used to store diffence between 
 107:.\Generated_Source\PSoC5/CapSense_CSD_CSHL.c **** *  current value of raw data and previous value of baseline.
 108:.\Generated_Source\PSoC5/CapSense_CSD_CSHL.c **** *  CapSense_CSD_debounceCounter[]   - used to store current debounce 
 109:.\Generated_Source\PSoC5/CapSense_CSD_CSHL.c **** *  counter of sensor. Widget which has this parameter are buttons, matrix 
 110:.\Generated_Source\PSoC5/CapSense_CSD_CSHL.c **** *  buttons, proximity, guard. All other widgets haven't debounce parameter
 111:.\Generated_Source\PSoC5/CapSense_CSD_CSHL.c **** *  and use the last element of this array with value 0 (it means no debounce).
 112:.\Generated_Source\PSoC5/CapSense_CSD_CSHL.c **** *  CapSense_CSD_rawFilterData1[]    - used to store previous sample of 
 113:.\Generated_Source\PSoC5/CapSense_CSD_CSHL.c **** *  any enabled raw data filter.
 114:.\Generated_Source\PSoC5/CapSense_CSD_CSHL.c **** *  CapSense_CSD_rawFilterData2[]    - used to store before previous sample
 115:.\Generated_Source\PSoC5/CapSense_CSD_CSHL.c **** *  of enabled raw data filter. Only required for median or average filters.
 116:.\Generated_Source\PSoC5/CapSense_CSD_CSHL.c **** *
 117:.\Generated_Source\PSoC5/CapSense_CSD_CSHL.c **** * Reentrant:
 118:.\Generated_Source\PSoC5/CapSense_CSD_CSHL.c **** *  No
 119:.\Generated_Source\PSoC5/CapSense_CSD_CSHL.c **** *
 120:.\Generated_Source\PSoC5/CapSense_CSD_CSHL.c **** *******************************************************************************/
 121:.\Generated_Source\PSoC5/CapSense_CSD_CSHL.c **** void CapSense_CSD_BaseInit(uint8 sensor) 
 122:.\Generated_Source\PSoC5/CapSense_CSD_CSHL.c **** {
  77              		.loc 1 122 0
  78              		.cfi_startproc
  79              		@ args = 0, pretend = 0, frame = 16
  80              		@ frame_needed = 1, uses_anonymous_args = 0
  81              		@ link register save eliminated.
  82 0000 80B4     		push	{r7}
  83              		.cfi_def_cfa_offset 4
  84              		.cfi_offset 7, -4
  85 0002 85B0     		sub	sp, sp, #20
  86              		.cfi_def_cfa_offset 24
  87 0004 00AF     		add	r7, sp, #0
  88              		.cfi_def_cfa_register 7
  89 0006 0346     		mov	r3, r0
  90 0008 FB71     		strb	r3, [r7, #7]
 123:.\Generated_Source\PSoC5/CapSense_CSD_CSHL.c ****     #if ((CapSense_CSD_TOTAL_BUTTONS_COUNT) || (CapSense_CSD_TOTAL_MATRIX_BUTTONS_COUNT) || \
 124:.\Generated_Source\PSoC5/CapSense_CSD_CSHL.c ****          (CapSense_CSD_TOTAL_GENERICS_COUNT))
 125:.\Generated_Source\PSoC5/CapSense_CSD_CSHL.c ****         uint8 widget = CapSense_CSD_widgetNumber[sensor];
  91              		.loc 1 125 0
  92 000a FB79     		ldrb	r3, [r7, #7]	@ zero_extendqisi2
  93 000c 0F4A     		ldr	r2, .L2
  94 000e D35C     		ldrb	r3, [r2, r3]
  95 0010 FB73     		strb	r3, [r7, #15]
 126:.\Generated_Source\PSoC5/CapSense_CSD_CSHL.c ****     #endif /* ((CapSense_CSD_TOTAL_MATRIX_BUTTONS_COUNT) || (CapSense_CSD_TOTAL_MATRIX_BUTTONS_COUN
 127:.\Generated_Source\PSoC5/CapSense_CSD_CSHL.c ****     
 128:.\Generated_Source\PSoC5/CapSense_CSD_CSHL.c ****     #if (CapSense_CSD_TOTAL_MATRIX_BUTTONS_COUNT)
 129:.\Generated_Source\PSoC5/CapSense_CSD_CSHL.c ****         uint8 debounceIndex;
 130:.\Generated_Source\PSoC5/CapSense_CSD_CSHL.c ****     #endif  /* (CapSense_CSD_TOTAL_MATRIX_BUTTONS_COUNT) */
 131:.\Generated_Source\PSoC5/CapSense_CSD_CSHL.c ****     
 132:.\Generated_Source\PSoC5/CapSense_CSD_CSHL.c ****     #if (CapSense_CSD_TOTAL_GENERICS_COUNT)
 133:.\Generated_Source\PSoC5/CapSense_CSD_CSHL.c ****         /* Exclude generic widget */
ARM GAS  C:\Users\user\AppData\Local\Temp\ccxtGrYL.s 			page 5


 134:.\Generated_Source\PSoC5/CapSense_CSD_CSHL.c ****         if(widget < CapSense_CSD_END_OF_WIDGETS_INDEX)
 135:.\Generated_Source\PSoC5/CapSense_CSD_CSHL.c ****         {
 136:.\Generated_Source\PSoC5/CapSense_CSD_CSHL.c ****     #endif  /* CapSense_CSD_TOTAL_GENERICS_COUNT */
 137:.\Generated_Source\PSoC5/CapSense_CSD_CSHL.c ****     
 138:.\Generated_Source\PSoC5/CapSense_CSD_CSHL.c ****     /* Initialize Baseline */
 139:.\Generated_Source\PSoC5/CapSense_CSD_CSHL.c ****     CapSense_CSD_sensorBaseline[sensor] = CapSense_CSD_sensorRaw[sensor];
  96              		.loc 1 139 0
  97 0012 FB79     		ldrb	r3, [r7, #7]	@ zero_extendqisi2
  98 0014 FA79     		ldrb	r2, [r7, #7]	@ zero_extendqisi2
  99 0016 0E49     		ldr	r1, .L2+4
 100 0018 31F81210 		ldrh	r1, [r1, r2, lsl #1]
 101 001c 0D4A     		ldr	r2, .L2+8
 102 001e 22F81310 		strh	r1, [r2, r3, lsl #1]	@ movhi
 140:.\Generated_Source\PSoC5/CapSense_CSD_CSHL.c ****     CapSense_CSD_sensorBaselineLow[sensor] = 0u;
 103              		.loc 1 140 0
 104 0022 FB79     		ldrb	r3, [r7, #7]	@ zero_extendqisi2
 105 0024 0C4A     		ldr	r2, .L2+12
 106 0026 0021     		movs	r1, #0
 107 0028 D154     		strb	r1, [r2, r3]
 141:.\Generated_Source\PSoC5/CapSense_CSD_CSHL.c ****     CapSense_CSD_sensorSignal[sensor] = 0u;
 108              		.loc 1 141 0
 109 002a FB79     		ldrb	r3, [r7, #7]	@ zero_extendqisi2
 110 002c 0B4A     		ldr	r2, .L2+16
 111 002e 0021     		movs	r1, #0
 112 0030 22F81310 		strh	r1, [r2, r3, lsl #1]	@ movhi
 142:.\Generated_Source\PSoC5/CapSense_CSD_CSHL.c ****         
 143:.\Generated_Source\PSoC5/CapSense_CSD_CSHL.c ****     CapSense_CSD_debounceCounter[widget] =  CapSense_CSD_debounce[widget];
 113              		.loc 1 143 0
 114 0034 FB7B     		ldrb	r3, [r7, #15]	@ zero_extendqisi2
 115 0036 FA7B     		ldrb	r2, [r7, #15]	@ zero_extendqisi2
 116 0038 0949     		ldr	r1, .L2+20
 117 003a 895C     		ldrb	r1, [r1, r2]	@ zero_extendqisi2
 118 003c 094A     		ldr	r2, .L2+24
 119 003e D154     		strb	r1, [r2, r3]
 144:.\Generated_Source\PSoC5/CapSense_CSD_CSHL.c **** 
 145:.\Generated_Source\PSoC5/CapSense_CSD_CSHL.c ****     
 146:.\Generated_Source\PSoC5/CapSense_CSD_CSHL.c ****     #if ((CapSense_CSD_RAW_FILTER_MASK & CapSense_CSD_MEDIAN_FILTER) |\
 147:.\Generated_Source\PSoC5/CapSense_CSD_CSHL.c ****          (CapSense_CSD_RAW_FILTER_MASK & CapSense_CSD_AVERAGING_FILTER))
 148:.\Generated_Source\PSoC5/CapSense_CSD_CSHL.c **** 
 149:.\Generated_Source\PSoC5/CapSense_CSD_CSHL.c ****         CapSense_CSD_rawFilterData1[sensor] = CapSense_CSD_sensorRaw[sensor];
 150:.\Generated_Source\PSoC5/CapSense_CSD_CSHL.c ****         CapSense_CSD_rawFilterData2[sensor] = CapSense_CSD_sensorRaw[sensor];
 151:.\Generated_Source\PSoC5/CapSense_CSD_CSHL.c ****     
 152:.\Generated_Source\PSoC5/CapSense_CSD_CSHL.c ****     #elif ((CapSense_CSD_RAW_FILTER_MASK & CapSense_CSD_IIR2_FILTER) |\
 153:.\Generated_Source\PSoC5/CapSense_CSD_CSHL.c ****            (CapSense_CSD_RAW_FILTER_MASK & CapSense_CSD_IIR4_FILTER) |\
 154:.\Generated_Source\PSoC5/CapSense_CSD_CSHL.c ****            (CapSense_CSD_RAW_FILTER_MASK & CapSense_CSD_JITTER_FILTER) |\
 155:.\Generated_Source\PSoC5/CapSense_CSD_CSHL.c ****            (CapSense_CSD_RAW_FILTER_MASK & CapSense_CSD_IIR8_FILTER) |\
 156:.\Generated_Source\PSoC5/CapSense_CSD_CSHL.c ****            (CapSense_CSD_RAW_FILTER_MASK & CapSense_CSD_IIR16_FILTER))
 157:.\Generated_Source\PSoC5/CapSense_CSD_CSHL.c ****             
 158:.\Generated_Source\PSoC5/CapSense_CSD_CSHL.c ****         CapSense_CSD_rawFilterData1[sensor] = CapSense_CSD_sensorRaw[sensor];
 159:.\Generated_Source\PSoC5/CapSense_CSD_CSHL.c ****     
 160:.\Generated_Source\PSoC5/CapSense_CSD_CSHL.c ****     #else
 161:.\Generated_Source\PSoC5/CapSense_CSD_CSHL.c ****         /* No Raw filters */
 162:.\Generated_Source\PSoC5/CapSense_CSD_CSHL.c ****     #endif  /* ((CapSense_CSD_RAW_FILTER_MASK & CapSense_CSD_MEDIAN_FILTER) | \
 163:.\Generated_Source\PSoC5/CapSense_CSD_CSHL.c ****             *   (CapSense_CSD_RAW_FILTER_MASK & CapSense_CSD_AVERAGING_FILTER))
 164:.\Generated_Source\PSoC5/CapSense_CSD_CSHL.c ****             */
 165:.\Generated_Source\PSoC5/CapSense_CSD_CSHL.c ****     
 166:.\Generated_Source\PSoC5/CapSense_CSD_CSHL.c ****     #if (CapSense_CSD_TOTAL_GENERICS_COUNT)
ARM GAS  C:\Users\user\AppData\Local\Temp\ccxtGrYL.s 			page 6


 167:.\Generated_Source\PSoC5/CapSense_CSD_CSHL.c ****         /* Exclude generic widget */
 168:.\Generated_Source\PSoC5/CapSense_CSD_CSHL.c ****         }
 169:.\Generated_Source\PSoC5/CapSense_CSD_CSHL.c ****     #endif  /* CapSense_CSD_TOTAL_GENERICS_COUNT */
 170:.\Generated_Source\PSoC5/CapSense_CSD_CSHL.c **** }
 120              		.loc 1 170 0
 121 0040 1437     		adds	r7, r7, #20
 122              		.cfi_def_cfa_offset 4
 123 0042 BD46     		mov	sp, r7
 124              		.cfi_def_cfa_register 13
 125              		@ sp needed
 126 0044 5DF8047B 		ldr	r7, [sp], #4
 127              		.cfi_restore 7
 128              		.cfi_def_cfa_offset 0
 129 0048 7047     		bx	lr
 130              	.L3:
 131 004a 00BF     		.align	2
 132              	.L2:
 133 004c 00000000 		.word	CapSense_CSD_widgetNumber
 134 0050 00000000 		.word	CapSense_CSD_sensorRaw
 135 0054 00000000 		.word	CapSense_CSD_sensorBaseline
 136 0058 00000000 		.word	CapSense_CSD_sensorBaselineLow
 137 005c 00000000 		.word	CapSense_CSD_sensorSignal
 138 0060 00000000 		.word	CapSense_CSD_debounce
 139 0064 00000000 		.word	CapSense_CSD_debounceCounter
 140              		.cfi_endproc
 141              	.LFE0:
 142              		.size	CapSense_CSD_BaseInit, .-CapSense_CSD_BaseInit
 143              		.section	.text.CapSense_CSD_InitializeSensorBaseline,"ax",%progbits
 144              		.align	2
 145              		.global	CapSense_CSD_InitializeSensorBaseline
 146              		.thumb
 147              		.thumb_func
 148              		.type	CapSense_CSD_InitializeSensorBaseline, %function
 149              	CapSense_CSD_InitializeSensorBaseline:
 150              	.LFB1:
 171:.\Generated_Source\PSoC5/CapSense_CSD_CSHL.c **** 
 172:.\Generated_Source\PSoC5/CapSense_CSD_CSHL.c **** 
 173:.\Generated_Source\PSoC5/CapSense_CSD_CSHL.c **** /*******************************************************************************
 174:.\Generated_Source\PSoC5/CapSense_CSD_CSHL.c **** * Function Name: CapSense_CSD_InitializeSensorBaseline
 175:.\Generated_Source\PSoC5/CapSense_CSD_CSHL.c **** ********************************************************************************
 176:.\Generated_Source\PSoC5/CapSense_CSD_CSHL.c **** *
 177:.\Generated_Source\PSoC5/CapSense_CSD_CSHL.c **** * Summary:
 178:.\Generated_Source\PSoC5/CapSense_CSD_CSHL.c **** *  Loads the CapSense_CSD_sensorBaseline[sensor] array element with an 
 179:.\Generated_Source\PSoC5/CapSense_CSD_CSHL.c **** *  initial value by scanning the selected sensor (one channel design) or pair 
 180:.\Generated_Source\PSoC5/CapSense_CSD_CSHL.c **** *  of sensors (two channels designs). The raw count value is copied into the 
 181:.\Generated_Source\PSoC5/CapSense_CSD_CSHL.c **** *  baseline array for each sensor. The raw data filters are initialized if 
 182:.\Generated_Source\PSoC5/CapSense_CSD_CSHL.c **** *  enabled.
 183:.\Generated_Source\PSoC5/CapSense_CSD_CSHL.c **** *
 184:.\Generated_Source\PSoC5/CapSense_CSD_CSHL.c **** * Parameters:
 185:.\Generated_Source\PSoC5/CapSense_CSD_CSHL.c **** *  sensor:  Sensor number.
 186:.\Generated_Source\PSoC5/CapSense_CSD_CSHL.c **** *
 187:.\Generated_Source\PSoC5/CapSense_CSD_CSHL.c **** * Return:
 188:.\Generated_Source\PSoC5/CapSense_CSD_CSHL.c **** *  None
 189:.\Generated_Source\PSoC5/CapSense_CSD_CSHL.c **** *
 190:.\Generated_Source\PSoC5/CapSense_CSD_CSHL.c **** * Reentrant:
 191:.\Generated_Source\PSoC5/CapSense_CSD_CSHL.c **** *  No
 192:.\Generated_Source\PSoC5/CapSense_CSD_CSHL.c **** *
ARM GAS  C:\Users\user\AppData\Local\Temp\ccxtGrYL.s 			page 7


 193:.\Generated_Source\PSoC5/CapSense_CSD_CSHL.c **** *******************************************************************************/
 194:.\Generated_Source\PSoC5/CapSense_CSD_CSHL.c **** void CapSense_CSD_InitializeSensorBaseline(uint8 sensor)
 195:.\Generated_Source\PSoC5/CapSense_CSD_CSHL.c ****                           
 196:.\Generated_Source\PSoC5/CapSense_CSD_CSHL.c **** {
 151              		.loc 1 196 0
 152              		.cfi_startproc
 153              		@ args = 0, pretend = 0, frame = 8
 154              		@ frame_needed = 1, uses_anonymous_args = 0
 155 0000 80B5     		push	{r7, lr}
 156              		.cfi_def_cfa_offset 8
 157              		.cfi_offset 7, -8
 158              		.cfi_offset 14, -4
 159 0002 82B0     		sub	sp, sp, #8
 160              		.cfi_def_cfa_offset 16
 161 0004 00AF     		add	r7, sp, #0
 162              		.cfi_def_cfa_register 7
 163 0006 0346     		mov	r3, r0
 164 0008 FB71     		strb	r3, [r7, #7]
 197:.\Generated_Source\PSoC5/CapSense_CSD_CSHL.c ****     /* Scan sensor */
 198:.\Generated_Source\PSoC5/CapSense_CSD_CSHL.c ****     CapSense_CSD_ScanSensor(sensor);
 165              		.loc 1 198 0
 166 000a FB79     		ldrb	r3, [r7, #7]	@ zero_extendqisi2
 167 000c 1846     		mov	r0, r3
 168 000e FFF7FEFF 		bl	CapSense_CSD_ScanSensor
 199:.\Generated_Source\PSoC5/CapSense_CSD_CSHL.c ****     while(CapSense_CSD_IsBusy() != 0u)
 169              		.loc 1 199 0
 170 0012 00BF     		nop
 171              	.L5:
 172              		.loc 1 199 0 is_stmt 0 discriminator 1
 173 0014 FFF7FEFF 		bl	CapSense_CSD_IsBusy
 174 0018 0346     		mov	r3, r0
 175 001a 002B     		cmp	r3, #0
 176 001c FAD1     		bne	.L5
 200:.\Generated_Source\PSoC5/CapSense_CSD_CSHL.c ****     {
 201:.\Generated_Source\PSoC5/CapSense_CSD_CSHL.c ****         /* Wait while busy */
 202:.\Generated_Source\PSoC5/CapSense_CSD_CSHL.c ****     }
 203:.\Generated_Source\PSoC5/CapSense_CSD_CSHL.c ****     
 204:.\Generated_Source\PSoC5/CapSense_CSD_CSHL.c ****     #if (CapSense_CSD_DESIGN_TYPE == CapSense_CSD_ONE_CHANNEL_DESIGN)
 205:.\Generated_Source\PSoC5/CapSense_CSD_CSHL.c ****         /* Initialize Baseline, Signal and debounce counters */       
 206:.\Generated_Source\PSoC5/CapSense_CSD_CSHL.c ****         CapSense_CSD_BaseInit(sensor);
 177              		.loc 1 206 0 is_stmt 1
 178 001e FB79     		ldrb	r3, [r7, #7]	@ zero_extendqisi2
 179 0020 1846     		mov	r0, r3
 180 0022 FFF7FEFF 		bl	CapSense_CSD_BaseInit
 207:.\Generated_Source\PSoC5/CapSense_CSD_CSHL.c ****         
 208:.\Generated_Source\PSoC5/CapSense_CSD_CSHL.c ****     #else
 209:.\Generated_Source\PSoC5/CapSense_CSD_CSHL.c ****     
 210:.\Generated_Source\PSoC5/CapSense_CSD_CSHL.c ****         if(sensor < CapSense_CSD_TOTAL_SENSOR_COUNT__CH0)
 211:.\Generated_Source\PSoC5/CapSense_CSD_CSHL.c ****         {
 212:.\Generated_Source\PSoC5/CapSense_CSD_CSHL.c ****             /* Initialize Baseline, Signal and debounce counters */ 
 213:.\Generated_Source\PSoC5/CapSense_CSD_CSHL.c ****             CapSense_CSD_BaseInit(sensor);
 214:.\Generated_Source\PSoC5/CapSense_CSD_CSHL.c ****         }
 215:.\Generated_Source\PSoC5/CapSense_CSD_CSHL.c ****         
 216:.\Generated_Source\PSoC5/CapSense_CSD_CSHL.c ****         if(sensor < CapSense_CSD_TOTAL_SENSOR_COUNT__CH1)
 217:.\Generated_Source\PSoC5/CapSense_CSD_CSHL.c ****         {
 218:.\Generated_Source\PSoC5/CapSense_CSD_CSHL.c ****             /* Initialize Baseline, Signal and debounce counters */
 219:.\Generated_Source\PSoC5/CapSense_CSD_CSHL.c ****             CapSense_CSD_BaseInit(sensor + CapSense_CSD_TOTAL_SENSOR_COUNT__CH0);
ARM GAS  C:\Users\user\AppData\Local\Temp\ccxtGrYL.s 			page 8


 220:.\Generated_Source\PSoC5/CapSense_CSD_CSHL.c ****         }
 221:.\Generated_Source\PSoC5/CapSense_CSD_CSHL.c ****     
 222:.\Generated_Source\PSoC5/CapSense_CSD_CSHL.c ****     #endif  /* (CapSense_CSD_DESIGN_TYPE == CapSense_CSD_ONE_CHANNEL_DESIGN) */
 223:.\Generated_Source\PSoC5/CapSense_CSD_CSHL.c **** }
 181              		.loc 1 223 0
 182 0026 0837     		adds	r7, r7, #8
 183              		.cfi_def_cfa_offset 8
 184 0028 BD46     		mov	sp, r7
 185              		.cfi_def_cfa_register 13
 186              		@ sp needed
 187 002a 80BD     		pop	{r7, pc}
 188              		.cfi_endproc
 189              	.LFE1:
 190              		.size	CapSense_CSD_InitializeSensorBaseline, .-CapSense_CSD_InitializeSensorBaseline
 191              		.section	.text.CapSense_CSD_InitializeAllBaselines,"ax",%progbits
 192              		.align	2
 193              		.global	CapSense_CSD_InitializeAllBaselines
 194              		.thumb
 195              		.thumb_func
 196              		.type	CapSense_CSD_InitializeAllBaselines, %function
 197              	CapSense_CSD_InitializeAllBaselines:
 198              	.LFB2:
 224:.\Generated_Source\PSoC5/CapSense_CSD_CSHL.c **** 
 225:.\Generated_Source\PSoC5/CapSense_CSD_CSHL.c **** 
 226:.\Generated_Source\PSoC5/CapSense_CSD_CSHL.c **** /*******************************************************************************
 227:.\Generated_Source\PSoC5/CapSense_CSD_CSHL.c **** * Function Name: CapSense_CSD_InitializeAllBaselines
 228:.\Generated_Source\PSoC5/CapSense_CSD_CSHL.c **** ********************************************************************************
 229:.\Generated_Source\PSoC5/CapSense_CSD_CSHL.c **** *
 230:.\Generated_Source\PSoC5/CapSense_CSD_CSHL.c **** * Summary:
 231:.\Generated_Source\PSoC5/CapSense_CSD_CSHL.c **** *  Uses the CapSense_CSD_InitializeSensorBaseline function to loads the 
 232:.\Generated_Source\PSoC5/CapSense_CSD_CSHL.c **** *  CapSense_CSD_sensorBaseline[] array with an initial values by scanning 
 233:.\Generated_Source\PSoC5/CapSense_CSD_CSHL.c **** *  all sensors. The raw count values are copied into the baseline array for 
 234:.\Generated_Source\PSoC5/CapSense_CSD_CSHL.c **** *  all sensors. The raw data filters are initialized if enabled.
 235:.\Generated_Source\PSoC5/CapSense_CSD_CSHL.c **** *
 236:.\Generated_Source\PSoC5/CapSense_CSD_CSHL.c **** * Parameters:
 237:.\Generated_Source\PSoC5/CapSense_CSD_CSHL.c **** *  None
 238:.\Generated_Source\PSoC5/CapSense_CSD_CSHL.c **** *
 239:.\Generated_Source\PSoC5/CapSense_CSD_CSHL.c **** * Return:
 240:.\Generated_Source\PSoC5/CapSense_CSD_CSHL.c **** *  None
 241:.\Generated_Source\PSoC5/CapSense_CSD_CSHL.c **** *
 242:.\Generated_Source\PSoC5/CapSense_CSD_CSHL.c **** * Reentrant:
 243:.\Generated_Source\PSoC5/CapSense_CSD_CSHL.c **** *  No
 244:.\Generated_Source\PSoC5/CapSense_CSD_CSHL.c **** *
 245:.\Generated_Source\PSoC5/CapSense_CSD_CSHL.c **** *******************************************************************************/
 246:.\Generated_Source\PSoC5/CapSense_CSD_CSHL.c **** void CapSense_CSD_InitializeAllBaselines(void)
 247:.\Generated_Source\PSoC5/CapSense_CSD_CSHL.c ****                           
 248:.\Generated_Source\PSoC5/CapSense_CSD_CSHL.c **** {
 199              		.loc 1 248 0
 200              		.cfi_startproc
 201              		@ args = 0, pretend = 0, frame = 8
 202              		@ frame_needed = 1, uses_anonymous_args = 0
 203 0000 80B5     		push	{r7, lr}
 204              		.cfi_def_cfa_offset 8
 205              		.cfi_offset 7, -8
 206              		.cfi_offset 14, -4
 207 0002 82B0     		sub	sp, sp, #8
 208              		.cfi_def_cfa_offset 16
ARM GAS  C:\Users\user\AppData\Local\Temp\ccxtGrYL.s 			page 9


 209 0004 00AF     		add	r7, sp, #0
 210              		.cfi_def_cfa_register 7
 249:.\Generated_Source\PSoC5/CapSense_CSD_CSHL.c ****     uint8 i;
 250:.\Generated_Source\PSoC5/CapSense_CSD_CSHL.c ****     
 251:.\Generated_Source\PSoC5/CapSense_CSD_CSHL.c ****     /* The baseline initialize by sensor of sensor pair */
 252:.\Generated_Source\PSoC5/CapSense_CSD_CSHL.c ****     for(i = 0u; i < CapSense_CSD_TOTAL_SCANSLOT_COUNT; i++)
 211              		.loc 1 252 0
 212 0006 0023     		movs	r3, #0
 213 0008 FB71     		strb	r3, [r7, #7]
 214 000a 06E0     		b	.L7
 215              	.L8:
 253:.\Generated_Source\PSoC5/CapSense_CSD_CSHL.c ****     {
 254:.\Generated_Source\PSoC5/CapSense_CSD_CSHL.c ****         CapSense_CSD_InitializeSensorBaseline(i);
 216              		.loc 1 254 0 discriminator 3
 217 000c FB79     		ldrb	r3, [r7, #7]	@ zero_extendqisi2
 218 000e 1846     		mov	r0, r3
 219 0010 FFF7FEFF 		bl	CapSense_CSD_InitializeSensorBaseline
 252:.\Generated_Source\PSoC5/CapSense_CSD_CSHL.c ****     {
 220              		.loc 1 252 0 discriminator 3
 221 0014 FB79     		ldrb	r3, [r7, #7]	@ zero_extendqisi2
 222 0016 0133     		adds	r3, r3, #1
 223 0018 FB71     		strb	r3, [r7, #7]
 224              	.L7:
 252:.\Generated_Source\PSoC5/CapSense_CSD_CSHL.c ****     {
 225              		.loc 1 252 0 is_stmt 0 discriminator 1
 226 001a FB79     		ldrb	r3, [r7, #7]	@ zero_extendqisi2
 227 001c 002B     		cmp	r3, #0
 228 001e F5D0     		beq	.L8
 255:.\Generated_Source\PSoC5/CapSense_CSD_CSHL.c ****     }
 256:.\Generated_Source\PSoC5/CapSense_CSD_CSHL.c **** }
 229              		.loc 1 256 0 is_stmt 1
 230 0020 0837     		adds	r7, r7, #8
 231              		.cfi_def_cfa_offset 8
 232 0022 BD46     		mov	sp, r7
 233              		.cfi_def_cfa_register 13
 234              		@ sp needed
 235 0024 80BD     		pop	{r7, pc}
 236              		.cfi_endproc
 237              	.LFE2:
 238              		.size	CapSense_CSD_InitializeAllBaselines, .-CapSense_CSD_InitializeAllBaselines
 239 0026 00BF     		.section	.text.CapSense_CSD_InitializeEnabledBaselines,"ax",%progbits
 240              		.align	2
 241              		.global	CapSense_CSD_InitializeEnabledBaselines
 242              		.thumb
 243              		.thumb_func
 244              		.type	CapSense_CSD_InitializeEnabledBaselines, %function
 245              	CapSense_CSD_InitializeEnabledBaselines:
 246              	.LFB3:
 257:.\Generated_Source\PSoC5/CapSense_CSD_CSHL.c **** 
 258:.\Generated_Source\PSoC5/CapSense_CSD_CSHL.c **** 
 259:.\Generated_Source\PSoC5/CapSense_CSD_CSHL.c **** /*******************************************************************************
 260:.\Generated_Source\PSoC5/CapSense_CSD_CSHL.c **** * Function Name: CapSense_CSD_InitializeEnabledBaselines
 261:.\Generated_Source\PSoC5/CapSense_CSD_CSHL.c **** ********************************************************************************
 262:.\Generated_Source\PSoC5/CapSense_CSD_CSHL.c **** *
 263:.\Generated_Source\PSoC5/CapSense_CSD_CSHL.c **** * Summary:
 264:.\Generated_Source\PSoC5/CapSense_CSD_CSHL.c **** *  Scans all enabled widgets and the raw count values are copied into the 
 265:.\Generated_Source\PSoC5/CapSense_CSD_CSHL.c **** *  baseline array for all sensors enabled in scanning process. Baselines 
ARM GAS  C:\Users\user\AppData\Local\Temp\ccxtGrYL.s 			page 10


 266:.\Generated_Source\PSoC5/CapSense_CSD_CSHL.c **** *  initialize with zero values for sensors disabled from scanning process. 
 267:.\Generated_Source\PSoC5/CapSense_CSD_CSHL.c **** *  The raw data filters are initialized if enabled.
 268:.\Generated_Source\PSoC5/CapSense_CSD_CSHL.c **** *
 269:.\Generated_Source\PSoC5/CapSense_CSD_CSHL.c **** * Parameters:
 270:.\Generated_Source\PSoC5/CapSense_CSD_CSHL.c **** *  None
 271:.\Generated_Source\PSoC5/CapSense_CSD_CSHL.c **** *
 272:.\Generated_Source\PSoC5/CapSense_CSD_CSHL.c **** * Return:
 273:.\Generated_Source\PSoC5/CapSense_CSD_CSHL.c **** *  None
 274:.\Generated_Source\PSoC5/CapSense_CSD_CSHL.c **** *
 275:.\Generated_Source\PSoC5/CapSense_CSD_CSHL.c **** * Reentrant:
 276:.\Generated_Source\PSoC5/CapSense_CSD_CSHL.c **** *  No
 277:.\Generated_Source\PSoC5/CapSense_CSD_CSHL.c **** *
 278:.\Generated_Source\PSoC5/CapSense_CSD_CSHL.c **** *******************************************************************************/
 279:.\Generated_Source\PSoC5/CapSense_CSD_CSHL.c **** void CapSense_CSD_InitializeEnabledBaselines(void)
 280:.\Generated_Source\PSoC5/CapSense_CSD_CSHL.c ****                              
 281:.\Generated_Source\PSoC5/CapSense_CSD_CSHL.c **** {
 247              		.loc 1 281 0
 248              		.cfi_startproc
 249              		@ args = 0, pretend = 0, frame = 8
 250              		@ frame_needed = 1, uses_anonymous_args = 0
 251 0000 80B5     		push	{r7, lr}
 252              		.cfi_def_cfa_offset 8
 253              		.cfi_offset 7, -8
 254              		.cfi_offset 14, -4
 255 0002 82B0     		sub	sp, sp, #8
 256              		.cfi_def_cfa_offset 16
 257 0004 00AF     		add	r7, sp, #0
 258              		.cfi_def_cfa_register 7
 282:.\Generated_Source\PSoC5/CapSense_CSD_CSHL.c ****     uint8 i;
 283:.\Generated_Source\PSoC5/CapSense_CSD_CSHL.c ****     uint8 pos;
 284:.\Generated_Source\PSoC5/CapSense_CSD_CSHL.c ****     uint8 enMask;
 285:.\Generated_Source\PSoC5/CapSense_CSD_CSHL.c ****     
 286:.\Generated_Source\PSoC5/CapSense_CSD_CSHL.c ****     CapSense_CSD_ScanEnabledWidgets();
 259              		.loc 1 286 0
 260 0006 FFF7FEFF 		bl	CapSense_CSD_ScanEnabledWidgets
 287:.\Generated_Source\PSoC5/CapSense_CSD_CSHL.c ****     while(CapSense_CSD_IsBusy() != 0u)
 261              		.loc 1 287 0
 262 000a 00BF     		nop
 263              	.L10:
 264              		.loc 1 287 0 is_stmt 0 discriminator 1
 265 000c FFF7FEFF 		bl	CapSense_CSD_IsBusy
 266 0010 0346     		mov	r3, r0
 267 0012 002B     		cmp	r3, #0
 268 0014 FAD1     		bne	.L10
 288:.\Generated_Source\PSoC5/CapSense_CSD_CSHL.c ****     {
 289:.\Generated_Source\PSoC5/CapSense_CSD_CSHL.c ****         /* Wait while busy */
 290:.\Generated_Source\PSoC5/CapSense_CSD_CSHL.c ****     }
 291:.\Generated_Source\PSoC5/CapSense_CSD_CSHL.c ****     
 292:.\Generated_Source\PSoC5/CapSense_CSD_CSHL.c ****     for(i = 0u; i < CapSense_CSD_TOTAL_SENSOR_COUNT; i++)
 269              		.loc 1 292 0 is_stmt 1
 270 0016 0023     		movs	r3, #0
 271 0018 FB71     		strb	r3, [r7, #7]
 272 001a 1DE0     		b	.L11
 273              	.L13:
 293:.\Generated_Source\PSoC5/CapSense_CSD_CSHL.c ****     {
 294:.\Generated_Source\PSoC5/CapSense_CSD_CSHL.c ****         pos = (i >> 3u);
 274              		.loc 1 294 0
ARM GAS  C:\Users\user\AppData\Local\Temp\ccxtGrYL.s 			page 11


 275 001c FB79     		ldrb	r3, [r7, #7]	@ zero_extendqisi2
 276 001e DB08     		lsrs	r3, r3, #3
 277 0020 BB71     		strb	r3, [r7, #6]
 295:.\Generated_Source\PSoC5/CapSense_CSD_CSHL.c ****         enMask = 0x01u << (i & 0x07u);
 278              		.loc 1 295 0
 279 0022 FB79     		ldrb	r3, [r7, #7]	@ zero_extendqisi2
 280 0024 03F00703 		and	r3, r3, #7
 281 0028 0122     		movs	r2, #1
 282 002a 02FA03F3 		lsl	r3, r2, r3
 283 002e 7B71     		strb	r3, [r7, #5]
 296:.\Generated_Source\PSoC5/CapSense_CSD_CSHL.c ****         
 297:.\Generated_Source\PSoC5/CapSense_CSD_CSHL.c ****         /* Clear raw data if sensor is disabled from scanning process */
 298:.\Generated_Source\PSoC5/CapSense_CSD_CSHL.c ****         if((CapSense_CSD_sensorEnableMask[pos] & enMask) == 0u)
 284              		.loc 1 298 0
 285 0030 BB79     		ldrb	r3, [r7, #6]	@ zero_extendqisi2
 286 0032 0C4A     		ldr	r2, .L14
 287 0034 D25C     		ldrb	r2, [r2, r3]	@ zero_extendqisi2
 288 0036 7B79     		ldrb	r3, [r7, #5]
 289 0038 1340     		ands	r3, r3, r2
 290 003a DBB2     		uxtb	r3, r3
 291 003c 002B     		cmp	r3, #0
 292 003e 04D1     		bne	.L12
 299:.\Generated_Source\PSoC5/CapSense_CSD_CSHL.c ****         {
 300:.\Generated_Source\PSoC5/CapSense_CSD_CSHL.c ****             CapSense_CSD_sensorRaw[i] = 0u;
 293              		.loc 1 300 0
 294 0040 FB79     		ldrb	r3, [r7, #7]	@ zero_extendqisi2
 295 0042 094A     		ldr	r2, .L14+4
 296 0044 0021     		movs	r1, #0
 297 0046 22F81310 		strh	r1, [r2, r3, lsl #1]	@ movhi
 298              	.L12:
 301:.\Generated_Source\PSoC5/CapSense_CSD_CSHL.c ****         }
 302:.\Generated_Source\PSoC5/CapSense_CSD_CSHL.c ****         
 303:.\Generated_Source\PSoC5/CapSense_CSD_CSHL.c ****         /* Initialize baselines */
 304:.\Generated_Source\PSoC5/CapSense_CSD_CSHL.c ****         CapSense_CSD_BaseInit(i);
 299              		.loc 1 304 0 discriminator 2
 300 004a FB79     		ldrb	r3, [r7, #7]	@ zero_extendqisi2
 301 004c 1846     		mov	r0, r3
 302 004e FFF7FEFF 		bl	CapSense_CSD_BaseInit
 292:.\Generated_Source\PSoC5/CapSense_CSD_CSHL.c ****     {
 303              		.loc 1 292 0 discriminator 2
 304 0052 FB79     		ldrb	r3, [r7, #7]	@ zero_extendqisi2
 305 0054 0133     		adds	r3, r3, #1
 306 0056 FB71     		strb	r3, [r7, #7]
 307              	.L11:
 292:.\Generated_Source\PSoC5/CapSense_CSD_CSHL.c ****     {
 308              		.loc 1 292 0 is_stmt 0 discriminator 1
 309 0058 FB79     		ldrb	r3, [r7, #7]	@ zero_extendqisi2
 310 005a 002B     		cmp	r3, #0
 311 005c DED0     		beq	.L13
 305:.\Generated_Source\PSoC5/CapSense_CSD_CSHL.c ****     }
 306:.\Generated_Source\PSoC5/CapSense_CSD_CSHL.c **** }  
 312              		.loc 1 306 0 is_stmt 1
 313 005e 0837     		adds	r7, r7, #8
 314              		.cfi_def_cfa_offset 8
 315 0060 BD46     		mov	sp, r7
 316              		.cfi_def_cfa_register 13
 317              		@ sp needed
ARM GAS  C:\Users\user\AppData\Local\Temp\ccxtGrYL.s 			page 12


 318 0062 80BD     		pop	{r7, pc}
 319              	.L15:
 320              		.align	2
 321              	.L14:
 322 0064 00000000 		.word	CapSense_CSD_sensorEnableMask
 323 0068 00000000 		.word	CapSense_CSD_sensorRaw
 324              		.cfi_endproc
 325              	.LFE3:
 326              		.size	CapSense_CSD_InitializeEnabledBaselines, .-CapSense_CSD_InitializeEnabledBaselines
 327              		.section	.text.CapSense_CSD_UpdateSensorBaseline,"ax",%progbits
 328              		.align	2
 329              		.global	CapSense_CSD_UpdateSensorBaseline
 330              		.thumb
 331              		.thumb_func
 332              		.type	CapSense_CSD_UpdateSensorBaseline, %function
 333              	CapSense_CSD_UpdateSensorBaseline:
 334              	.LFB4:
 307:.\Generated_Source\PSoC5/CapSense_CSD_CSHL.c **** 
 308:.\Generated_Source\PSoC5/CapSense_CSD_CSHL.c **** 
 309:.\Generated_Source\PSoC5/CapSense_CSD_CSHL.c **** /*******************************************************************************
 310:.\Generated_Source\PSoC5/CapSense_CSD_CSHL.c **** * Function Name: CapSense_CSD_UpdateSensorBaseline
 311:.\Generated_Source\PSoC5/CapSense_CSD_CSHL.c **** ********************************************************************************
 312:.\Generated_Source\PSoC5/CapSense_CSD_CSHL.c **** *
 313:.\Generated_Source\PSoC5/CapSense_CSD_CSHL.c **** * Summary:
 314:.\Generated_Source\PSoC5/CapSense_CSD_CSHL.c **** *  Updates the CapSense_CSD_sensorBaseline[sensor] array element using the 
 315:.\Generated_Source\PSoC5/CapSense_CSD_CSHL.c **** *  LP filter with k = 256. The signal calculates the difference of count by 
 316:.\Generated_Source\PSoC5/CapSense_CSD_CSHL.c **** *  subtracting the previous baseline from the current raw count value and stores
 317:.\Generated_Source\PSoC5/CapSense_CSD_CSHL.c **** *  it in CapSense_CSD_SensorSignal[sensor]. 
 318:.\Generated_Source\PSoC5/CapSense_CSD_CSHL.c **** *  If auto reset option is enabled the baseline updated regards noise threshold. 
 319:.\Generated_Source\PSoC5/CapSense_CSD_CSHL.c **** *  If auto reset option is disabled the baseline stops updating if signal is 
 320:.\Generated_Source\PSoC5/CapSense_CSD_CSHL.c **** *  greater that zero and baseline loads with raw count value if signal is less 
 321:.\Generated_Source\PSoC5/CapSense_CSD_CSHL.c **** *  that noise threshold.
 322:.\Generated_Source\PSoC5/CapSense_CSD_CSHL.c **** *  Raw data filters are applied to the values if enabled before baseline 
 323:.\Generated_Source\PSoC5/CapSense_CSD_CSHL.c **** *  calculation.
 324:.\Generated_Source\PSoC5/CapSense_CSD_CSHL.c **** *
 325:.\Generated_Source\PSoC5/CapSense_CSD_CSHL.c **** * Parameters:
 326:.\Generated_Source\PSoC5/CapSense_CSD_CSHL.c **** *  sensor:  Sensor number.
 327:.\Generated_Source\PSoC5/CapSense_CSD_CSHL.c **** *
 328:.\Generated_Source\PSoC5/CapSense_CSD_CSHL.c **** * Return:
 329:.\Generated_Source\PSoC5/CapSense_CSD_CSHL.c **** *  None
 330:.\Generated_Source\PSoC5/CapSense_CSD_CSHL.c **** *
 331:.\Generated_Source\PSoC5/CapSense_CSD_CSHL.c **** * Global Variables:
 332:.\Generated_Source\PSoC5/CapSense_CSD_CSHL.c **** *  CapSense_CSD_sensorBaseline[]    - used to store baseline value.
 333:.\Generated_Source\PSoC5/CapSense_CSD_CSHL.c **** *  CapSense_CSD_sensorBaselineLow[] - used to store fraction byte of 
 334:.\Generated_Source\PSoC5/CapSense_CSD_CSHL.c **** *  baseline value.
 335:.\Generated_Source\PSoC5/CapSense_CSD_CSHL.c **** *  CapSense_CSD_sensorSignal[]      - used to store diffence between 
 336:.\Generated_Source\PSoC5/CapSense_CSD_CSHL.c **** *  current value of raw data and previous value of baseline.
 337:.\Generated_Source\PSoC5/CapSense_CSD_CSHL.c **** *  CapSense_CSD_rawFilterData1[]    - used to store previous sample of 
 338:.\Generated_Source\PSoC5/CapSense_CSD_CSHL.c **** *  any enabled raw data filter.
 339:.\Generated_Source\PSoC5/CapSense_CSD_CSHL.c **** *  CapSense_CSD_rawFilterData2[]    - used to store before previous sample
 340:.\Generated_Source\PSoC5/CapSense_CSD_CSHL.c **** *  of enabled raw data filter. Only required for median or average filters.
 341:.\Generated_Source\PSoC5/CapSense_CSD_CSHL.c **** *
 342:.\Generated_Source\PSoC5/CapSense_CSD_CSHL.c **** * Reentrant:
 343:.\Generated_Source\PSoC5/CapSense_CSD_CSHL.c **** *  No
 344:.\Generated_Source\PSoC5/CapSense_CSD_CSHL.c **** *
 345:.\Generated_Source\PSoC5/CapSense_CSD_CSHL.c **** *******************************************************************************/
 346:.\Generated_Source\PSoC5/CapSense_CSD_CSHL.c ****  void CapSense_CSD_UpdateSensorBaseline(uint8 sensor)
ARM GAS  C:\Users\user\AppData\Local\Temp\ccxtGrYL.s 			page 13


 347:.\Generated_Source\PSoC5/CapSense_CSD_CSHL.c ****                                  
 348:.\Generated_Source\PSoC5/CapSense_CSD_CSHL.c **** {
 335              		.loc 1 348 0
 336              		.cfi_startproc
 337              		@ args = 0, pretend = 0, frame = 24
 338              		@ frame_needed = 1, uses_anonymous_args = 0
 339 0000 80B5     		push	{r7, lr}
 340              		.cfi_def_cfa_offset 8
 341              		.cfi_offset 7, -8
 342              		.cfi_offset 14, -4
 343 0002 86B0     		sub	sp, sp, #24
 344              		.cfi_def_cfa_offset 32
 345 0004 00AF     		add	r7, sp, #0
 346              		.cfi_def_cfa_register 7
 347 0006 0346     		mov	r3, r0
 348 0008 FB71     		strb	r3, [r7, #7]
 349:.\Generated_Source\PSoC5/CapSense_CSD_CSHL.c ****     uint32 calc;
 350:.\Generated_Source\PSoC5/CapSense_CSD_CSHL.c ****     uint16 tempRaw;
 351:.\Generated_Source\PSoC5/CapSense_CSD_CSHL.c ****     uint16 filteredRawData;
 352:.\Generated_Source\PSoC5/CapSense_CSD_CSHL.c ****     uint8 widget = CapSense_CSD_widgetNumber[sensor];
 349              		.loc 1 352 0
 350 000a FB79     		ldrb	r3, [r7, #7]	@ zero_extendqisi2
 351 000c 454A     		ldr	r2, .L26
 352 000e D35C     		ldrb	r3, [r2, r3]
 353 0010 7B75     		strb	r3, [r7, #21]
 353:.\Generated_Source\PSoC5/CapSense_CSD_CSHL.c ****     uint16 noiseThreshold = CapSense_CSD_noiseThreshold[widget];
 354              		.loc 1 353 0
 355 0012 7B7D     		ldrb	r3, [r7, #21]	@ zero_extendqisi2
 356 0014 444A     		ldr	r2, .L26+4
 357 0016 32F81330 		ldrh	r3, [r2, r3, lsl #1]	@ movhi
 358 001a 7B82     		strh	r3, [r7, #18]	@ movhi
 354:.\Generated_Source\PSoC5/CapSense_CSD_CSHL.c ****     
 355:.\Generated_Source\PSoC5/CapSense_CSD_CSHL.c ****     #if (CapSense_CSD_TOTAL_GENERICS_COUNT)
 356:.\Generated_Source\PSoC5/CapSense_CSD_CSHL.c ****         /* Exclude generic widget */
 357:.\Generated_Source\PSoC5/CapSense_CSD_CSHL.c ****         if(widget < CapSense_CSD_END_OF_WIDGETS_INDEX)
 358:.\Generated_Source\PSoC5/CapSense_CSD_CSHL.c ****         {
 359:.\Generated_Source\PSoC5/CapSense_CSD_CSHL.c ****     #endif  /* CapSense_CSD_TOTAL_GENERICS_COUNT */
 360:.\Generated_Source\PSoC5/CapSense_CSD_CSHL.c ****     
 361:.\Generated_Source\PSoC5/CapSense_CSD_CSHL.c ****     filteredRawData = CapSense_CSD_sensorRaw[sensor];
 359              		.loc 1 361 0
 360 001c FB79     		ldrb	r3, [r7, #7]	@ zero_extendqisi2
 361 001e 434A     		ldr	r2, .L26+8
 362 0020 32F81330 		ldrh	r3, [r2, r3, lsl #1]	@ movhi
 363 0024 3B82     		strh	r3, [r7, #16]	@ movhi
 362:.\Generated_Source\PSoC5/CapSense_CSD_CSHL.c ****     
 363:.\Generated_Source\PSoC5/CapSense_CSD_CSHL.c ****     #if (CapSense_CSD_RAW_FILTER_MASK & CapSense_CSD_MEDIAN_FILTER)
 364:.\Generated_Source\PSoC5/CapSense_CSD_CSHL.c ****         tempRaw = filteredRawData;
 365:.\Generated_Source\PSoC5/CapSense_CSD_CSHL.c ****         filteredRawData = CapSense_CSD_MedianFilter(filteredRawData, CapSense_CSD_rawFilterData1[se
 366:.\Generated_Source\PSoC5/CapSense_CSD_CSHL.c ****                                                         CapSense_CSD_rawFilterData2[sensor]);
 367:.\Generated_Source\PSoC5/CapSense_CSD_CSHL.c ****         CapSense_CSD_rawFilterData2[sensor] = CapSense_CSD_rawFilterData1[sensor];
 368:.\Generated_Source\PSoC5/CapSense_CSD_CSHL.c ****         CapSense_CSD_rawFilterData1[sensor] = tempRaw;
 369:.\Generated_Source\PSoC5/CapSense_CSD_CSHL.c ****         
 370:.\Generated_Source\PSoC5/CapSense_CSD_CSHL.c ****     #elif (CapSense_CSD_RAW_FILTER_MASK & CapSense_CSD_AVERAGING_FILTER)
 371:.\Generated_Source\PSoC5/CapSense_CSD_CSHL.c ****         tempRaw = filteredRawData;
 372:.\Generated_Source\PSoC5/CapSense_CSD_CSHL.c ****         filteredRawData = CapSense_CSD_AveragingFilter(filteredRawData, CapSense_CSD_rawFilterData1
 373:.\Generated_Source\PSoC5/CapSense_CSD_CSHL.c ****                                                            CapSense_CSD_rawFilterData2[sensor]);
 374:.\Generated_Source\PSoC5/CapSense_CSD_CSHL.c ****         CapSense_CSD_rawFilterData2[sensor] = CapSense_CSD_rawFilterData1[sensor];
ARM GAS  C:\Users\user\AppData\Local\Temp\ccxtGrYL.s 			page 14


 375:.\Generated_Source\PSoC5/CapSense_CSD_CSHL.c ****         CapSense_CSD_rawFilterData1[sensor] = tempRaw;
 376:.\Generated_Source\PSoC5/CapSense_CSD_CSHL.c ****         
 377:.\Generated_Source\PSoC5/CapSense_CSD_CSHL.c ****     #elif (CapSense_CSD_RAW_FILTER_MASK & CapSense_CSD_IIR2_FILTER)
 378:.\Generated_Source\PSoC5/CapSense_CSD_CSHL.c ****         filteredRawData = CapSense_CSD_IIR2Filter(filteredRawData, CapSense_CSD_rawFilterData1[sens
 379:.\Generated_Source\PSoC5/CapSense_CSD_CSHL.c ****         CapSense_CSD_rawFilterData1[sensor] = filteredRawData;
 380:.\Generated_Source\PSoC5/CapSense_CSD_CSHL.c ****         
 381:.\Generated_Source\PSoC5/CapSense_CSD_CSHL.c ****     #elif (CapSense_CSD_RAW_FILTER_MASK & CapSense_CSD_IIR4_FILTER)
 382:.\Generated_Source\PSoC5/CapSense_CSD_CSHL.c ****         filteredRawData = CapSense_CSD_IIR4Filter(filteredRawData, CapSense_CSD_rawFilterData1[sens
 383:.\Generated_Source\PSoC5/CapSense_CSD_CSHL.c ****         CapSense_CSD_rawFilterData1[sensor] = filteredRawData;
 384:.\Generated_Source\PSoC5/CapSense_CSD_CSHL.c ****             
 385:.\Generated_Source\PSoC5/CapSense_CSD_CSHL.c ****     #elif (CapSense_CSD_RAW_FILTER_MASK & CapSense_CSD_JITTER_FILTER)
 386:.\Generated_Source\PSoC5/CapSense_CSD_CSHL.c ****         filteredRawData = CapSense_CSD_JitterFilter(filteredRawData, CapSense_CSD_rawFilterData1[se
 387:.\Generated_Source\PSoC5/CapSense_CSD_CSHL.c ****         CapSense_CSD_rawFilterData1[sensor] = filteredRawData;
 388:.\Generated_Source\PSoC5/CapSense_CSD_CSHL.c ****         
 389:.\Generated_Source\PSoC5/CapSense_CSD_CSHL.c ****     #elif (CapSense_CSD_RAW_FILTER_MASK & CapSense_CSD_IIR8_FILTER)
 390:.\Generated_Source\PSoC5/CapSense_CSD_CSHL.c ****         filteredRawData = CapSense_CSD_IIR8Filter(filteredRawData, CapSense_CSD_rawFilterData1[sens
 391:.\Generated_Source\PSoC5/CapSense_CSD_CSHL.c ****         CapSense_CSD_rawFilterData1[sensor] = filteredRawData;
 392:.\Generated_Source\PSoC5/CapSense_CSD_CSHL.c ****         
 393:.\Generated_Source\PSoC5/CapSense_CSD_CSHL.c ****     #elif (CapSense_CSD_RAW_FILTER_MASK & CapSense_CSD_IIR16_FILTER)
 394:.\Generated_Source\PSoC5/CapSense_CSD_CSHL.c ****         filteredRawData = CapSense_CSD_IIR16Filter(filteredRawData, CapSense_CSD_rawFilterData1[sen
 395:.\Generated_Source\PSoC5/CapSense_CSD_CSHL.c ****         CapSense_CSD_rawFilterData1[sensor] = filteredRawData;
 396:.\Generated_Source\PSoC5/CapSense_CSD_CSHL.c ****         
 397:.\Generated_Source\PSoC5/CapSense_CSD_CSHL.c ****     #else
 398:.\Generated_Source\PSoC5/CapSense_CSD_CSHL.c ****         /* No Raw filters */
 399:.\Generated_Source\PSoC5/CapSense_CSD_CSHL.c ****     #endif  /* (CapSense_CSD_RAW_FILTER_MASK & CapSense_CSD_MEDIAN_FILTER) */
 400:.\Generated_Source\PSoC5/CapSense_CSD_CSHL.c ****     
 401:.\Generated_Source\PSoC5/CapSense_CSD_CSHL.c ****     #if (CapSense_CSD_TUNING_METHOD == CapSense_CSD_AUTO_TUNING)
 402:.\Generated_Source\PSoC5/CapSense_CSD_CSHL.c ****         CapSense_CSD_CalculateThresholds(sensor);
 403:.\Generated_Source\PSoC5/CapSense_CSD_CSHL.c ****     #endif /* (CapSense_CSD_TUNING_METHOD == CapSense_CSD_AUTO_TUNING) */
 404:.\Generated_Source\PSoC5/CapSense_CSD_CSHL.c **** 
 405:.\Generated_Source\PSoC5/CapSense_CSD_CSHL.c **** 
 406:.\Generated_Source\PSoC5/CapSense_CSD_CSHL.c ****     /* Baseline calculation */
 407:.\Generated_Source\PSoC5/CapSense_CSD_CSHL.c ****     /* Calculate difference RawData[cur] - Baseline[prev] */
 408:.\Generated_Source\PSoC5/CapSense_CSD_CSHL.c ****     if(filteredRawData >= CapSense_CSD_sensorBaseline[sensor])
 364              		.loc 1 408 0
 365 0026 FB79     		ldrb	r3, [r7, #7]	@ zero_extendqisi2
 366 0028 414A     		ldr	r2, .L26+12
 367 002a 32F81330 		ldrh	r3, [r2, r3, lsl #1]
 368 002e 3A8A     		ldrh	r2, [r7, #16]
 369 0030 9A42     		cmp	r2, r3
 370 0032 09D3     		bcc	.L17
 409:.\Generated_Source\PSoC5/CapSense_CSD_CSHL.c ****     {
 410:.\Generated_Source\PSoC5/CapSense_CSD_CSHL.c ****         tempRaw = filteredRawData - CapSense_CSD_sensorBaseline[sensor];
 371              		.loc 1 410 0
 372 0034 FB79     		ldrb	r3, [r7, #7]	@ zero_extendqisi2
 373 0036 3E4A     		ldr	r2, .L26+12
 374 0038 32F81330 		ldrh	r3, [r2, r3, lsl #1]
 375 003c 3A8A     		ldrh	r2, [r7, #16]	@ movhi
 376 003e D31A     		subs	r3, r2, r3
 377 0040 FB82     		strh	r3, [r7, #22]	@ movhi
 411:.\Generated_Source\PSoC5/CapSense_CSD_CSHL.c ****         widget = 1u;    /* Positive difference - Calculate the Signal */
 378              		.loc 1 411 0
 379 0042 0123     		movs	r3, #1
 380 0044 7B75     		strb	r3, [r7, #21]
 381 0046 08E0     		b	.L18
 382              	.L17:
 412:.\Generated_Source\PSoC5/CapSense_CSD_CSHL.c ****     }
ARM GAS  C:\Users\user\AppData\Local\Temp\ccxtGrYL.s 			page 15


 413:.\Generated_Source\PSoC5/CapSense_CSD_CSHL.c ****     else
 414:.\Generated_Source\PSoC5/CapSense_CSD_CSHL.c ****     {
 415:.\Generated_Source\PSoC5/CapSense_CSD_CSHL.c ****         tempRaw = CapSense_CSD_sensorBaseline[sensor] - filteredRawData;
 383              		.loc 1 415 0
 384 0048 FB79     		ldrb	r3, [r7, #7]	@ zero_extendqisi2
 385 004a 394A     		ldr	r2, .L26+12
 386 004c 32F81320 		ldrh	r2, [r2, r3, lsl #1]
 387 0050 3B8A     		ldrh	r3, [r7, #16]	@ movhi
 388 0052 D31A     		subs	r3, r2, r3
 389 0054 FB82     		strh	r3, [r7, #22]	@ movhi
 416:.\Generated_Source\PSoC5/CapSense_CSD_CSHL.c ****         widget = 0u;    /* Negative difference - Do NOT calculate the Signal */
 390              		.loc 1 416 0
 391 0056 0023     		movs	r3, #0
 392 0058 7B75     		strb	r3, [r7, #21]
 393              	.L18:
 417:.\Generated_Source\PSoC5/CapSense_CSD_CSHL.c ****     }
 418:.\Generated_Source\PSoC5/CapSense_CSD_CSHL.c **** 
 419:.\Generated_Source\PSoC5/CapSense_CSD_CSHL.c ****     if((widget == 0u) && (tempRaw > (uint16) CapSense_CSD_NEGATIVE_NOISE_THRESHOLD))
 394              		.loc 1 419 0
 395 005a 7B7D     		ldrb	r3, [r7, #21]	@ zero_extendqisi2
 396 005c 002B     		cmp	r3, #0
 397 005e 18D1     		bne	.L19
 398              		.loc 1 419 0 is_stmt 0 discriminator 1
 399 0060 FB8A     		ldrh	r3, [r7, #22]
 400 0062 142B     		cmp	r3, #20
 401 0064 15D9     		bls	.L19
 420:.\Generated_Source\PSoC5/CapSense_CSD_CSHL.c ****     {
 421:.\Generated_Source\PSoC5/CapSense_CSD_CSHL.c ****         if(CapSense_CSD_lowBaselineResetCnt[sensor] >= CapSense_CSD_LOW_BASELINE_RESET)
 402              		.loc 1 421 0 is_stmt 1
 403 0066 FB79     		ldrb	r3, [r7, #7]	@ zero_extendqisi2
 404 0068 324A     		ldr	r2, .L26+16
 405 006a D35C     		ldrb	r3, [r2, r3]	@ zero_extendqisi2
 406 006c 042B     		cmp	r3, #4
 407 006e 08D9     		bls	.L20
 422:.\Generated_Source\PSoC5/CapSense_CSD_CSHL.c ****         {
 423:.\Generated_Source\PSoC5/CapSense_CSD_CSHL.c ****             CapSense_CSD_BaseInit(sensor);
 408              		.loc 1 423 0
 409 0070 FB79     		ldrb	r3, [r7, #7]	@ zero_extendqisi2
 410 0072 1846     		mov	r0, r3
 411 0074 FFF7FEFF 		bl	CapSense_CSD_BaseInit
 424:.\Generated_Source\PSoC5/CapSense_CSD_CSHL.c ****             CapSense_CSD_lowBaselineResetCnt[sensor] = 0u;
 412              		.loc 1 424 0
 413 0078 FB79     		ldrb	r3, [r7, #7]	@ zero_extendqisi2
 414 007a 2E4A     		ldr	r2, .L26+16
 415 007c 0021     		movs	r1, #0
 416 007e D154     		strb	r1, [r2, r3]
 421:.\Generated_Source\PSoC5/CapSense_CSD_CSHL.c ****         {
 417              		.loc 1 421 0
 418 0080 3AE0     		b	.L22
 419              	.L20:
 425:.\Generated_Source\PSoC5/CapSense_CSD_CSHL.c ****         }
 426:.\Generated_Source\PSoC5/CapSense_CSD_CSHL.c ****         else
 427:.\Generated_Source\PSoC5/CapSense_CSD_CSHL.c ****         {
 428:.\Generated_Source\PSoC5/CapSense_CSD_CSHL.c ****             CapSense_CSD_lowBaselineResetCnt[sensor]++;
 420              		.loc 1 428 0
 421 0082 FB79     		ldrb	r3, [r7, #7]	@ zero_extendqisi2
 422 0084 2B4A     		ldr	r2, .L26+16
ARM GAS  C:\Users\user\AppData\Local\Temp\ccxtGrYL.s 			page 16


 423 0086 D25C     		ldrb	r2, [r2, r3]	@ zero_extendqisi2
 424 0088 0132     		adds	r2, r2, #1
 425 008a D1B2     		uxtb	r1, r2
 426 008c 294A     		ldr	r2, .L26+16
 427 008e D154     		strb	r1, [r2, r3]
 421:.\Generated_Source\PSoC5/CapSense_CSD_CSHL.c ****         {
 428              		.loc 1 421 0
 429 0090 32E0     		b	.L22
 430              	.L19:
 429:.\Generated_Source\PSoC5/CapSense_CSD_CSHL.c ****         }
 430:.\Generated_Source\PSoC5/CapSense_CSD_CSHL.c ****     }
 431:.\Generated_Source\PSoC5/CapSense_CSD_CSHL.c ****     else
 432:.\Generated_Source\PSoC5/CapSense_CSD_CSHL.c ****     {
 433:.\Generated_Source\PSoC5/CapSense_CSD_CSHL.c ****         #if (CapSense_CSD_AUTO_RESET == CapSense_CSD_AUTO_RESET_DISABLE)
 434:.\Generated_Source\PSoC5/CapSense_CSD_CSHL.c ****             /* Update Baseline if lower that noiseThreshold */
 435:.\Generated_Source\PSoC5/CapSense_CSD_CSHL.c ****             if ( (tempRaw <= (uint16) noiseThreshold) || 
 431              		.loc 1 435 0
 432 0092 FA8A     		ldrh	r2, [r7, #22]
 433 0094 7B8A     		ldrh	r3, [r7, #18]
 434 0096 9A42     		cmp	r2, r3
 435 0098 05D9     		bls	.L23
 436              		.loc 1 435 0 is_stmt 0 discriminator 1
 437 009a FB8A     		ldrh	r3, [r7, #22]
 438 009c 132B     		cmp	r3, #19
 439 009e 2BD8     		bhi	.L22
 436:.\Generated_Source\PSoC5/CapSense_CSD_CSHL.c ****                  ((tempRaw < (uint16) CapSense_CSD_NEGATIVE_NOISE_THRESHOLD)
 437:.\Generated_Source\PSoC5/CapSense_CSD_CSHL.c ****                    && (widget == 0u)))
 440              		.loc 1 437 0 is_stmt 1
 441 00a0 7B7D     		ldrb	r3, [r7, #21]	@ zero_extendqisi2
 442 00a2 002B     		cmp	r3, #0
 443 00a4 28D1     		bne	.L22
 444              	.L23:
 438:.\Generated_Source\PSoC5/CapSense_CSD_CSHL.c ****             {
 439:.\Generated_Source\PSoC5/CapSense_CSD_CSHL.c ****         #endif /* (CapSense_CSD_AUTO_RESET == CapSense_CSD_AUTO_RESET_DISABLE) */
 440:.\Generated_Source\PSoC5/CapSense_CSD_CSHL.c ****                 /* Make full Baseline 23 bits */
 441:.\Generated_Source\PSoC5/CapSense_CSD_CSHL.c ****                 calc = (uint32) CapSense_CSD_sensorBaseline[sensor] << 8u;
 445              		.loc 1 441 0
 446 00a6 FB79     		ldrb	r3, [r7, #7]	@ zero_extendqisi2
 447 00a8 214A     		ldr	r2, .L26+12
 448 00aa 32F81330 		ldrh	r3, [r2, r3, lsl #1]
 449 00ae 1B02     		lsls	r3, r3, #8
 450 00b0 FB60     		str	r3, [r7, #12]
 442:.\Generated_Source\PSoC5/CapSense_CSD_CSHL.c ****                 calc |= (uint32) CapSense_CSD_sensorBaselineLow[sensor];
 451              		.loc 1 442 0
 452 00b2 FB79     		ldrb	r3, [r7, #7]	@ zero_extendqisi2
 453 00b4 204A     		ldr	r2, .L26+20
 454 00b6 D35C     		ldrb	r3, [r2, r3]	@ zero_extendqisi2
 455 00b8 1A46     		mov	r2, r3
 456 00ba FB68     		ldr	r3, [r7, #12]
 457 00bc 1343     		orrs	r3, r3, r2
 458 00be FB60     		str	r3, [r7, #12]
 443:.\Generated_Source\PSoC5/CapSense_CSD_CSHL.c **** 
 444:.\Generated_Source\PSoC5/CapSense_CSD_CSHL.c ****                 /* Add Raw Data to Baseline */
 445:.\Generated_Source\PSoC5/CapSense_CSD_CSHL.c ****                 calc += filteredRawData;
 459              		.loc 1 445 0
 460 00c0 3B8A     		ldrh	r3, [r7, #16]
 461 00c2 FA68     		ldr	r2, [r7, #12]
ARM GAS  C:\Users\user\AppData\Local\Temp\ccxtGrYL.s 			page 17


 462 00c4 1344     		add	r3, r3, r2
 463 00c6 FB60     		str	r3, [r7, #12]
 446:.\Generated_Source\PSoC5/CapSense_CSD_CSHL.c **** 
 447:.\Generated_Source\PSoC5/CapSense_CSD_CSHL.c ****                 /* Sub the high Baseline */
 448:.\Generated_Source\PSoC5/CapSense_CSD_CSHL.c ****                 calc -= CapSense_CSD_sensorBaseline[sensor];
 464              		.loc 1 448 0
 465 00c8 FB79     		ldrb	r3, [r7, #7]	@ zero_extendqisi2
 466 00ca 194A     		ldr	r2, .L26+12
 467 00cc 32F81330 		ldrh	r3, [r2, r3, lsl #1]
 468 00d0 1A46     		mov	r2, r3
 469 00d2 FB68     		ldr	r3, [r7, #12]
 470 00d4 9B1A     		subs	r3, r3, r2
 471 00d6 FB60     		str	r3, [r7, #12]
 449:.\Generated_Source\PSoC5/CapSense_CSD_CSHL.c **** 
 450:.\Generated_Source\PSoC5/CapSense_CSD_CSHL.c ****                 /* Put Baseline and BaselineLow */
 451:.\Generated_Source\PSoC5/CapSense_CSD_CSHL.c ****                 CapSense_CSD_sensorBaseline[sensor] = ((uint16) (calc >> 8u));
 472              		.loc 1 451 0
 473 00d8 FB79     		ldrb	r3, [r7, #7]	@ zero_extendqisi2
 474 00da FA68     		ldr	r2, [r7, #12]
 475 00dc 120A     		lsrs	r2, r2, #8
 476 00de 91B2     		uxth	r1, r2
 477 00e0 134A     		ldr	r2, .L26+12
 478 00e2 22F81310 		strh	r1, [r2, r3, lsl #1]	@ movhi
 452:.\Generated_Source\PSoC5/CapSense_CSD_CSHL.c ****                 CapSense_CSD_sensorBaselineLow[sensor] = ((uint8) calc);
 479              		.loc 1 452 0
 480 00e6 FB79     		ldrb	r3, [r7, #7]	@ zero_extendqisi2
 481 00e8 FA68     		ldr	r2, [r7, #12]
 482 00ea D1B2     		uxtb	r1, r2
 483 00ec 124A     		ldr	r2, .L26+20
 484 00ee D154     		strb	r1, [r2, r3]
 453:.\Generated_Source\PSoC5/CapSense_CSD_CSHL.c **** 
 454:.\Generated_Source\PSoC5/CapSense_CSD_CSHL.c ****                 CapSense_CSD_lowBaselineResetCnt[sensor] = 0u;
 485              		.loc 1 454 0
 486 00f0 FB79     		ldrb	r3, [r7, #7]	@ zero_extendqisi2
 487 00f2 104A     		ldr	r2, .L26+16
 488 00f4 0021     		movs	r1, #0
 489 00f6 D154     		strb	r1, [r2, r3]
 490              	.L22:
 455:.\Generated_Source\PSoC5/CapSense_CSD_CSHL.c ****         #if (CapSense_CSD_AUTO_RESET == CapSense_CSD_AUTO_RESET_DISABLE)
 456:.\Generated_Source\PSoC5/CapSense_CSD_CSHL.c ****             }
 457:.\Generated_Source\PSoC5/CapSense_CSD_CSHL.c ****         #endif /* (CapSense_CSD_AUTO_RESET == CapSense_CSD_AUTO_RESET_DISABLE) */
 458:.\Generated_Source\PSoC5/CapSense_CSD_CSHL.c ****     }
 459:.\Generated_Source\PSoC5/CapSense_CSD_CSHL.c **** 
 460:.\Generated_Source\PSoC5/CapSense_CSD_CSHL.c ****     /* Calculate Signal if possitive difference > noiseThreshold */
 461:.\Generated_Source\PSoC5/CapSense_CSD_CSHL.c ****     if((tempRaw > (uint16) noiseThreshold) && (widget != 0u))
 491              		.loc 1 461 0
 492 00f8 FA8A     		ldrh	r2, [r7, #22]
 493 00fa 7B8A     		ldrh	r3, [r7, #18]
 494 00fc 9A42     		cmp	r2, r3
 495 00fe 08D9     		bls	.L24
 496              		.loc 1 461 0 is_stmt 0 discriminator 1
 497 0100 7B7D     		ldrb	r3, [r7, #21]	@ zero_extendqisi2
 498 0102 002B     		cmp	r3, #0
 499 0104 05D0     		beq	.L24
 462:.\Generated_Source\PSoC5/CapSense_CSD_CSHL.c ****     {
 463:.\Generated_Source\PSoC5/CapSense_CSD_CSHL.c ****         #if (CapSense_CSD_SIGNAL_SIZE == CapSense_CSD_SIGNAL_SIZE_UINT8)
 464:.\Generated_Source\PSoC5/CapSense_CSD_CSHL.c ****             /* Over flow defence for uint8 */
ARM GAS  C:\Users\user\AppData\Local\Temp\ccxtGrYL.s 			page 18


 465:.\Generated_Source\PSoC5/CapSense_CSD_CSHL.c ****             if (tempRaw > 0xFFu)
 466:.\Generated_Source\PSoC5/CapSense_CSD_CSHL.c ****             {
 467:.\Generated_Source\PSoC5/CapSense_CSD_CSHL.c ****                 CapSense_CSD_sensorSignal[sensor] = 0xFFu;
 468:.\Generated_Source\PSoC5/CapSense_CSD_CSHL.c ****             }    
 469:.\Generated_Source\PSoC5/CapSense_CSD_CSHL.c ****             else 
 470:.\Generated_Source\PSoC5/CapSense_CSD_CSHL.c ****             {
 471:.\Generated_Source\PSoC5/CapSense_CSD_CSHL.c ****                 CapSense_CSD_sensorSignal[sensor] = ((uint8) tempRaw);
 472:.\Generated_Source\PSoC5/CapSense_CSD_CSHL.c ****             }
 473:.\Generated_Source\PSoC5/CapSense_CSD_CSHL.c ****         #else
 474:.\Generated_Source\PSoC5/CapSense_CSD_CSHL.c ****             CapSense_CSD_sensorSignal[sensor] = ((uint16) tempRaw);
 500              		.loc 1 474 0 is_stmt 1
 501 0106 FB79     		ldrb	r3, [r7, #7]	@ zero_extendqisi2
 502 0108 0C49     		ldr	r1, .L26+24
 503 010a FA8A     		ldrh	r2, [r7, #22]	@ movhi
 504 010c 21F81320 		strh	r2, [r1, r3, lsl #1]	@ movhi
 505 0110 04E0     		b	.L16
 506              	.L24:
 475:.\Generated_Source\PSoC5/CapSense_CSD_CSHL.c ****         #endif  /* (CapSense_CSD_SIGNAL_SIZE == CapSense_CSD_SIGNAL_SIZE_UINT8) */
 476:.\Generated_Source\PSoC5/CapSense_CSD_CSHL.c ****     }
 477:.\Generated_Source\PSoC5/CapSense_CSD_CSHL.c ****     else
 478:.\Generated_Source\PSoC5/CapSense_CSD_CSHL.c ****     {
 479:.\Generated_Source\PSoC5/CapSense_CSD_CSHL.c ****         /* Signal is zero */
 480:.\Generated_Source\PSoC5/CapSense_CSD_CSHL.c ****         CapSense_CSD_sensorSignal[sensor] = 0u;
 507              		.loc 1 480 0
 508 0112 FB79     		ldrb	r3, [r7, #7]	@ zero_extendqisi2
 509 0114 094A     		ldr	r2, .L26+24
 510 0116 0021     		movs	r1, #0
 511 0118 22F81310 		strh	r1, [r2, r3, lsl #1]	@ movhi
 512              	.L16:
 481:.\Generated_Source\PSoC5/CapSense_CSD_CSHL.c ****     }
 482:.\Generated_Source\PSoC5/CapSense_CSD_CSHL.c **** 
 483:.\Generated_Source\PSoC5/CapSense_CSD_CSHL.c ****     #if (CapSense_CSD_TOTAL_GENERICS_COUNT)
 484:.\Generated_Source\PSoC5/CapSense_CSD_CSHL.c ****         /* Exclude generic widget */
 485:.\Generated_Source\PSoC5/CapSense_CSD_CSHL.c ****         }
 486:.\Generated_Source\PSoC5/CapSense_CSD_CSHL.c ****     #endif  /* CapSense_CSD_TOTAL_GENERICS_COUNT */
 487:.\Generated_Source\PSoC5/CapSense_CSD_CSHL.c **** }
 513              		.loc 1 487 0
 514 011c 1837     		adds	r7, r7, #24
 515              		.cfi_def_cfa_offset 8
 516 011e BD46     		mov	sp, r7
 517              		.cfi_def_cfa_register 13
 518              		@ sp needed
 519 0120 80BD     		pop	{r7, pc}
 520              	.L27:
 521 0122 00BF     		.align	2
 522              	.L26:
 523 0124 00000000 		.word	CapSense_CSD_widgetNumber
 524 0128 00000000 		.word	CapSense_CSD_noiseThreshold
 525 012c 00000000 		.word	CapSense_CSD_sensorRaw
 526 0130 00000000 		.word	CapSense_CSD_sensorBaseline
 527 0134 00000000 		.word	CapSense_CSD_lowBaselineResetCnt
 528 0138 00000000 		.word	CapSense_CSD_sensorBaselineLow
 529 013c 00000000 		.word	CapSense_CSD_sensorSignal
 530              		.cfi_endproc
 531              	.LFE4:
 532              		.size	CapSense_CSD_UpdateSensorBaseline, .-CapSense_CSD_UpdateSensorBaseline
 533              		.section	.text.CapSense_CSD_UpdateEnabledBaselines,"ax",%progbits
ARM GAS  C:\Users\user\AppData\Local\Temp\ccxtGrYL.s 			page 19


 534              		.align	2
 535              		.global	CapSense_CSD_UpdateEnabledBaselines
 536              		.thumb
 537              		.thumb_func
 538              		.type	CapSense_CSD_UpdateEnabledBaselines, %function
 539              	CapSense_CSD_UpdateEnabledBaselines:
 540              	.LFB5:
 488:.\Generated_Source\PSoC5/CapSense_CSD_CSHL.c **** 
 489:.\Generated_Source\PSoC5/CapSense_CSD_CSHL.c **** 
 490:.\Generated_Source\PSoC5/CapSense_CSD_CSHL.c **** /*******************************************************************************
 491:.\Generated_Source\PSoC5/CapSense_CSD_CSHL.c **** * Function Name: CapSense_CSD_UpdateEnabledBaselines
 492:.\Generated_Source\PSoC5/CapSense_CSD_CSHL.c **** ********************************************************************************
 493:.\Generated_Source\PSoC5/CapSense_CSD_CSHL.c **** *
 494:.\Generated_Source\PSoC5/CapSense_CSD_CSHL.c **** * Summary:
 495:.\Generated_Source\PSoC5/CapSense_CSD_CSHL.c **** *  Checks CapSense_CSD_sensorEnableMask[] array and calls the 
 496:.\Generated_Source\PSoC5/CapSense_CSD_CSHL.c **** *  CapSense_CSD_UpdateSensorBaseline function to update the baselines 
 497:.\Generated_Source\PSoC5/CapSense_CSD_CSHL.c **** *  for enabled sensors.
 498:.\Generated_Source\PSoC5/CapSense_CSD_CSHL.c **** *
 499:.\Generated_Source\PSoC5/CapSense_CSD_CSHL.c **** * Parameters:
 500:.\Generated_Source\PSoC5/CapSense_CSD_CSHL.c **** *  None
 501:.\Generated_Source\PSoC5/CapSense_CSD_CSHL.c **** *
 502:.\Generated_Source\PSoC5/CapSense_CSD_CSHL.c **** * Return:
 503:.\Generated_Source\PSoC5/CapSense_CSD_CSHL.c **** *  None
 504:.\Generated_Source\PSoC5/CapSense_CSD_CSHL.c **** *
 505:.\Generated_Source\PSoC5/CapSense_CSD_CSHL.c **** * Global Variables:
 506:.\Generated_Source\PSoC5/CapSense_CSD_CSHL.c **** *  CapSense_CSD_sensorEnableMask[] - used to store the sensor scanning 
 507:.\Generated_Source\PSoC5/CapSense_CSD_CSHL.c **** *  state.
 508:.\Generated_Source\PSoC5/CapSense_CSD_CSHL.c **** *  CapSense_CSD_sensorEnableMask[0] contains the masked bits for sensors 
 509:.\Generated_Source\PSoC5/CapSense_CSD_CSHL.c **** *   0 through 7 (sensor 0 is bit 0, sensor 1 is bit 1).
 510:.\Generated_Source\PSoC5/CapSense_CSD_CSHL.c **** *  CapSense_CSD_sensorEnableMask[1] contains the masked bits for 
 511:.\Generated_Source\PSoC5/CapSense_CSD_CSHL.c **** *  sensors 8 through 15 (if needed), and so on.
 512:.\Generated_Source\PSoC5/CapSense_CSD_CSHL.c **** *  0 - sensor doesn't scan by CapSense_CSD_ScanEnabledWidgets().
 513:.\Generated_Source\PSoC5/CapSense_CSD_CSHL.c **** *  1 - sensor scans by CapSense_CSD_ScanEnabledWidgets().
 514:.\Generated_Source\PSoC5/CapSense_CSD_CSHL.c **** *
 515:.\Generated_Source\PSoC5/CapSense_CSD_CSHL.c **** * Reentrant:
 516:.\Generated_Source\PSoC5/CapSense_CSD_CSHL.c **** *  No
 517:.\Generated_Source\PSoC5/CapSense_CSD_CSHL.c **** *
 518:.\Generated_Source\PSoC5/CapSense_CSD_CSHL.c **** *******************************************************************************/
 519:.\Generated_Source\PSoC5/CapSense_CSD_CSHL.c ****  void CapSense_CSD_UpdateEnabledBaselines(void)
 520:.\Generated_Source\PSoC5/CapSense_CSD_CSHL.c ****                                  
 521:.\Generated_Source\PSoC5/CapSense_CSD_CSHL.c **** {
 541              		.loc 1 521 0
 542              		.cfi_startproc
 543              		@ args = 0, pretend = 0, frame = 8
 544              		@ frame_needed = 1, uses_anonymous_args = 0
 545 0000 80B5     		push	{r7, lr}
 546              		.cfi_def_cfa_offset 8
 547              		.cfi_offset 7, -8
 548              		.cfi_offset 14, -4
 549 0002 82B0     		sub	sp, sp, #8
 550              		.cfi_def_cfa_offset 16
 551 0004 00AF     		add	r7, sp, #0
 552              		.cfi_def_cfa_register 7
 522:.\Generated_Source\PSoC5/CapSense_CSD_CSHL.c ****     uint8 i;
 523:.\Generated_Source\PSoC5/CapSense_CSD_CSHL.c ****     uint8 pos;
 524:.\Generated_Source\PSoC5/CapSense_CSD_CSHL.c ****     uint8 enMask;
 525:.\Generated_Source\PSoC5/CapSense_CSD_CSHL.c ****     
ARM GAS  C:\Users\user\AppData\Local\Temp\ccxtGrYL.s 			page 20


 526:.\Generated_Source\PSoC5/CapSense_CSD_CSHL.c ****     for(i = 0u; i < CapSense_CSD_TOTAL_SENSOR_COUNT; i++)
 553              		.loc 1 526 0
 554 0006 0023     		movs	r3, #0
 555 0008 FB71     		strb	r3, [r7, #7]
 556 000a 18E0     		b	.L29
 557              	.L31:
 527:.\Generated_Source\PSoC5/CapSense_CSD_CSHL.c ****     {
 528:.\Generated_Source\PSoC5/CapSense_CSD_CSHL.c ****         pos = (i >> 3u);
 558              		.loc 1 528 0
 559 000c FB79     		ldrb	r3, [r7, #7]	@ zero_extendqisi2
 560 000e DB08     		lsrs	r3, r3, #3
 561 0010 BB71     		strb	r3, [r7, #6]
 529:.\Generated_Source\PSoC5/CapSense_CSD_CSHL.c ****         enMask = (uint8)(0x01u << (i & 0x07u));
 562              		.loc 1 529 0
 563 0012 FB79     		ldrb	r3, [r7, #7]	@ zero_extendqisi2
 564 0014 03F00703 		and	r3, r3, #7
 565 0018 0122     		movs	r2, #1
 566 001a 02FA03F3 		lsl	r3, r2, r3
 567 001e 7B71     		strb	r3, [r7, #5]
 530:.\Generated_Source\PSoC5/CapSense_CSD_CSHL.c ****         if((CapSense_CSD_sensorEnableMask[pos] & enMask) != 0u)
 568              		.loc 1 530 0
 569 0020 BB79     		ldrb	r3, [r7, #6]	@ zero_extendqisi2
 570 0022 0A4A     		ldr	r2, .L32
 571 0024 D25C     		ldrb	r2, [r2, r3]	@ zero_extendqisi2
 572 0026 7B79     		ldrb	r3, [r7, #5]
 573 0028 1340     		ands	r3, r3, r2
 574 002a DBB2     		uxtb	r3, r3
 575 002c 002B     		cmp	r3, #0
 576 002e 03D0     		beq	.L30
 531:.\Generated_Source\PSoC5/CapSense_CSD_CSHL.c ****         {
 532:.\Generated_Source\PSoC5/CapSense_CSD_CSHL.c ****             CapSense_CSD_UpdateSensorBaseline(i);
 577              		.loc 1 532 0
 578 0030 FB79     		ldrb	r3, [r7, #7]	@ zero_extendqisi2
 579 0032 1846     		mov	r0, r3
 580 0034 FFF7FEFF 		bl	CapSense_CSD_UpdateSensorBaseline
 581              	.L30:
 526:.\Generated_Source\PSoC5/CapSense_CSD_CSHL.c ****     {
 582              		.loc 1 526 0 discriminator 2
 583 0038 FB79     		ldrb	r3, [r7, #7]	@ zero_extendqisi2
 584 003a 0133     		adds	r3, r3, #1
 585 003c FB71     		strb	r3, [r7, #7]
 586              	.L29:
 526:.\Generated_Source\PSoC5/CapSense_CSD_CSHL.c ****     {
 587              		.loc 1 526 0 is_stmt 0 discriminator 1
 588 003e FB79     		ldrb	r3, [r7, #7]	@ zero_extendqisi2
 589 0040 002B     		cmp	r3, #0
 590 0042 E3D0     		beq	.L31
 533:.\Generated_Source\PSoC5/CapSense_CSD_CSHL.c ****         }
 534:.\Generated_Source\PSoC5/CapSense_CSD_CSHL.c ****     }
 535:.\Generated_Source\PSoC5/CapSense_CSD_CSHL.c **** }
 591              		.loc 1 535 0 is_stmt 1
 592 0044 0837     		adds	r7, r7, #8
 593              		.cfi_def_cfa_offset 8
 594 0046 BD46     		mov	sp, r7
 595              		.cfi_def_cfa_register 13
 596              		@ sp needed
 597 0048 80BD     		pop	{r7, pc}
ARM GAS  C:\Users\user\AppData\Local\Temp\ccxtGrYL.s 			page 21


 598              	.L33:
 599 004a 00BF     		.align	2
 600              	.L32:
 601 004c 00000000 		.word	CapSense_CSD_sensorEnableMask
 602              		.cfi_endproc
 603              	.LFE5:
 604              		.size	CapSense_CSD_UpdateEnabledBaselines, .-CapSense_CSD_UpdateEnabledBaselines
 605              		.section	.text.CapSense_CSD_CheckIsSensorActive,"ax",%progbits
 606              		.align	2
 607              		.global	CapSense_CSD_CheckIsSensorActive
 608              		.thumb
 609              		.thumb_func
 610              		.type	CapSense_CSD_CheckIsSensorActive, %function
 611              	CapSense_CSD_CheckIsSensorActive:
 612              	.LFB6:
 536:.\Generated_Source\PSoC5/CapSense_CSD_CSHL.c **** 
 537:.\Generated_Source\PSoC5/CapSense_CSD_CSHL.c **** 
 538:.\Generated_Source\PSoC5/CapSense_CSD_CSHL.c **** /*******************************************************************************
 539:.\Generated_Source\PSoC5/CapSense_CSD_CSHL.c **** * Function Name: CapSense_CSD_CheckIsSensorActive
 540:.\Generated_Source\PSoC5/CapSense_CSD_CSHL.c **** ********************************************************************************
 541:.\Generated_Source\PSoC5/CapSense_CSD_CSHL.c **** *
 542:.\Generated_Source\PSoC5/CapSense_CSD_CSHL.c **** * Summary:
 543:.\Generated_Source\PSoC5/CapSense_CSD_CSHL.c **** *  Compares the CapSense_CSD_SensorSignal[sensor] array element to finger
 544:.\Generated_Source\PSoC5/CapSense_CSD_CSHL.c **** *  threshold of widget it belongs to. The hysteresis and debounce are taken into 
 545:.\Generated_Source\PSoC5/CapSense_CSD_CSHL.c **** *  account. The hysteresis is added or subtracted from the finger threshold 
 546:.\Generated_Source\PSoC5/CapSense_CSD_CSHL.c **** *  based on whether the sensor is currently active. 
 547:.\Generated_Source\PSoC5/CapSense_CSD_CSHL.c **** *  If the sensor is active, the threshold is lowered by the hysteresis amount.
 548:.\Generated_Source\PSoC5/CapSense_CSD_CSHL.c **** *  If the sensor is inactive, the threshold is raised by the hysteresis amount.
 549:.\Generated_Source\PSoC5/CapSense_CSD_CSHL.c **** *  The debounce counter added to the sensor active transition.
 550:.\Generated_Source\PSoC5/CapSense_CSD_CSHL.c **** *  This function updates CapSense_CSD_SensorOnMask[] array element.
 551:.\Generated_Source\PSoC5/CapSense_CSD_CSHL.c **** *
 552:.\Generated_Source\PSoC5/CapSense_CSD_CSHL.c **** * Parameters:
 553:.\Generated_Source\PSoC5/CapSense_CSD_CSHL.c **** *  sensor:  Sensor number.
 554:.\Generated_Source\PSoC5/CapSense_CSD_CSHL.c **** *
 555:.\Generated_Source\PSoC5/CapSense_CSD_CSHL.c **** * Return:
 556:.\Generated_Source\PSoC5/CapSense_CSD_CSHL.c **** *  Returns sensor state 1 if active, 0 if not active.
 557:.\Generated_Source\PSoC5/CapSense_CSD_CSHL.c **** *
 558:.\Generated_Source\PSoC5/CapSense_CSD_CSHL.c **** * Global Variables:
 559:.\Generated_Source\PSoC5/CapSense_CSD_CSHL.c **** *  CapSense_CSD_sensorSignal[]      - used to store diffence between 
 560:.\Generated_Source\PSoC5/CapSense_CSD_CSHL.c **** *  current value of raw data and previous value of baseline.
 561:.\Generated_Source\PSoC5/CapSense_CSD_CSHL.c **** *  CapSense_CSD_debounceCounter[]   - used to store current debounce 
 562:.\Generated_Source\PSoC5/CapSense_CSD_CSHL.c **** *  counter of sensor. Widget which has this parameter are buttons, matrix 
 563:.\Generated_Source\PSoC5/CapSense_CSD_CSHL.c **** *  buttons, proximity, guard. All other widgets haven't debounce parameter
 564:.\Generated_Source\PSoC5/CapSense_CSD_CSHL.c **** *  and use the last element of this array with value 0 (it means no debounce).
 565:.\Generated_Source\PSoC5/CapSense_CSD_CSHL.c **** *  CapSense_CSD_sensorOnMask[] - used to store sensors on/off state.
 566:.\Generated_Source\PSoC5/CapSense_CSD_CSHL.c **** *  CapSense_CSD_sensorOnMask[0] contains the masked bits for sensors 
 567:.\Generated_Source\PSoC5/CapSense_CSD_CSHL.c **** *   0 through 7 (sensor 0 is bit 0, sensor 1 is bit 1).
 568:.\Generated_Source\PSoC5/CapSense_CSD_CSHL.c **** *  CapSense_CSD_sensorEnableMask[1] contains the masked bits for 
 569:.\Generated_Source\PSoC5/CapSense_CSD_CSHL.c **** *  sensors 8 through 15 (if needed), and so on.
 570:.\Generated_Source\PSoC5/CapSense_CSD_CSHL.c **** *  0 - sensor is inactive.
 571:.\Generated_Source\PSoC5/CapSense_CSD_CSHL.c **** *  1 - sensor is active.
 572:.\Generated_Source\PSoC5/CapSense_CSD_CSHL.c **** *
 573:.\Generated_Source\PSoC5/CapSense_CSD_CSHL.c **** * Reentrant:
 574:.\Generated_Source\PSoC5/CapSense_CSD_CSHL.c **** *  No
 575:.\Generated_Source\PSoC5/CapSense_CSD_CSHL.c **** *
 576:.\Generated_Source\PSoC5/CapSense_CSD_CSHL.c **** *******************************************************************************/
 577:.\Generated_Source\PSoC5/CapSense_CSD_CSHL.c **** uint8 CapSense_CSD_CheckIsSensorActive(uint8 sensor)
ARM GAS  C:\Users\user\AppData\Local\Temp\ccxtGrYL.s 			page 22


 578:.\Generated_Source\PSoC5/CapSense_CSD_CSHL.c ****                                   
 579:.\Generated_Source\PSoC5/CapSense_CSD_CSHL.c **** {
 613              		.loc 1 579 0
 614              		.cfi_startproc
 615              		@ args = 0, pretend = 0, frame = 24
 616              		@ frame_needed = 1, uses_anonymous_args = 0
 617              		@ link register save eliminated.
 618 0000 80B4     		push	{r7}
 619              		.cfi_def_cfa_offset 4
 620              		.cfi_offset 7, -4
 621 0002 87B0     		sub	sp, sp, #28
 622              		.cfi_def_cfa_offset 32
 623 0004 00AF     		add	r7, sp, #0
 624              		.cfi_def_cfa_register 7
 625 0006 0346     		mov	r3, r0
 626 0008 FB71     		strb	r3, [r7, #7]
 580:.\Generated_Source\PSoC5/CapSense_CSD_CSHL.c ****     uint8 debounceIndex;
 581:.\Generated_Source\PSoC5/CapSense_CSD_CSHL.c ****     /* Get On/Off mask */
 582:.\Generated_Source\PSoC5/CapSense_CSD_CSHL.c ****     uint8 pos = (sensor >> 3u);
 627              		.loc 1 582 0
 628 000a FB79     		ldrb	r3, [r7, #7]	@ zero_extendqisi2
 629 000c DB08     		lsrs	r3, r3, #3
 630 000e FB75     		strb	r3, [r7, #23]
 583:.\Generated_Source\PSoC5/CapSense_CSD_CSHL.c ****     uint8 onMask = 0x01u << (sensor & 0x07u);
 631              		.loc 1 583 0
 632 0010 FB79     		ldrb	r3, [r7, #7]	@ zero_extendqisi2
 633 0012 03F00703 		and	r3, r3, #7
 634 0016 0122     		movs	r2, #1
 635 0018 02FA03F3 		lsl	r3, r2, r3
 636 001c BB75     		strb	r3, [r7, #22]
 584:.\Generated_Source\PSoC5/CapSense_CSD_CSHL.c ****     /* Prepare to find debounce counter index */
 585:.\Generated_Source\PSoC5/CapSense_CSD_CSHL.c ****     uint8 widget = CapSense_CSD_widgetNumber[sensor];
 637              		.loc 1 585 0
 638 001e FB79     		ldrb	r3, [r7, #7]	@ zero_extendqisi2
 639 0020 344A     		ldr	r2, .L43
 640 0022 D35C     		ldrb	r3, [r2, r3]
 641 0024 7B75     		strb	r3, [r7, #21]
 586:.\Generated_Source\PSoC5/CapSense_CSD_CSHL.c ****     uint16 fingerThreshold = CapSense_CSD_fingerThreshold[widget];
 642              		.loc 1 586 0
 643 0026 7B7D     		ldrb	r3, [r7, #21]	@ zero_extendqisi2
 644 0028 334A     		ldr	r2, .L43+4
 645 002a 32F81330 		ldrh	r3, [r2, r3, lsl #1]	@ movhi
 646 002e 7B82     		strh	r3, [r7, #18]	@ movhi
 587:.\Generated_Source\PSoC5/CapSense_CSD_CSHL.c ****     uint16 hysteresis = CapSense_CSD_hysteresis[widget];
 647              		.loc 1 587 0
 648 0030 7B7D     		ldrb	r3, [r7, #21]	@ zero_extendqisi2
 649 0032 324A     		ldr	r2, .L43+8
 650 0034 32F81330 		ldrh	r3, [r2, r3, lsl #1]	@ movhi
 651 0038 3B82     		strh	r3, [r7, #16]	@ movhi
 588:.\Generated_Source\PSoC5/CapSense_CSD_CSHL.c ****     uint8 debounce = CapSense_CSD_debounce[widget];
 652              		.loc 1 588 0
 653 003a 7B7D     		ldrb	r3, [r7, #21]	@ zero_extendqisi2
 654 003c 304A     		ldr	r2, .L43+12
 655 003e D35C     		ldrb	r3, [r2, r3]
 656 0040 FB73     		strb	r3, [r7, #15]
 589:.\Generated_Source\PSoC5/CapSense_CSD_CSHL.c ****     
 590:.\Generated_Source\PSoC5/CapSense_CSD_CSHL.c ****     debounceIndex = widget;
ARM GAS  C:\Users\user\AppData\Local\Temp\ccxtGrYL.s 			page 23


 657              		.loc 1 590 0
 658 0042 7B7D     		ldrb	r3, [r7, #21]
 659 0044 BB73     		strb	r3, [r7, #14]
 591:.\Generated_Source\PSoC5/CapSense_CSD_CSHL.c **** 
 592:.\Generated_Source\PSoC5/CapSense_CSD_CSHL.c ****     
 593:.\Generated_Source\PSoC5/CapSense_CSD_CSHL.c ****     /* Was on */
 594:.\Generated_Source\PSoC5/CapSense_CSD_CSHL.c ****     if (0u != (CapSense_CSD_sensorOnMask[pos] & onMask))
 660              		.loc 1 594 0
 661 0046 FB7D     		ldrb	r3, [r7, #23]	@ zero_extendqisi2
 662 0048 2E4A     		ldr	r2, .L43+16
 663 004a D25C     		ldrb	r2, [r2, r3]	@ zero_extendqisi2
 664 004c BB7D     		ldrb	r3, [r7, #22]
 665 004e 1340     		ands	r3, r3, r2
 666 0050 DBB2     		uxtb	r3, r3
 667 0052 002B     		cmp	r3, #0
 668 0054 19D0     		beq	.L35
 595:.\Generated_Source\PSoC5/CapSense_CSD_CSHL.c ****     {
 596:.\Generated_Source\PSoC5/CapSense_CSD_CSHL.c ****         /* Hysteresis minus */
 597:.\Generated_Source\PSoC5/CapSense_CSD_CSHL.c ****         if (CapSense_CSD_sensorSignal[sensor] < (fingerThreshold - hysteresis))
 669              		.loc 1 597 0
 670 0056 FB79     		ldrb	r3, [r7, #7]	@ zero_extendqisi2
 671 0058 2B4A     		ldr	r2, .L43+20
 672 005a 32F81330 		ldrh	r3, [r2, r3, lsl #1]
 673 005e 1946     		mov	r1, r3
 674 0060 7A8A     		ldrh	r2, [r7, #18]
 675 0062 3B8A     		ldrh	r3, [r7, #16]
 676 0064 D31A     		subs	r3, r2, r3
 677 0066 9942     		cmp	r1, r3
 678 0068 33DA     		bge	.L37
 598:.\Generated_Source\PSoC5/CapSense_CSD_CSHL.c ****         {
 599:.\Generated_Source\PSoC5/CapSense_CSD_CSHL.c ****             CapSense_CSD_sensorOnMask[pos] &= (uint8)~onMask;
 679              		.loc 1 599 0
 680 006a FB7D     		ldrb	r3, [r7, #23]	@ zero_extendqisi2
 681 006c FA7D     		ldrb	r2, [r7, #23]	@ zero_extendqisi2
 682 006e 2549     		ldr	r1, .L43+16
 683 0070 895C     		ldrb	r1, [r1, r2]	@ zero_extendqisi2
 684 0072 BA7D     		ldrb	r2, [r7, #22]
 685 0074 D243     		mvns	r2, r2
 686 0076 D2B2     		uxtb	r2, r2
 687 0078 0A40     		ands	r2, r2, r1
 688 007a D1B2     		uxtb	r1, r2
 689 007c 214A     		ldr	r2, .L43+16
 690 007e D154     		strb	r1, [r2, r3]
 600:.\Generated_Source\PSoC5/CapSense_CSD_CSHL.c ****             CapSense_CSD_debounceCounter[debounceIndex] = debounce; 
 691              		.loc 1 600 0
 692 0080 BB7B     		ldrb	r3, [r7, #14]	@ zero_extendqisi2
 693 0082 2249     		ldr	r1, .L43+24
 694 0084 FA7B     		ldrb	r2, [r7, #15]
 695 0086 CA54     		strb	r2, [r1, r3]
 696 0088 23E0     		b	.L37
 697              	.L35:
 601:.\Generated_Source\PSoC5/CapSense_CSD_CSHL.c ****         }
 602:.\Generated_Source\PSoC5/CapSense_CSD_CSHL.c ****     }
 603:.\Generated_Source\PSoC5/CapSense_CSD_CSHL.c ****     else    /* Was off */
 604:.\Generated_Source\PSoC5/CapSense_CSD_CSHL.c ****     {
 605:.\Generated_Source\PSoC5/CapSense_CSD_CSHL.c ****         /* Hysteresis plus */
 606:.\Generated_Source\PSoC5/CapSense_CSD_CSHL.c ****         if (CapSense_CSD_sensorSignal[sensor] > (fingerThreshold + hysteresis))
ARM GAS  C:\Users\user\AppData\Local\Temp\ccxtGrYL.s 			page 24


 698              		.loc 1 606 0
 699 008a FB79     		ldrb	r3, [r7, #7]	@ zero_extendqisi2
 700 008c 1E4A     		ldr	r2, .L43+20
 701 008e 32F81330 		ldrh	r3, [r2, r3, lsl #1]
 702 0092 1946     		mov	r1, r3
 703 0094 7A8A     		ldrh	r2, [r7, #18]
 704 0096 3B8A     		ldrh	r3, [r7, #16]
 705 0098 1344     		add	r3, r3, r2
 706 009a 9942     		cmp	r1, r3
 707 009c 15DD     		ble	.L38
 607:.\Generated_Source\PSoC5/CapSense_CSD_CSHL.c ****         {
 608:.\Generated_Source\PSoC5/CapSense_CSD_CSHL.c ****             /* Sensor active, decrement debounce counter */
 609:.\Generated_Source\PSoC5/CapSense_CSD_CSHL.c ****             if (CapSense_CSD_debounceCounter[debounceIndex] <= 1u)
 708              		.loc 1 609 0
 709 009e BB7B     		ldrb	r3, [r7, #14]	@ zero_extendqisi2
 710 00a0 1A4A     		ldr	r2, .L43+24
 711 00a2 D35C     		ldrb	r3, [r2, r3]	@ zero_extendqisi2
 712 00a4 012B     		cmp	r3, #1
 713 00a6 08D8     		bhi	.L39
 610:.\Generated_Source\PSoC5/CapSense_CSD_CSHL.c ****             {
 611:.\Generated_Source\PSoC5/CapSense_CSD_CSHL.c ****                 CapSense_CSD_sensorOnMask[pos] |= onMask; 
 714              		.loc 1 611 0
 715 00a8 FB7D     		ldrb	r3, [r7, #23]	@ zero_extendqisi2
 716 00aa FA7D     		ldrb	r2, [r7, #23]	@ zero_extendqisi2
 717 00ac 1549     		ldr	r1, .L43+16
 718 00ae 895C     		ldrb	r1, [r1, r2]	@ zero_extendqisi2
 719 00b0 BA7D     		ldrb	r2, [r7, #22]
 720 00b2 0A43     		orrs	r2, r2, r1
 721 00b4 D1B2     		uxtb	r1, r2
 722 00b6 134A     		ldr	r2, .L43+16
 723 00b8 D154     		strb	r1, [r2, r3]
 724              	.L39:
 612:.\Generated_Source\PSoC5/CapSense_CSD_CSHL.c ****             }
 613:.\Generated_Source\PSoC5/CapSense_CSD_CSHL.c ****             CapSense_CSD_debounceCounter[debounceIndex]--;
 725              		.loc 1 613 0
 726 00ba BB7B     		ldrb	r3, [r7, #14]	@ zero_extendqisi2
 727 00bc 134A     		ldr	r2, .L43+24
 728 00be D25C     		ldrb	r2, [r2, r3]	@ zero_extendqisi2
 729 00c0 013A     		subs	r2, r2, #1
 730 00c2 D1B2     		uxtb	r1, r2
 731 00c4 114A     		ldr	r2, .L43+24
 732 00c6 D154     		strb	r1, [r2, r3]
 733 00c8 03E0     		b	.L37
 734              	.L38:
 614:.\Generated_Source\PSoC5/CapSense_CSD_CSHL.c ****         }
 615:.\Generated_Source\PSoC5/CapSense_CSD_CSHL.c ****         else
 616:.\Generated_Source\PSoC5/CapSense_CSD_CSHL.c ****         {
 617:.\Generated_Source\PSoC5/CapSense_CSD_CSHL.c ****             /* Sensor inactive - reset Debounce counter */
 618:.\Generated_Source\PSoC5/CapSense_CSD_CSHL.c ****             CapSense_CSD_debounceCounter[debounceIndex] = debounce;
 735              		.loc 1 618 0
 736 00ca BB7B     		ldrb	r3, [r7, #14]	@ zero_extendqisi2
 737 00cc 0F49     		ldr	r1, .L43+24
 738 00ce FA7B     		ldrb	r2, [r7, #15]
 739 00d0 CA54     		strb	r2, [r1, r3]
 740              	.L37:
 619:.\Generated_Source\PSoC5/CapSense_CSD_CSHL.c ****         }
 620:.\Generated_Source\PSoC5/CapSense_CSD_CSHL.c ****     }
ARM GAS  C:\Users\user\AppData\Local\Temp\ccxtGrYL.s 			page 25


 621:.\Generated_Source\PSoC5/CapSense_CSD_CSHL.c ****     
 622:.\Generated_Source\PSoC5/CapSense_CSD_CSHL.c ****     return (((CapSense_CSD_sensorOnMask[pos] & onMask) != 0u) ? 1u : 0u);
 741              		.loc 1 622 0
 742 00d2 FB7D     		ldrb	r3, [r7, #23]	@ zero_extendqisi2
 743 00d4 0B4A     		ldr	r2, .L43+16
 744 00d6 D25C     		ldrb	r2, [r2, r3]	@ zero_extendqisi2
 745 00d8 BB7D     		ldrb	r3, [r7, #22]
 746 00da 1340     		ands	r3, r3, r2
 747 00dc DBB2     		uxtb	r3, r3
 748 00de 002B     		cmp	r3, #0
 749 00e0 01D0     		beq	.L40
 750              		.loc 1 622 0 is_stmt 0 discriminator 1
 751 00e2 0123     		movs	r3, #1
 752 00e4 00E0     		b	.L41
 753              	.L40:
 754              		.loc 1 622 0 discriminator 2
 755 00e6 0023     		movs	r3, #0
 756              	.L41:
 623:.\Generated_Source\PSoC5/CapSense_CSD_CSHL.c **** }
 757              		.loc 1 623 0 is_stmt 1 discriminator 4
 758 00e8 1846     		mov	r0, r3
 759 00ea 1C37     		adds	r7, r7, #28
 760              		.cfi_def_cfa_offset 4
 761 00ec BD46     		mov	sp, r7
 762              		.cfi_def_cfa_register 13
 763              		@ sp needed
 764 00ee 5DF8047B 		ldr	r7, [sp], #4
 765              		.cfi_restore 7
 766              		.cfi_def_cfa_offset 0
 767 00f2 7047     		bx	lr
 768              	.L44:
 769              		.align	2
 770              	.L43:
 771 00f4 00000000 		.word	CapSense_CSD_widgetNumber
 772 00f8 00000000 		.word	CapSense_CSD_fingerThreshold
 773 00fc 00000000 		.word	CapSense_CSD_hysteresis
 774 0100 00000000 		.word	CapSense_CSD_debounce
 775 0104 00000000 		.word	CapSense_CSD_sensorOnMask
 776 0108 00000000 		.word	CapSense_CSD_sensorSignal
 777 010c 00000000 		.word	CapSense_CSD_debounceCounter
 778              		.cfi_endproc
 779              	.LFE6:
 780              		.size	CapSense_CSD_CheckIsSensorActive, .-CapSense_CSD_CheckIsSensorActive
 781              		.section	.text.CapSense_CSD_CheckIsWidgetActive,"ax",%progbits
 782              		.align	2
 783              		.global	CapSense_CSD_CheckIsWidgetActive
 784              		.thumb
 785              		.thumb_func
 786              		.type	CapSense_CSD_CheckIsWidgetActive, %function
 787              	CapSense_CSD_CheckIsWidgetActive:
 788              	.LFB7:
 624:.\Generated_Source\PSoC5/CapSense_CSD_CSHL.c **** 
 625:.\Generated_Source\PSoC5/CapSense_CSD_CSHL.c **** 
 626:.\Generated_Source\PSoC5/CapSense_CSD_CSHL.c **** /*******************************************************************************
 627:.\Generated_Source\PSoC5/CapSense_CSD_CSHL.c **** * Function Name: CapSense_CSD_CheckIsWidgetActive
 628:.\Generated_Source\PSoC5/CapSense_CSD_CSHL.c **** ********************************************************************************
 629:.\Generated_Source\PSoC5/CapSense_CSD_CSHL.c **** *
ARM GAS  C:\Users\user\AppData\Local\Temp\ccxtGrYL.s 			page 26


 630:.\Generated_Source\PSoC5/CapSense_CSD_CSHL.c **** * Summary:
 631:.\Generated_Source\PSoC5/CapSense_CSD_CSHL.c **** *  Use function CapSense_CSD_CheckIsSensorActive() to update 
 632:.\Generated_Source\PSoC5/CapSense_CSD_CSHL.c **** *  CapSense_CSD_sensorOnMask[] for all sensors within the widget.
 633:.\Generated_Source\PSoC5/CapSense_CSD_CSHL.c **** *  If one of sensors within widget is active the function return that widget is 
 634:.\Generated_Source\PSoC5/CapSense_CSD_CSHL.c **** *  active.
 635:.\Generated_Source\PSoC5/CapSense_CSD_CSHL.c **** *  The touch pad and matrix buttons widgets need to have active sensor within 
 636:.\Generated_Source\PSoC5/CapSense_CSD_CSHL.c **** *  col and row to return widget active status.
 637:.\Generated_Source\PSoC5/CapSense_CSD_CSHL.c **** *
 638:.\Generated_Source\PSoC5/CapSense_CSD_CSHL.c **** * Parameters:
 639:.\Generated_Source\PSoC5/CapSense_CSD_CSHL.c **** *  widget:  widget number.
 640:.\Generated_Source\PSoC5/CapSense_CSD_CSHL.c **** *
 641:.\Generated_Source\PSoC5/CapSense_CSD_CSHL.c **** * Return:
 642:.\Generated_Source\PSoC5/CapSense_CSD_CSHL.c **** *  Returns widget sensor state 1 if one or more sensors within widget is/are 
 643:.\Generated_Source\PSoC5/CapSense_CSD_CSHL.c **** *  active, 0 if all sensors within widget are inactive.
 644:.\Generated_Source\PSoC5/CapSense_CSD_CSHL.c **** *
 645:.\Generated_Source\PSoC5/CapSense_CSD_CSHL.c **** * Reentrant:
 646:.\Generated_Source\PSoC5/CapSense_CSD_CSHL.c **** *  No
 647:.\Generated_Source\PSoC5/CapSense_CSD_CSHL.c **** *
 648:.\Generated_Source\PSoC5/CapSense_CSD_CSHL.c **** *******************************************************************************/
 649:.\Generated_Source\PSoC5/CapSense_CSD_CSHL.c **** uint8 CapSense_CSD_CheckIsWidgetActive(uint8 widget)
 650:.\Generated_Source\PSoC5/CapSense_CSD_CSHL.c ****                                  
 651:.\Generated_Source\PSoC5/CapSense_CSD_CSHL.c **** {
 789              		.loc 1 651 0
 790              		.cfi_startproc
 791              		@ args = 0, pretend = 0, frame = 16
 792              		@ frame_needed = 1, uses_anonymous_args = 0
 793 0000 80B5     		push	{r7, lr}
 794              		.cfi_def_cfa_offset 8
 795              		.cfi_offset 7, -8
 796              		.cfi_offset 14, -4
 797 0002 84B0     		sub	sp, sp, #16
 798              		.cfi_def_cfa_offset 24
 799 0004 00AF     		add	r7, sp, #0
 800              		.cfi_def_cfa_register 7
 801 0006 0346     		mov	r3, r0
 802 0008 FB71     		strb	r3, [r7, #7]
 652:.\Generated_Source\PSoC5/CapSense_CSD_CSHL.c ****     uint8 rawIndex = CapSense_CSD_rawDataIndex[widget];
 803              		.loc 1 652 0
 804 000a 0023     		movs	r3, #0
 805 000c FB73     		strb	r3, [r7, #15]
 653:.\Generated_Source\PSoC5/CapSense_CSD_CSHL.c ****     uint8 numberOfSensors = CapSense_CSD_numberOfSensors[widget] + rawIndex;
 806              		.loc 1 653 0
 807 000e 0122     		movs	r2, #1
 808 0010 FB7B     		ldrb	r3, [r7, #15]
 809 0012 1344     		add	r3, r3, r2
 810 0014 7B73     		strb	r3, [r7, #13]
 654:.\Generated_Source\PSoC5/CapSense_CSD_CSHL.c ****     uint8 state = 0u;
 811              		.loc 1 654 0
 812 0016 0023     		movs	r3, #0
 813 0018 BB73     		strb	r3, [r7, #14]
 814              	.L47:
 655:.\Generated_Source\PSoC5/CapSense_CSD_CSHL.c **** 
 656:.\Generated_Source\PSoC5/CapSense_CSD_CSHL.c ****     /* Check all sensors of the widget */
 657:.\Generated_Source\PSoC5/CapSense_CSD_CSHL.c ****     do
 658:.\Generated_Source\PSoC5/CapSense_CSD_CSHL.c ****     {
 659:.\Generated_Source\PSoC5/CapSense_CSD_CSHL.c ****         if(CapSense_CSD_CheckIsSensorActive(rawIndex) != 0u)
 815              		.loc 1 659 0
ARM GAS  C:\Users\user\AppData\Local\Temp\ccxtGrYL.s 			page 27


 816 001a FB7B     		ldrb	r3, [r7, #15]	@ zero_extendqisi2
 817 001c 1846     		mov	r0, r3
 818 001e FFF7FEFF 		bl	CapSense_CSD_CheckIsSensorActive
 819 0022 0346     		mov	r3, r0
 820 0024 002B     		cmp	r3, #0
 821 0026 01D0     		beq	.L46
 660:.\Generated_Source\PSoC5/CapSense_CSD_CSHL.c ****         {
 661:.\Generated_Source\PSoC5/CapSense_CSD_CSHL.c ****             state = CapSense_CSD_SENSOR_1_IS_ACTIVE;
 822              		.loc 1 661 0
 823 0028 0123     		movs	r3, #1
 824 002a BB73     		strb	r3, [r7, #14]
 825              	.L46:
 662:.\Generated_Source\PSoC5/CapSense_CSD_CSHL.c ****         }
 663:.\Generated_Source\PSoC5/CapSense_CSD_CSHL.c ****         rawIndex++;
 826              		.loc 1 663 0
 827 002c FB7B     		ldrb	r3, [r7, #15]	@ zero_extendqisi2
 828 002e 0133     		adds	r3, r3, #1
 829 0030 FB73     		strb	r3, [r7, #15]
 664:.\Generated_Source\PSoC5/CapSense_CSD_CSHL.c ****     }
 665:.\Generated_Source\PSoC5/CapSense_CSD_CSHL.c ****     while(rawIndex < numberOfSensors);
 830              		.loc 1 665 0
 831 0032 FA7B     		ldrb	r2, [r7, #15]	@ zero_extendqisi2
 832 0034 7B7B     		ldrb	r3, [r7, #13]	@ zero_extendqisi2
 833 0036 9A42     		cmp	r2, r3
 834 0038 EFD3     		bcc	.L47
 666:.\Generated_Source\PSoC5/CapSense_CSD_CSHL.c ****     
 667:.\Generated_Source\PSoC5/CapSense_CSD_CSHL.c **** 
 668:.\Generated_Source\PSoC5/CapSense_CSD_CSHL.c ****     
 669:.\Generated_Source\PSoC5/CapSense_CSD_CSHL.c ****     return (state);
 835              		.loc 1 669 0
 836 003a BB7B     		ldrb	r3, [r7, #14]	@ zero_extendqisi2
 670:.\Generated_Source\PSoC5/CapSense_CSD_CSHL.c **** }
 837              		.loc 1 670 0
 838 003c 1846     		mov	r0, r3
 839 003e 1037     		adds	r7, r7, #16
 840              		.cfi_def_cfa_offset 8
 841 0040 BD46     		mov	sp, r7
 842              		.cfi_def_cfa_register 13
 843              		@ sp needed
 844 0042 80BD     		pop	{r7, pc}
 845              		.cfi_endproc
 846              	.LFE7:
 847              		.size	CapSense_CSD_CheckIsWidgetActive, .-CapSense_CSD_CheckIsWidgetActive
 848              		.section	.text.CapSense_CSD_CheckIsAnyWidgetActive,"ax",%progbits
 849              		.align	2
 850              		.global	CapSense_CSD_CheckIsAnyWidgetActive
 851              		.thumb
 852              		.thumb_func
 853              		.type	CapSense_CSD_CheckIsAnyWidgetActive, %function
 854              	CapSense_CSD_CheckIsAnyWidgetActive:
 855              	.LFB8:
 671:.\Generated_Source\PSoC5/CapSense_CSD_CSHL.c **** 
 672:.\Generated_Source\PSoC5/CapSense_CSD_CSHL.c **** 
 673:.\Generated_Source\PSoC5/CapSense_CSD_CSHL.c **** /*******************************************************************************
 674:.\Generated_Source\PSoC5/CapSense_CSD_CSHL.c **** * Function Name: CapSense_CSD_CheckIsAnyWidgetActive
 675:.\Generated_Source\PSoC5/CapSense_CSD_CSHL.c **** ********************************************************************************
 676:.\Generated_Source\PSoC5/CapSense_CSD_CSHL.c **** *
ARM GAS  C:\Users\user\AppData\Local\Temp\ccxtGrYL.s 			page 28


 677:.\Generated_Source\PSoC5/CapSense_CSD_CSHL.c **** * Summary:
 678:.\Generated_Source\PSoC5/CapSense_CSD_CSHL.c **** *  Compares all sensors of the CapSense_CSD_signal[] array to their finger 
 679:.\Generated_Source\PSoC5/CapSense_CSD_CSHL.c **** *  threshold. Calls CapSense_CSD_CheckIsWidgetActive() for each widget so 
 680:.\Generated_Source\PSoC5/CapSense_CSD_CSHL.c **** *  the CapSense_CSD_SensorOnMask[] array is up to date after calling this 
 681:.\Generated_Source\PSoC5/CapSense_CSD_CSHL.c **** *  function.
 682:.\Generated_Source\PSoC5/CapSense_CSD_CSHL.c **** *
 683:.\Generated_Source\PSoC5/CapSense_CSD_CSHL.c **** * Parameters:
 684:.\Generated_Source\PSoC5/CapSense_CSD_CSHL.c **** *  widget:  widget number.
 685:.\Generated_Source\PSoC5/CapSense_CSD_CSHL.c **** *
 686:.\Generated_Source\PSoC5/CapSense_CSD_CSHL.c **** * Return:
 687:.\Generated_Source\PSoC5/CapSense_CSD_CSHL.c **** *  Returns 1 if any widget is active, 0 none of widgets are active.
 688:.\Generated_Source\PSoC5/CapSense_CSD_CSHL.c **** *
 689:.\Generated_Source\PSoC5/CapSense_CSD_CSHL.c **** * Reentrant:
 690:.\Generated_Source\PSoC5/CapSense_CSD_CSHL.c **** *  No
 691:.\Generated_Source\PSoC5/CapSense_CSD_CSHL.c **** *
 692:.\Generated_Source\PSoC5/CapSense_CSD_CSHL.c **** *******************************************************************************/
 693:.\Generated_Source\PSoC5/CapSense_CSD_CSHL.c **** uint8 CapSense_CSD_CheckIsAnyWidgetActive(void)
 694:.\Generated_Source\PSoC5/CapSense_CSD_CSHL.c ****                                  
 695:.\Generated_Source\PSoC5/CapSense_CSD_CSHL.c **** {
 856              		.loc 1 695 0
 857              		.cfi_startproc
 858              		@ args = 0, pretend = 0, frame = 8
 859              		@ frame_needed = 1, uses_anonymous_args = 0
 860 0000 80B5     		push	{r7, lr}
 861              		.cfi_def_cfa_offset 8
 862              		.cfi_offset 7, -8
 863              		.cfi_offset 14, -4
 864 0002 82B0     		sub	sp, sp, #8
 865              		.cfi_def_cfa_offset 16
 866 0004 00AF     		add	r7, sp, #0
 867              		.cfi_def_cfa_register 7
 696:.\Generated_Source\PSoC5/CapSense_CSD_CSHL.c ****     uint8 i;
 697:.\Generated_Source\PSoC5/CapSense_CSD_CSHL.c ****     uint8 state = 0u;
 868              		.loc 1 697 0
 869 0006 0023     		movs	r3, #0
 870 0008 BB71     		strb	r3, [r7, #6]
 698:.\Generated_Source\PSoC5/CapSense_CSD_CSHL.c ****     
 699:.\Generated_Source\PSoC5/CapSense_CSD_CSHL.c ****     for(i = 0u; i < CapSense_CSD_TOTAL_WIDGET_COUNT; i++)
 871              		.loc 1 699 0
 872 000a 0023     		movs	r3, #0
 873 000c FB71     		strb	r3, [r7, #7]
 874 000e 0BE0     		b	.L50
 875              	.L52:
 700:.\Generated_Source\PSoC5/CapSense_CSD_CSHL.c ****     {
 701:.\Generated_Source\PSoC5/CapSense_CSD_CSHL.c ****         if (CapSense_CSD_CheckIsWidgetActive(i) != 0u)
 876              		.loc 1 701 0
 877 0010 FB79     		ldrb	r3, [r7, #7]	@ zero_extendqisi2
 878 0012 1846     		mov	r0, r3
 879 0014 FFF7FEFF 		bl	CapSense_CSD_CheckIsWidgetActive
 880 0018 0346     		mov	r3, r0
 881 001a 002B     		cmp	r3, #0
 882 001c 01D0     		beq	.L51
 702:.\Generated_Source\PSoC5/CapSense_CSD_CSHL.c ****         {
 703:.\Generated_Source\PSoC5/CapSense_CSD_CSHL.c ****             state = CapSense_CSD_WIDGET_IS_ACTIVE;
 883              		.loc 1 703 0
 884 001e 0123     		movs	r3, #1
 885 0020 BB71     		strb	r3, [r7, #6]
ARM GAS  C:\Users\user\AppData\Local\Temp\ccxtGrYL.s 			page 29


 886              	.L51:
 699:.\Generated_Source\PSoC5/CapSense_CSD_CSHL.c ****     {
 887              		.loc 1 699 0 discriminator 2
 888 0022 FB79     		ldrb	r3, [r7, #7]	@ zero_extendqisi2
 889 0024 0133     		adds	r3, r3, #1
 890 0026 FB71     		strb	r3, [r7, #7]
 891              	.L50:
 699:.\Generated_Source\PSoC5/CapSense_CSD_CSHL.c ****     {
 892              		.loc 1 699 0 is_stmt 0 discriminator 1
 893 0028 FB79     		ldrb	r3, [r7, #7]	@ zero_extendqisi2
 894 002a 002B     		cmp	r3, #0
 895 002c F0D0     		beq	.L52
 704:.\Generated_Source\PSoC5/CapSense_CSD_CSHL.c ****         }
 705:.\Generated_Source\PSoC5/CapSense_CSD_CSHL.c ****     }
 706:.\Generated_Source\PSoC5/CapSense_CSD_CSHL.c ****     
 707:.\Generated_Source\PSoC5/CapSense_CSD_CSHL.c **** 
 708:.\Generated_Source\PSoC5/CapSense_CSD_CSHL.c ****     return (state);
 896              		.loc 1 708 0 is_stmt 1
 897 002e BB79     		ldrb	r3, [r7, #6]	@ zero_extendqisi2
 709:.\Generated_Source\PSoC5/CapSense_CSD_CSHL.c **** }
 898              		.loc 1 709 0
 899 0030 1846     		mov	r0, r3
 900 0032 0837     		adds	r7, r7, #8
 901              		.cfi_def_cfa_offset 8
 902 0034 BD46     		mov	sp, r7
 903              		.cfi_def_cfa_register 13
 904              		@ sp needed
 905 0036 80BD     		pop	{r7, pc}
 906              		.cfi_endproc
 907              	.LFE8:
 908              		.size	CapSense_CSD_CheckIsAnyWidgetActive, .-CapSense_CSD_CheckIsAnyWidgetActive
 909              		.section	.text.CapSense_CSD_EnableWidget,"ax",%progbits
 910              		.align	2
 911              		.global	CapSense_CSD_EnableWidget
 912              		.thumb
 913              		.thumb_func
 914              		.type	CapSense_CSD_EnableWidget, %function
 915              	CapSense_CSD_EnableWidget:
 916              	.LFB9:
 710:.\Generated_Source\PSoC5/CapSense_CSD_CSHL.c **** 
 711:.\Generated_Source\PSoC5/CapSense_CSD_CSHL.c **** 
 712:.\Generated_Source\PSoC5/CapSense_CSD_CSHL.c **** /*******************************************************************************
 713:.\Generated_Source\PSoC5/CapSense_CSD_CSHL.c **** * Function Name: CapSense_CSD_EnableWidget
 714:.\Generated_Source\PSoC5/CapSense_CSD_CSHL.c **** ********************************************************************************
 715:.\Generated_Source\PSoC5/CapSense_CSD_CSHL.c **** *
 716:.\Generated_Source\PSoC5/CapSense_CSD_CSHL.c **** * Summary:
 717:.\Generated_Source\PSoC5/CapSense_CSD_CSHL.c **** *  Enable all widget elements (sensors) to scanning process.
 718:.\Generated_Source\PSoC5/CapSense_CSD_CSHL.c **** *
 719:.\Generated_Source\PSoC5/CapSense_CSD_CSHL.c **** * Parameters:
 720:.\Generated_Source\PSoC5/CapSense_CSD_CSHL.c **** *  widget:  widget number.
 721:.\Generated_Source\PSoC5/CapSense_CSD_CSHL.c **** *
 722:.\Generated_Source\PSoC5/CapSense_CSD_CSHL.c **** * Return:
 723:.\Generated_Source\PSoC5/CapSense_CSD_CSHL.c **** *  None
 724:.\Generated_Source\PSoC5/CapSense_CSD_CSHL.c **** *
 725:.\Generated_Source\PSoC5/CapSense_CSD_CSHL.c **** * Global Variables:
 726:.\Generated_Source\PSoC5/CapSense_CSD_CSHL.c **** *  CapSense_CSD_sensorEnableMask[] - used to store the sensor scanning 
 727:.\Generated_Source\PSoC5/CapSense_CSD_CSHL.c **** *  state.
ARM GAS  C:\Users\user\AppData\Local\Temp\ccxtGrYL.s 			page 30


 728:.\Generated_Source\PSoC5/CapSense_CSD_CSHL.c **** *  CapSense_CSD_sensorEnableMask[0] contains the masked bits for sensors 
 729:.\Generated_Source\PSoC5/CapSense_CSD_CSHL.c **** *  0 through 7 (sensor 0 is bit 0, sensor 1 is bit 1).
 730:.\Generated_Source\PSoC5/CapSense_CSD_CSHL.c **** *  CapSense_CSD_sensorEnableMask[1] contains the masked bits for 
 731:.\Generated_Source\PSoC5/CapSense_CSD_CSHL.c **** *  sensors 8 through 15 (if needed), and so on.
 732:.\Generated_Source\PSoC5/CapSense_CSD_CSHL.c **** *  0 - sensor doesn't scan by CapSense_CSD_ScanEnabledWidgets().
 733:.\Generated_Source\PSoC5/CapSense_CSD_CSHL.c **** *  1 - sensor scans by CapSense_CSD_ScanEnabledWidgets().
 734:.\Generated_Source\PSoC5/CapSense_CSD_CSHL.c **** *
 735:.\Generated_Source\PSoC5/CapSense_CSD_CSHL.c **** * Reentrant:
 736:.\Generated_Source\PSoC5/CapSense_CSD_CSHL.c **** *  No
 737:.\Generated_Source\PSoC5/CapSense_CSD_CSHL.c **** *
 738:.\Generated_Source\PSoC5/CapSense_CSD_CSHL.c **** *******************************************************************************/
 739:.\Generated_Source\PSoC5/CapSense_CSD_CSHL.c **** void CapSense_CSD_EnableWidget(uint8 widget)
 740:.\Generated_Source\PSoC5/CapSense_CSD_CSHL.c ****                                    
 741:.\Generated_Source\PSoC5/CapSense_CSD_CSHL.c **** {
 917              		.loc 1 741 0
 918              		.cfi_startproc
 919              		@ args = 0, pretend = 0, frame = 16
 920              		@ frame_needed = 1, uses_anonymous_args = 0
 921              		@ link register save eliminated.
 922 0000 80B4     		push	{r7}
 923              		.cfi_def_cfa_offset 4
 924              		.cfi_offset 7, -4
 925 0002 85B0     		sub	sp, sp, #20
 926              		.cfi_def_cfa_offset 24
 927 0004 00AF     		add	r7, sp, #0
 928              		.cfi_def_cfa_register 7
 929 0006 0346     		mov	r3, r0
 930 0008 FB71     		strb	r3, [r7, #7]
 742:.\Generated_Source\PSoC5/CapSense_CSD_CSHL.c ****     uint8 pos;
 743:.\Generated_Source\PSoC5/CapSense_CSD_CSHL.c ****     uint8 enMask;
 744:.\Generated_Source\PSoC5/CapSense_CSD_CSHL.c ****     uint8 rawIndex = CapSense_CSD_rawDataIndex[widget];
 931              		.loc 1 744 0
 932 000a 0023     		movs	r3, #0
 933 000c FB73     		strb	r3, [r7, #15]
 745:.\Generated_Source\PSoC5/CapSense_CSD_CSHL.c ****     uint8 numberOfSensors = CapSense_CSD_numberOfSensors[widget] + rawIndex;
 934              		.loc 1 745 0
 935 000e 0122     		movs	r2, #1
 936 0010 FB7B     		ldrb	r3, [r7, #15]
 937 0012 1344     		add	r3, r3, r2
 938 0014 BB73     		strb	r3, [r7, #14]
 939              	.L55:
 746:.\Generated_Source\PSoC5/CapSense_CSD_CSHL.c ****     
 747:.\Generated_Source\PSoC5/CapSense_CSD_CSHL.c ****     /* Enable all sensors of the widget */
 748:.\Generated_Source\PSoC5/CapSense_CSD_CSHL.c ****     do
 749:.\Generated_Source\PSoC5/CapSense_CSD_CSHL.c ****     {
 750:.\Generated_Source\PSoC5/CapSense_CSD_CSHL.c ****         pos = (rawIndex >> 3u);
 940              		.loc 1 750 0 discriminator 1
 941 0016 FB7B     		ldrb	r3, [r7, #15]	@ zero_extendqisi2
 942 0018 DB08     		lsrs	r3, r3, #3
 943 001a 7B73     		strb	r3, [r7, #13]
 751:.\Generated_Source\PSoC5/CapSense_CSD_CSHL.c ****         enMask = 0x01u << (rawIndex & 0x07u);
 944              		.loc 1 751 0 discriminator 1
 945 001c FB7B     		ldrb	r3, [r7, #15]	@ zero_extendqisi2
 946 001e 03F00703 		and	r3, r3, #7
 947 0022 0122     		movs	r2, #1
 948 0024 02FA03F3 		lsl	r3, r2, r3
 949 0028 3B73     		strb	r3, [r7, #12]
ARM GAS  C:\Users\user\AppData\Local\Temp\ccxtGrYL.s 			page 31


 752:.\Generated_Source\PSoC5/CapSense_CSD_CSHL.c ****         
 753:.\Generated_Source\PSoC5/CapSense_CSD_CSHL.c ****         CapSense_CSD_sensorEnableMask[pos] |= enMask;
 950              		.loc 1 753 0 discriminator 1
 951 002a 7B7B     		ldrb	r3, [r7, #13]	@ zero_extendqisi2
 952 002c 7A7B     		ldrb	r2, [r7, #13]	@ zero_extendqisi2
 953 002e 0949     		ldr	r1, .L56
 954 0030 895C     		ldrb	r1, [r1, r2]	@ zero_extendqisi2
 955 0032 3A7B     		ldrb	r2, [r7, #12]
 956 0034 0A43     		orrs	r2, r2, r1
 957 0036 D1B2     		uxtb	r1, r2
 958 0038 064A     		ldr	r2, .L56
 959 003a D154     		strb	r1, [r2, r3]
 754:.\Generated_Source\PSoC5/CapSense_CSD_CSHL.c ****         rawIndex++;
 960              		.loc 1 754 0 discriminator 1
 961 003c FB7B     		ldrb	r3, [r7, #15]	@ zero_extendqisi2
 962 003e 0133     		adds	r3, r3, #1
 963 0040 FB73     		strb	r3, [r7, #15]
 755:.\Generated_Source\PSoC5/CapSense_CSD_CSHL.c ****     }
 756:.\Generated_Source\PSoC5/CapSense_CSD_CSHL.c ****     while(rawIndex < numberOfSensors);
 964              		.loc 1 756 0 discriminator 1
 965 0042 FA7B     		ldrb	r2, [r7, #15]	@ zero_extendqisi2
 966 0044 BB7B     		ldrb	r3, [r7, #14]	@ zero_extendqisi2
 967 0046 9A42     		cmp	r2, r3
 968 0048 E5D3     		bcc	.L55
 757:.\Generated_Source\PSoC5/CapSense_CSD_CSHL.c ****     
 758:.\Generated_Source\PSoC5/CapSense_CSD_CSHL.c **** 
 759:.\Generated_Source\PSoC5/CapSense_CSD_CSHL.c **** }
 969              		.loc 1 759 0
 970 004a 1437     		adds	r7, r7, #20
 971              		.cfi_def_cfa_offset 4
 972 004c BD46     		mov	sp, r7
 973              		.cfi_def_cfa_register 13
 974              		@ sp needed
 975 004e 5DF8047B 		ldr	r7, [sp], #4
 976              		.cfi_restore 7
 977              		.cfi_def_cfa_offset 0
 978 0052 7047     		bx	lr
 979              	.L57:
 980              		.align	2
 981              	.L56:
 982 0054 00000000 		.word	CapSense_CSD_sensorEnableMask
 983              		.cfi_endproc
 984              	.LFE9:
 985              		.size	CapSense_CSD_EnableWidget, .-CapSense_CSD_EnableWidget
 986              		.section	.text.CapSense_CSD_DisableWidget,"ax",%progbits
 987              		.align	2
 988              		.global	CapSense_CSD_DisableWidget
 989              		.thumb
 990              		.thumb_func
 991              		.type	CapSense_CSD_DisableWidget, %function
 992              	CapSense_CSD_DisableWidget:
 993              	.LFB10:
 760:.\Generated_Source\PSoC5/CapSense_CSD_CSHL.c **** 
 761:.\Generated_Source\PSoC5/CapSense_CSD_CSHL.c **** 
 762:.\Generated_Source\PSoC5/CapSense_CSD_CSHL.c **** /*******************************************************************************
 763:.\Generated_Source\PSoC5/CapSense_CSD_CSHL.c **** * Function Name: CapSense_CSD_DisableWidget
 764:.\Generated_Source\PSoC5/CapSense_CSD_CSHL.c **** ********************************************************************************
ARM GAS  C:\Users\user\AppData\Local\Temp\ccxtGrYL.s 			page 32


 765:.\Generated_Source\PSoC5/CapSense_CSD_CSHL.c **** *
 766:.\Generated_Source\PSoC5/CapSense_CSD_CSHL.c **** * Summary:
 767:.\Generated_Source\PSoC5/CapSense_CSD_CSHL.c **** *  Disable all widget elements (sensors) from scanning process.
 768:.\Generated_Source\PSoC5/CapSense_CSD_CSHL.c **** *
 769:.\Generated_Source\PSoC5/CapSense_CSD_CSHL.c **** * Parameters:
 770:.\Generated_Source\PSoC5/CapSense_CSD_CSHL.c **** *  widget:  widget number.
 771:.\Generated_Source\PSoC5/CapSense_CSD_CSHL.c **** *
 772:.\Generated_Source\PSoC5/CapSense_CSD_CSHL.c **** * Return:
 773:.\Generated_Source\PSoC5/CapSense_CSD_CSHL.c **** *  None
 774:.\Generated_Source\PSoC5/CapSense_CSD_CSHL.c **** *
 775:.\Generated_Source\PSoC5/CapSense_CSD_CSHL.c **** * Global Variables:
 776:.\Generated_Source\PSoC5/CapSense_CSD_CSHL.c **** *  CapSense_CSD_sensorEnableMask[] - used to store the sensor scanning 
 777:.\Generated_Source\PSoC5/CapSense_CSD_CSHL.c **** *  state.
 778:.\Generated_Source\PSoC5/CapSense_CSD_CSHL.c **** *  CapSense_CSD_sensorEnableMask[0] contains the masked bits for sensors 
 779:.\Generated_Source\PSoC5/CapSense_CSD_CSHL.c **** *  0 through 7 (sensor 0 is bit 0, sensor 1 is bit 1).
 780:.\Generated_Source\PSoC5/CapSense_CSD_CSHL.c **** *  CapSense_CSD_sensorEnableMask[1] contains the masked bits for 
 781:.\Generated_Source\PSoC5/CapSense_CSD_CSHL.c **** *  sensors 8 through 15 (if needed), and so on.
 782:.\Generated_Source\PSoC5/CapSense_CSD_CSHL.c **** *  0 - sensor doesn't scan by CapSense_CSD_ScanEnabledWidgets().
 783:.\Generated_Source\PSoC5/CapSense_CSD_CSHL.c **** *  1 - sensor scans by CapSense_CSD_ScanEnabledWidgets().
 784:.\Generated_Source\PSoC5/CapSense_CSD_CSHL.c **** *
 785:.\Generated_Source\PSoC5/CapSense_CSD_CSHL.c **** * Reentrant:
 786:.\Generated_Source\PSoC5/CapSense_CSD_CSHL.c **** *  No
 787:.\Generated_Source\PSoC5/CapSense_CSD_CSHL.c **** *
 788:.\Generated_Source\PSoC5/CapSense_CSD_CSHL.c **** *******************************************************************************/
 789:.\Generated_Source\PSoC5/CapSense_CSD_CSHL.c **** void CapSense_CSD_DisableWidget(uint8 widget)
 790:.\Generated_Source\PSoC5/CapSense_CSD_CSHL.c ****                                     
 791:.\Generated_Source\PSoC5/CapSense_CSD_CSHL.c **** {
 994              		.loc 1 791 0
 995              		.cfi_startproc
 996              		@ args = 0, pretend = 0, frame = 16
 997              		@ frame_needed = 1, uses_anonymous_args = 0
 998              		@ link register save eliminated.
 999 0000 80B4     		push	{r7}
 1000              		.cfi_def_cfa_offset 4
 1001              		.cfi_offset 7, -4
 1002 0002 85B0     		sub	sp, sp, #20
 1003              		.cfi_def_cfa_offset 24
 1004 0004 00AF     		add	r7, sp, #0
 1005              		.cfi_def_cfa_register 7
 1006 0006 0346     		mov	r3, r0
 1007 0008 FB71     		strb	r3, [r7, #7]
 792:.\Generated_Source\PSoC5/CapSense_CSD_CSHL.c ****     uint8 pos;
 793:.\Generated_Source\PSoC5/CapSense_CSD_CSHL.c ****     uint8 enMask;
 794:.\Generated_Source\PSoC5/CapSense_CSD_CSHL.c ****     uint8 rawIndex = CapSense_CSD_rawDataIndex[widget];
 1008              		.loc 1 794 0
 1009 000a 0023     		movs	r3, #0
 1010 000c FB73     		strb	r3, [r7, #15]
 795:.\Generated_Source\PSoC5/CapSense_CSD_CSHL.c ****     uint8 numberOfSensors = CapSense_CSD_numberOfSensors[widget] + rawIndex;
 1011              		.loc 1 795 0
 1012 000e 0122     		movs	r2, #1
 1013 0010 FB7B     		ldrb	r3, [r7, #15]
 1014 0012 1344     		add	r3, r3, r2
 1015 0014 BB73     		strb	r3, [r7, #14]
 1016              	.L59:
 796:.\Generated_Source\PSoC5/CapSense_CSD_CSHL.c ****    
 797:.\Generated_Source\PSoC5/CapSense_CSD_CSHL.c ****     /* Disable all sensors of the widget */
 798:.\Generated_Source\PSoC5/CapSense_CSD_CSHL.c ****     do
ARM GAS  C:\Users\user\AppData\Local\Temp\ccxtGrYL.s 			page 33


 799:.\Generated_Source\PSoC5/CapSense_CSD_CSHL.c ****     {
 800:.\Generated_Source\PSoC5/CapSense_CSD_CSHL.c ****         pos = (rawIndex >> 3u);
 1017              		.loc 1 800 0 discriminator 1
 1018 0016 FB7B     		ldrb	r3, [r7, #15]	@ zero_extendqisi2
 1019 0018 DB08     		lsrs	r3, r3, #3
 1020 001a 7B73     		strb	r3, [r7, #13]
 801:.\Generated_Source\PSoC5/CapSense_CSD_CSHL.c ****         enMask = 0x01u << (rawIndex & 0x07u);
 1021              		.loc 1 801 0 discriminator 1
 1022 001c FB7B     		ldrb	r3, [r7, #15]	@ zero_extendqisi2
 1023 001e 03F00703 		and	r3, r3, #7
 1024 0022 0122     		movs	r2, #1
 1025 0024 02FA03F3 		lsl	r3, r2, r3
 1026 0028 3B73     		strb	r3, [r7, #12]
 802:.\Generated_Source\PSoC5/CapSense_CSD_CSHL.c ****         
 803:.\Generated_Source\PSoC5/CapSense_CSD_CSHL.c ****         CapSense_CSD_sensorEnableMask[pos] &= (uint8)~enMask;
 1027              		.loc 1 803 0 discriminator 1
 1028 002a 7B7B     		ldrb	r3, [r7, #13]	@ zero_extendqisi2
 1029 002c 7A7B     		ldrb	r2, [r7, #13]	@ zero_extendqisi2
 1030 002e 0A49     		ldr	r1, .L60
 1031 0030 895C     		ldrb	r1, [r1, r2]	@ zero_extendqisi2
 1032 0032 3A7B     		ldrb	r2, [r7, #12]
 1033 0034 D243     		mvns	r2, r2
 1034 0036 D2B2     		uxtb	r2, r2
 1035 0038 0A40     		ands	r2, r2, r1
 1036 003a D1B2     		uxtb	r1, r2
 1037 003c 064A     		ldr	r2, .L60
 1038 003e D154     		strb	r1, [r2, r3]
 804:.\Generated_Source\PSoC5/CapSense_CSD_CSHL.c ****         rawIndex++;
 1039              		.loc 1 804 0 discriminator 1
 1040 0040 FB7B     		ldrb	r3, [r7, #15]	@ zero_extendqisi2
 1041 0042 0133     		adds	r3, r3, #1
 1042 0044 FB73     		strb	r3, [r7, #15]
 805:.\Generated_Source\PSoC5/CapSense_CSD_CSHL.c ****     }
 806:.\Generated_Source\PSoC5/CapSense_CSD_CSHL.c ****     while(rawIndex < numberOfSensors);
 1043              		.loc 1 806 0 discriminator 1
 1044 0046 FA7B     		ldrb	r2, [r7, #15]	@ zero_extendqisi2
 1045 0048 BB7B     		ldrb	r3, [r7, #14]	@ zero_extendqisi2
 1046 004a 9A42     		cmp	r2, r3
 1047 004c E3D3     		bcc	.L59
 807:.\Generated_Source\PSoC5/CapSense_CSD_CSHL.c ****     
 808:.\Generated_Source\PSoC5/CapSense_CSD_CSHL.c **** 
 809:.\Generated_Source\PSoC5/CapSense_CSD_CSHL.c **** }
 1048              		.loc 1 809 0
 1049 004e 1437     		adds	r7, r7, #20
 1050              		.cfi_def_cfa_offset 4
 1051 0050 BD46     		mov	sp, r7
 1052              		.cfi_def_cfa_register 13
 1053              		@ sp needed
 1054 0052 5DF8047B 		ldr	r7, [sp], #4
 1055              		.cfi_restore 7
 1056              		.cfi_def_cfa_offset 0
 1057 0056 7047     		bx	lr
 1058              	.L61:
 1059              		.align	2
 1060              	.L60:
 1061 0058 00000000 		.word	CapSense_CSD_sensorEnableMask
 1062              		.cfi_endproc
ARM GAS  C:\Users\user\AppData\Local\Temp\ccxtGrYL.s 			page 34


 1063              	.LFE10:
 1064              		.size	CapSense_CSD_DisableWidget, .-CapSense_CSD_DisableWidget
 1065              		.text
 1066              	.Letext0:
 1067              		.file 2 ".\\Generated_Source\\PSoC5\\cytypes.h"
 1068              		.file 3 ".\\Generated_Source\\PSoC5\\CapSense_CSD.h"
 1069              		.file 4 ".\\Generated_Source\\PSoC5\\CapSense_CSD_CSHL.h"