ARM GAS  C:\Users\user\AppData\Local\Temp\ccsueqGw.s 			page 1


   1              		.syntax unified
   2              		.cpu cortex-m3
   3              		.fpu softvfp
   4              		.eabi_attribute 20, 1
   5              		.eabi_attribute 21, 1
   6              		.eabi_attribute 23, 3
   7              		.eabi_attribute 24, 1
   8              		.eabi_attribute 25, 1
   9              		.eabi_attribute 26, 1
  10              		.eabi_attribute 30, 1
  11              		.eabi_attribute 34, 1
  12              		.eabi_attribute 18, 4
  13              		.thumb
  14              		.file	"main.c"
  15              		.text
  16              	.Ltext0:
  17              		.cfi_sections	.debug_frame
  18              		.section	.text.main,"ax",%progbits
  19              		.align	2
  20              		.global	main
  21              		.thumb
  22              		.thumb_func
  23              		.type	main, %function
  24              	main:
  25              	.LFB63:
  26              		.file 1 ".\\main.c"
   1:.\main.c      **** /* ========================================
   2:.\main.c      ****  *
   3:.\main.c      ****  * Copyright YOUR COMPANY, THE YEAR
   4:.\main.c      ****  * All Rights Reserved
   5:.\main.c      ****  * UNPUBLISHED, LICENSED SOFTWARE.
   6:.\main.c      ****  *
   7:.\main.c      ****  * CONFIDENTIAL AND PROPRIETARY INFORMATION
   8:.\main.c      ****  * WHICH IS THE PROPERTY OF your company.
   9:.\main.c      ****  *
  10:.\main.c      ****  * ========================================
  11:.\main.c      **** */
  12:.\main.c      **** // Includes
  13:.\main.c      **** #include <project.h>
  14:.\main.c      **** 
  15:.\main.c      **** // Variable declaration
  16:.\main.c      **** int8_t adc_value; 
  17:.\main.c      **** 
  18:.\main.c      **** // MAIN
  19:.\main.c      **** int main()
  20:.\main.c      **** {
  27              		.loc 1 20 0
  28              		.cfi_startproc
  29              		@ args = 0, pretend = 0, frame = 0
  30              		@ frame_needed = 0, uses_anonymous_args = 0
  31 0000 38B5     		push	{r3, r4, r5, lr}
  32              		.cfi_def_cfa_offset 16
  33              		.cfi_offset 3, -16
  34              		.cfi_offset 4, -12
  35              		.cfi_offset 5, -8
  36              		.cfi_offset 14, -4
  21:.\main.c      ****     //-----------------------//
ARM GAS  C:\Users\user\AppData\Local\Temp\ccsueqGw.s 			page 2


  22:.\main.c      ****     //   START ALL MODULES   //
  23:.\main.c      ****     //-----------------------//
  24:.\main.c      ****     CyGlobalIntEnable; /* Enable global interrupts. */
  37              		.loc 1 24 0
  38              	@ 24 ".\main.c" 1
  39 0002 62B6     		CPSIE   i
  40              	@ 0 "" 2
  25:.\main.c      **** 
  26:.\main.c      ****     // Start ADC  
  27:.\main.c      ****     ADC_DelSig_1_Start();
  41              		.loc 1 27 0
  42              		.thumb
  43 0004 FFF7FEFF 		bl	ADC_DelSig_1_Start
  44              	.LVL0:
  28:.\main.c      ****     
  29:.\main.c      ****     // Start DAC
  30:.\main.c      ****     VDAC8_1_Start();
  45              		.loc 1 30 0
  46 0008 FFF7FEFF 		bl	VDAC8_1_Start
  47              	.LVL1:
  31:.\main.c      ****     
  32:.\main.c      ****     //-----------------------//
  33:.\main.c      ****     //    INITIALIZATION     //
  34:.\main.c      ****     //-----------------------//
  35:.\main.c      ****     //Start ADC conversion
  36:.\main.c      ****     ADC_DelSig_1_StartConvert();
  48              		.loc 1 36 0
  49 000c FFF7FEFF 		bl	ADC_DelSig_1_StartConvert
  50              	.LVL2:
  37:.\main.c      ****     
  38:.\main.c      ****     // Configure DMA
  39:.\main.c      ****     /* Defines for DMA_1 */
  40:.\main.c      ****     #define DMA_1_BYTES_PER_BURST 1
  41:.\main.c      ****     #define DMA_1_REQUEST_PER_BURST 1
  42:.\main.c      ****     #define DMA_1_SRC_BASE (CYDEV_PERIPH_BASE)
  43:.\main.c      ****     #define DMA_1_DST_BASE (CYDEV_PERIPH_BASE)
  44:.\main.c      **** 
  45:.\main.c      ****     /* Variable declarations for DMA_1 */
  46:.\main.c      ****     /* Move these variable declarations to the top of the function */
  47:.\main.c      ****     uint8 DMA_1_Chan;
  48:.\main.c      ****     uint8 DMA_1_TD[1];
  49:.\main.c      **** 
  50:.\main.c      ****     /* DMA Configuration for DMA_1 */
  51:.\main.c      ****     DMA_1_Chan = DMA_1_DmaInitialize(DMA_1_BYTES_PER_BURST, DMA_1_REQUEST_PER_BURST, 
  51              		.loc 1 51 0
  52 0010 0120     		movs	r0, #1
  53 0012 0146     		mov	r1, r0
  54 0014 4FF48042 		mov	r2, #16384
  55 0018 1346     		mov	r3, r2
  56 001a FFF7FEFF 		bl	DMA_1_DmaInitialize
  57              	.LVL3:
  58 001e C5B2     		uxtb	r5, r0
  59              	.LVL4:
  52:.\main.c      ****                                      HI16(DMA_1_SRC_BASE), HI16(DMA_1_DST_BASE));
  53:.\main.c      ****     DMA_1_TD[0] = CyDmaTdAllocate();
  60              		.loc 1 53 0
  61 0020 FFF7FEFF 		bl	CyDmaTdAllocate
ARM GAS  C:\Users\user\AppData\Local\Temp\ccsueqGw.s 			page 3


  62              	.LVL5:
  63 0024 0446     		mov	r4, r0
  54:.\main.c      ****     CyDmaTdSetConfiguration(DMA_1_TD[0], 1, DMA_1_TD[0], 0);
  64              		.loc 1 54 0
  65 0026 0121     		movs	r1, #1
  66 0028 0246     		mov	r2, r0
  67 002a 0023     		movs	r3, #0
  68 002c FFF7FEFF 		bl	CyDmaTdSetConfiguration
  69              	.LVL6:
  55:.\main.c      ****     CyDmaTdSetAddress(DMA_1_TD[0], LO16((uint32)ADC_DelSig_1_DEC_SAMP_PTR), LO16((uint32)VDAC8_1_Da
  70              		.loc 1 55 0
  71 0030 2046     		mov	r0, r4
  72 0032 44F61061 		movw	r1, #19984
  73 0036 4FF4B742 		mov	r2, #23424
  74 003a FFF7FEFF 		bl	CyDmaTdSetAddress
  75              	.LVL7:
  56:.\main.c      ****     CyDmaChSetInitialTd(DMA_1_Chan, DMA_1_TD[0]);
  76              		.loc 1 56 0
  77 003e 2846     		mov	r0, r5
  78 0040 2146     		mov	r1, r4
  79 0042 FFF7FEFF 		bl	CyDmaChSetInitialTd
  80              	.LVL8:
  57:.\main.c      ****     CyDmaChEnable(DMA_1_Chan, 1);
  81              		.loc 1 57 0
  82 0046 2846     		mov	r0, r5
  83 0048 0121     		movs	r1, #1
  84 004a FFF7FEFF 		bl	CyDmaChEnable
  85              	.LVL9:
  86              	.L2:
  58:.\main.c      **** 
  59:.\main.c      ****     //-----------------------//
  60:.\main.c      ****     //     INIFINIT LOOP     //
  61:.\main.c      ****     //-----------------------//
  62:.\main.c      ****     for(;;)
  63:.\main.c      ****     {
  64:.\main.c      ****         // Nothing to do here 
  65:.\main.c      ****     }
  87              		.loc 1 65 0 discriminator 1
  88 004e FEE7     		b	.L2
  89              		.cfi_endproc
  90              	.LFE63:
  91              		.size	main, .-main
  92              		.comm	adc_value,1,1
  93              		.text
  94              	.Letext0:
  95              		.file 2 "c:\\program files (x86)\\cypress\\psoc creator\\3.3\\psoc creator\\import\\gnu\\arm\\4.9.
  96              		.file 3 "c:\\program files (x86)\\cypress\\psoc creator\\3.3\\psoc creator\\import\\gnu\\arm\\4.9.
  97              		.file 4 "Generated_Source\\PSoC5/cytypes.h"
  98              		.file 5 "Generated_Source\\PSoC5/core_cm3.h"
  99              		.file 6 "Generated_Source\\PSoC5/ADC_DelSig_1.h"
 100              		.file 7 "Generated_Source\\PSoC5/VDAC8_1.h"
 101              		.file 8 "Generated_Source\\PSoC5/CyDmac.h"