ARM GAS  C:\Users\user\AppData\Local\Temp\ccIuCCF2.s 			page 1


   1              		.syntax unified
   2              		.cpu cortex-m3
   3              		.fpu softvfp
   4              		.eabi_attribute 20, 1
   5              		.eabi_attribute 21, 1
   6              		.eabi_attribute 23, 3
   7              		.eabi_attribute 24, 1
   8              		.eabi_attribute 25, 1
   9              		.eabi_attribute 26, 1
  10              		.eabi_attribute 30, 1
  11              		.eabi_attribute 34, 1
  12              		.eabi_attribute 18, 4
  13              		.thumb
  14              		.file	"main.c"
  15              		.text
  16              	.Ltext0:
  17              		.cfi_sections	.debug_frame
  18              		.section	.text.DMA_1_Config,"ax",%progbits
  19              		.align	2
  20              		.global	DMA_1_Config
  21              		.thumb
  22              		.thumb_func
  23              		.type	DMA_1_Config, %function
  24              	DMA_1_Config:
  25              	.LFB63:
  26              		.file 1 ".\\main.c"
   1:.\main.c      **** /* ========================================
   2:.\main.c      ****  *
   3:.\main.c      ****  * Copyright YOUR COMPANY, THE YEAR
   4:.\main.c      ****  * All Rights Reserved
   5:.\main.c      ****  * UNPUBLISHED, LICENSED SOFTWARE.
   6:.\main.c      ****  *
   7:.\main.c      ****  * CONFIDENTIAL AND PROPRIETARY INFORMATION
   8:.\main.c      ****  * WHICH IS THE PROPERTY OF your company.
   9:.\main.c      ****  *
  10:.\main.c      ****  * ========================================
  11:.\main.c      **** */
  12:.\main.c      **** // Includes
  13:.\main.c      **** #include <project.h>
  14:.\main.c      **** 
  15:.\main.c      **** // Variable declaration
  16:.\main.c      **** int8_t adc_value;
  17:.\main.c      **** 
  18:.\main.c      **** void DMA_1_Config(void)
  19:.\main.c      **** {
  27              		.loc 1 19 0
  28              		.cfi_startproc
  29              		@ args = 0, pretend = 0, frame = 0
  30              		@ frame_needed = 0, uses_anonymous_args = 0
  31 0000 38B5     		push	{r3, r4, r5, lr}
  32              		.cfi_def_cfa_offset 16
  33              		.cfi_offset 3, -16
  34              		.cfi_offset 4, -12
  35              		.cfi_offset 5, -8
  36              		.cfi_offset 14, -4
  20:.\main.c      ****     /* Defines for DMA_1 */
  21:.\main.c      ****     #define DMA_1_BYTES_PER_BURST 1
ARM GAS  C:\Users\user\AppData\Local\Temp\ccIuCCF2.s 			page 2


  22:.\main.c      ****     #define DMA_1_REQUEST_PER_BURST 1
  23:.\main.c      ****     #define DMA_1_SRC_BASE (CYDEV_PERIPH_BASE)
  24:.\main.c      ****     #define DMA_1_DST_BASE (CYDEV_PERIPH_BASE)
  25:.\main.c      **** 
  26:.\main.c      ****     /* Variable declarations for DMA_1 */
  27:.\main.c      ****     /* Move these variable declarations to the top of the function */
  28:.\main.c      ****     uint8 DMA_1_Chan;
  29:.\main.c      ****     uint8 DMA_1_TD[1];
  30:.\main.c      **** 
  31:.\main.c      ****     /* DMA Configuration for DMA_1 */
  32:.\main.c      ****     DMA_1_Chan = DMA_1_DmaInitialize(DMA_1_BYTES_PER_BURST, DMA_1_REQUEST_PER_BURST, 
  37              		.loc 1 32 0
  38 0002 0120     		movs	r0, #1
  39 0004 0146     		mov	r1, r0
  40 0006 4FF48042 		mov	r2, #16384
  41 000a 1346     		mov	r3, r2
  42 000c FFF7FEFF 		bl	DMA_1_DmaInitialize
  43              	.LVL0:
  44 0010 0546     		mov	r5, r0
  45              	.LVL1:
  33:.\main.c      ****         HI16(DMA_1_SRC_BASE), HI16(DMA_1_DST_BASE));
  34:.\main.c      ****     DMA_1_TD[0] = CyDmaTdAllocate();
  46              		.loc 1 34 0
  47 0012 FFF7FEFF 		bl	CyDmaTdAllocate
  48              	.LVL2:
  49 0016 0446     		mov	r4, r0
  35:.\main.c      ****     CyDmaTdSetConfiguration(DMA_1_TD[0], 1, DMA_1_TD[0], 0);
  50              		.loc 1 35 0
  51 0018 0121     		movs	r1, #1
  52 001a 0246     		mov	r2, r0
  53 001c 0023     		movs	r3, #0
  54 001e FFF7FEFF 		bl	CyDmaTdSetConfiguration
  55              	.LVL3:
  36:.\main.c      ****     CyDmaTdSetAddress(DMA_1_TD[0], LO16((uint32)ADC_DelSig_1_DEC_SAMP_PTR), LO16((uint32)Filter_1_S
  56              		.loc 1 36 0
  57 0022 2046     		mov	r0, r4
  58 0024 44F61061 		movw	r1, #19984
  59 0028 4CF2A072 		movw	r2, #51104
  60 002c FFF7FEFF 		bl	CyDmaTdSetAddress
  61              	.LVL4:
  37:.\main.c      ****     CyDmaChSetInitialTd(DMA_1_Chan, DMA_1_TD[0]);
  62              		.loc 1 37 0
  63 0030 2846     		mov	r0, r5
  64 0032 2146     		mov	r1, r4
  65 0034 FFF7FEFF 		bl	CyDmaChSetInitialTd
  66              	.LVL5:
  38:.\main.c      ****     CyDmaChEnable(DMA_1_Chan, 1);
  67              		.loc 1 38 0
  68 0038 2846     		mov	r0, r5
  69 003a 0121     		movs	r1, #1
  70 003c FFF7FEFF 		bl	CyDmaChEnable
  71              	.LVL6:
  72 0040 38BD     		pop	{r3, r4, r5, pc}
  73              		.cfi_endproc
  74              	.LFE63:
  75              		.size	DMA_1_Config, .-DMA_1_Config
  76 0042 00BF     		.section	.text.DMA_2_Config,"ax",%progbits
ARM GAS  C:\Users\user\AppData\Local\Temp\ccIuCCF2.s 			page 3


  77              		.align	2
  78              		.global	DMA_2_Config
  79              		.thumb
  80              		.thumb_func
  81              		.type	DMA_2_Config, %function
  82              	DMA_2_Config:
  83              	.LFB64:
  39:.\main.c      **** }
  40:.\main.c      **** 
  41:.\main.c      **** void DMA_2_Config(void)
  42:.\main.c      **** {
  84              		.loc 1 42 0
  85              		.cfi_startproc
  86              		@ args = 0, pretend = 0, frame = 0
  87              		@ frame_needed = 0, uses_anonymous_args = 0
  88 0000 38B5     		push	{r3, r4, r5, lr}
  89              		.cfi_def_cfa_offset 16
  90              		.cfi_offset 3, -16
  91              		.cfi_offset 4, -12
  92              		.cfi_offset 5, -8
  93              		.cfi_offset 14, -4
  43:.\main.c      ****     /* Defines for DMA_2 */
  44:.\main.c      ****     #define DMA_2_BYTES_PER_BURST 1
  45:.\main.c      ****     #define DMA_2_REQUEST_PER_BURST 1
  46:.\main.c      ****     #define DMA_2_SRC_BASE (CYDEV_PERIPH_BASE)
  47:.\main.c      ****     #define DMA_2_DST_BASE (CYDEV_PERIPH_BASE)
  48:.\main.c      **** 
  49:.\main.c      ****     /* Variable declarations for DMA_2 */
  50:.\main.c      ****     /* Move these variable declarations to the top of the function */
  51:.\main.c      ****     uint8 DMA_2_Chan;
  52:.\main.c      ****     uint8 DMA_2_TD[1];
  53:.\main.c      **** 
  54:.\main.c      ****     /* DMA Configuration for DMA_2 */
  55:.\main.c      ****     DMA_2_Chan = DMA_2_DmaInitialize(DMA_2_BYTES_PER_BURST, DMA_2_REQUEST_PER_BURST, 
  94              		.loc 1 55 0
  95 0002 0120     		movs	r0, #1
  96 0004 0146     		mov	r1, r0
  97 0006 4FF48042 		mov	r2, #16384
  98 000a 1346     		mov	r3, r2
  99 000c FFF7FEFF 		bl	DMA_2_DmaInitialize
 100              	.LVL7:
 101 0010 0546     		mov	r5, r0
 102              	.LVL8:
  56:.\main.c      ****     HI16(DMA_2_SRC_BASE), HI16(DMA_2_DST_BASE));
  57:.\main.c      ****     DMA_2_TD[0] = CyDmaTdAllocate();
 103              		.loc 1 57 0
 104 0012 FFF7FEFF 		bl	CyDmaTdAllocate
 105              	.LVL9:
 106 0016 0446     		mov	r4, r0
  58:.\main.c      ****     CyDmaTdSetConfiguration(DMA_2_TD[0], 1, DMA_2_TD[0], 0);
 107              		.loc 1 58 0
 108 0018 0121     		movs	r1, #1
 109 001a 0246     		mov	r2, r0
 110 001c 0023     		movs	r3, #0
 111 001e FFF7FEFF 		bl	CyDmaTdSetConfiguration
 112              	.LVL10:
  59:.\main.c      ****     CyDmaTdSetAddress(DMA_2_TD[0], LO16((uint32)Filter_1_HOLDA_PTR), LO16((uint32)VDAC8_1_Data_PTR)
ARM GAS  C:\Users\user\AppData\Local\Temp\ccIuCCF2.s 			page 4


 113              		.loc 1 59 0
 114 0022 2046     		mov	r0, r4
 115 0024 4CF2A871 		movw	r1, #51112
 116 0028 4FF4B742 		mov	r2, #23424
 117 002c FFF7FEFF 		bl	CyDmaTdSetAddress
 118              	.LVL11:
  60:.\main.c      ****     CyDmaChSetInitialTd(DMA_2_Chan, DMA_2_TD[0]);
 119              		.loc 1 60 0
 120 0030 2846     		mov	r0, r5
 121 0032 2146     		mov	r1, r4
 122 0034 FFF7FEFF 		bl	CyDmaChSetInitialTd
 123              	.LVL12:
  61:.\main.c      ****     CyDmaChEnable(DMA_2_Chan, 1);
 124              		.loc 1 61 0
 125 0038 2846     		mov	r0, r5
 126 003a 0121     		movs	r1, #1
 127 003c FFF7FEFF 		bl	CyDmaChEnable
 128              	.LVL13:
 129 0040 38BD     		pop	{r3, r4, r5, pc}
 130              		.cfi_endproc
 131              	.LFE64:
 132              		.size	DMA_2_Config, .-DMA_2_Config
 133 0042 00BF     		.section	.text.main,"ax",%progbits
 134              		.align	2
 135              		.global	main
 136              		.thumb
 137              		.thumb_func
 138              		.type	main, %function
 139              	main:
 140              	.LFB65:
  62:.\main.c      **** }
  63:.\main.c      ****     
  64:.\main.c      **** // MAIN
  65:.\main.c      **** int main()
  66:.\main.c      **** {
 141              		.loc 1 66 0
 142              		.cfi_startproc
 143              		@ Volatile: function does not return.
 144              		@ args = 0, pretend = 0, frame = 0
 145              		@ frame_needed = 0, uses_anonymous_args = 0
 146 0000 08B5     		push	{r3, lr}
 147              		.cfi_def_cfa_offset 8
 148              		.cfi_offset 3, -8
 149              		.cfi_offset 14, -4
  67:.\main.c      ****     //-----------------------//
  68:.\main.c      ****     //   START ALL MODULES   //
  69:.\main.c      ****     //-----------------------//
  70:.\main.c      ****     CyGlobalIntEnable; /* Enable global interrupts. */
 150              		.loc 1 70 0
 151              	@ 70 ".\main.c" 1
 152 0002 62B6     		CPSIE   i
 153              	@ 0 "" 2
  71:.\main.c      **** 
  72:.\main.c      ****     // Start ADC  
  73:.\main.c      ****     ADC_DelSig_1_Start();
 154              		.loc 1 73 0
 155              		.thumb
ARM GAS  C:\Users\user\AppData\Local\Temp\ccIuCCF2.s 			page 5


 156 0004 FFF7FEFF 		bl	ADC_DelSig_1_Start
 157              	.LVL14:
  74:.\main.c      ****     
  75:.\main.c      ****     // Start DAC
  76:.\main.c      ****     VDAC8_1_Start();
 158              		.loc 1 76 0
 159 0008 FFF7FEFF 		bl	VDAC8_1_Start
 160              	.LVL15:
  77:.\main.c      ****     
  78:.\main.c      ****     // Start Filter 
  79:.\main.c      ****     Filter_1_Start();
 161              		.loc 1 79 0
 162 000c FFF7FEFF 		bl	Filter_1_Start
 163              	.LVL16:
  80:.\main.c      ****     Filter_1_SetCoherency(Filter_1_CHANNEL_A, Filter_1_KEY_LOW);
 164              		.loc 1 80 0
 165 0010 0020     		movs	r0, #0
 166 0012 0146     		mov	r1, r0
 167 0014 FFF7FEFF 		bl	Filter_1_SetCoherency
 168              	.LVL17:
  81:.\main.c      ****     
  82:.\main.c      ****     // Configure DMA
  83:.\main.c      ****     DMA_1_Config();
 169              		.loc 1 83 0
 170 0018 FFF7FEFF 		bl	DMA_1_Config
 171              	.LVL18:
  84:.\main.c      ****     DMA_2_Config();
 172              		.loc 1 84 0
 173 001c FFF7FEFF 		bl	DMA_2_Config
 174              	.LVL19:
  85:.\main.c      ****     
  86:.\main.c      ****     //-----------------------//
  87:.\main.c      ****     //    INITIALIZATION     //
  88:.\main.c      ****     //-----------------------//
  89:.\main.c      ****     //Start ADC conversion
  90:.\main.c      ****     ADC_DelSig_1_StartConvert();
 175              		.loc 1 90 0
 176 0020 FFF7FEFF 		bl	ADC_DelSig_1_StartConvert
 177              	.LVL20:
 178              	.L6:
  91:.\main.c      ****     
  92:.\main.c      ****     //-----------------------//
  93:.\main.c      ****     //     INIFINIT LOOP     //
  94:.\main.c      ****     //-----------------------//
  95:.\main.c      ****     for(;;)
  96:.\main.c      ****     {
  97:.\main.c      ****         
  98:.\main.c      ****     }
 179              		.loc 1 98 0 discriminator 1
 180 0024 FEE7     		b	.L6
 181              		.cfi_endproc
 182              	.LFE65:
 183              		.size	main, .-main
 184              		.comm	adc_value,1,1
 185 0026 00BF     		.text
 186              	.Letext0:
 187              		.file 2 "c:\\program files (x86)\\cypress\\psoc creator\\3.3\\psoc creator\\import\\gnu\\arm\\4.9.
ARM GAS  C:\Users\user\AppData\Local\Temp\ccIuCCF2.s 			page 6


 188              		.file 3 "c:\\program files (x86)\\cypress\\psoc creator\\3.3\\psoc creator\\import\\gnu\\arm\\4.9.
 189              		.file 4 "Generated_Source\\PSoC5/cytypes.h"
 190              		.file 5 "Generated_Source\\PSoC5/core_cm3.h"
 191              		.file 6 "Generated_Source\\PSoC5/DMA_1_dma.h"
 192              		.file 7 "Generated_Source\\PSoC5/CYDMAC.H"
 193              		.file 8 "Generated_Source\\PSoC5/DMA_2_dma.h"
 194              		.file 9 "Generated_Source\\PSoC5/ADC_DelSig_1.h"
 195              		.file 10 "Generated_Source\\PSoC5/VDAC8_1.h"
 196              		.file 11 "Generated_Source\\PSoC5/Filter_1.h"