ARM GAS  C:\Users\user\AppData\Local\Temp\ccYiXozg.s 			page 1


   1              		.syntax unified
   2              		.cpu cortex-m3
   3              		.fpu softvfp
   4              		.eabi_attribute 20, 1
   5              		.eabi_attribute 21, 1
   6              		.eabi_attribute 23, 3
   7              		.eabi_attribute 24, 1
   8              		.eabi_attribute 25, 1
   9              		.eabi_attribute 26, 1
  10              		.eabi_attribute 30, 1
  11              		.eabi_attribute 34, 1
  12              		.eabi_attribute 18, 4
  13              		.thumb
  14              		.file	"cyfitter_cfg.c"
  15              		.text
  16              	.Ltext0:
  17              		.cfi_sections	.debug_frame
  18              		.section	.text.CyClockStartupError,"ax",%progbits
  19              		.align	2
  20              		.thumb
  21              		.thumb_func
  22              		.type	CyClockStartupError, %function
  23              	CyClockStartupError:
  24              	.LFB3:
  25              		.file 1 ".\\Generated_Source\\PSoC5\\cyfitter_cfg.c"
   1:.\Generated_Source\PSoC5/cyfitter_cfg.c **** /*******************************************************************************
   2:.\Generated_Source\PSoC5/cyfitter_cfg.c **** * File Name: cyfitter_cfg.c
   3:.\Generated_Source\PSoC5/cyfitter_cfg.c **** * 
   4:.\Generated_Source\PSoC5/cyfitter_cfg.c **** * PSoC Creator  3.3 CP2
   5:.\Generated_Source\PSoC5/cyfitter_cfg.c **** *
   6:.\Generated_Source\PSoC5/cyfitter_cfg.c **** * Description:
   7:.\Generated_Source\PSoC5/cyfitter_cfg.c **** * This file contains device initialization code.
   8:.\Generated_Source\PSoC5/cyfitter_cfg.c **** * Except for the user defined sections in CyClockStartupError(), this file should not be modified.
   9:.\Generated_Source\PSoC5/cyfitter_cfg.c **** * This file is automatically generated by PSoC Creator.
  10:.\Generated_Source\PSoC5/cyfitter_cfg.c **** *
  11:.\Generated_Source\PSoC5/cyfitter_cfg.c **** ********************************************************************************
  12:.\Generated_Source\PSoC5/cyfitter_cfg.c **** * Copyright (c) 2007-2015 Cypress Semiconductor.  All rights reserved.
  13:.\Generated_Source\PSoC5/cyfitter_cfg.c **** * You may use this file only in accordance with the license, terms, conditions, 
  14:.\Generated_Source\PSoC5/cyfitter_cfg.c **** * disclaimers, and limitations in the end user license agreement accompanying 
  15:.\Generated_Source\PSoC5/cyfitter_cfg.c **** * the software package with which this file was provided.
  16:.\Generated_Source\PSoC5/cyfitter_cfg.c **** ********************************************************************************/
  17:.\Generated_Source\PSoC5/cyfitter_cfg.c **** 
  18:.\Generated_Source\PSoC5/cyfitter_cfg.c **** #include <string.h>
  19:.\Generated_Source\PSoC5/cyfitter_cfg.c **** #include "cytypes.h"
  20:.\Generated_Source\PSoC5/cyfitter_cfg.c **** #include "cydevice_trm.h"
  21:.\Generated_Source\PSoC5/cyfitter_cfg.c **** #include "cyfitter.h"
  22:.\Generated_Source\PSoC5/cyfitter_cfg.c **** #include "CyLib.h"
  23:.\Generated_Source\PSoC5/cyfitter_cfg.c **** #include "cyfitter_cfg.h"
  24:.\Generated_Source\PSoC5/cyfitter_cfg.c **** 
  25:.\Generated_Source\PSoC5/cyfitter_cfg.c **** #define CY_NEED_CYCLOCKSTARTUPERROR 1
  26:.\Generated_Source\PSoC5/cyfitter_cfg.c **** 
  27:.\Generated_Source\PSoC5/cyfitter_cfg.c **** 
  28:.\Generated_Source\PSoC5/cyfitter_cfg.c **** #if defined(__GNUC__) || defined(__ARMCC_VERSION)
  29:.\Generated_Source\PSoC5/cyfitter_cfg.c ****     #define CYPACKED 
  30:.\Generated_Source\PSoC5/cyfitter_cfg.c ****     #define CYPACKED_ATTR __attribute__ ((packed))
  31:.\Generated_Source\PSoC5/cyfitter_cfg.c ****     #define CYALIGNED __attribute__ ((aligned))
  32:.\Generated_Source\PSoC5/cyfitter_cfg.c ****     #define CY_CFG_UNUSED __attribute__ ((unused))
ARM GAS  C:\Users\user\AppData\Local\Temp\ccYiXozg.s 			page 2


  33:.\Generated_Source\PSoC5/cyfitter_cfg.c ****     #ifndef CY_CFG_SECTION
  34:.\Generated_Source\PSoC5/cyfitter_cfg.c ****         #define CY_CFG_SECTION __attribute__ ((section(".psocinit")))
  35:.\Generated_Source\PSoC5/cyfitter_cfg.c ****     #endif
  36:.\Generated_Source\PSoC5/cyfitter_cfg.c ****     
  37:.\Generated_Source\PSoC5/cyfitter_cfg.c ****     #if defined(__ARMCC_VERSION)
  38:.\Generated_Source\PSoC5/cyfitter_cfg.c ****         #define CY_CFG_MEMORY_BARRIER() __memory_changed()
  39:.\Generated_Source\PSoC5/cyfitter_cfg.c ****     #else
  40:.\Generated_Source\PSoC5/cyfitter_cfg.c ****         #define CY_CFG_MEMORY_BARRIER() __sync_synchronize()
  41:.\Generated_Source\PSoC5/cyfitter_cfg.c ****     #endif
  42:.\Generated_Source\PSoC5/cyfitter_cfg.c ****     
  43:.\Generated_Source\PSoC5/cyfitter_cfg.c **** #elif defined(__ICCARM__)
  44:.\Generated_Source\PSoC5/cyfitter_cfg.c ****     #include <intrinsics.h>
  45:.\Generated_Source\PSoC5/cyfitter_cfg.c **** 
  46:.\Generated_Source\PSoC5/cyfitter_cfg.c ****     #define CYPACKED __packed
  47:.\Generated_Source\PSoC5/cyfitter_cfg.c ****     #define CYPACKED_ATTR 
  48:.\Generated_Source\PSoC5/cyfitter_cfg.c ****     #define CYALIGNED _Pragma("data_alignment=4")
  49:.\Generated_Source\PSoC5/cyfitter_cfg.c ****     #define CY_CFG_UNUSED _Pragma("diag_suppress=Pe177")
  50:.\Generated_Source\PSoC5/cyfitter_cfg.c ****     #define CY_CFG_SECTION _Pragma("location=\".psocinit\"")
  51:.\Generated_Source\PSoC5/cyfitter_cfg.c ****     
  52:.\Generated_Source\PSoC5/cyfitter_cfg.c ****     #define CY_CFG_MEMORY_BARRIER() __DMB()
  53:.\Generated_Source\PSoC5/cyfitter_cfg.c ****     
  54:.\Generated_Source\PSoC5/cyfitter_cfg.c **** #else
  55:.\Generated_Source\PSoC5/cyfitter_cfg.c ****     #error Unsupported toolchain
  56:.\Generated_Source\PSoC5/cyfitter_cfg.c **** #endif
  57:.\Generated_Source\PSoC5/cyfitter_cfg.c **** 
  58:.\Generated_Source\PSoC5/cyfitter_cfg.c **** 
  59:.\Generated_Source\PSoC5/cyfitter_cfg.c **** CY_CFG_UNUSED
  60:.\Generated_Source\PSoC5/cyfitter_cfg.c **** static void CYMEMZERO(void *s, size_t n);
  61:.\Generated_Source\PSoC5/cyfitter_cfg.c **** CY_CFG_UNUSED
  62:.\Generated_Source\PSoC5/cyfitter_cfg.c **** static void CYMEMZERO(void *s, size_t n)
  63:.\Generated_Source\PSoC5/cyfitter_cfg.c **** {
  64:.\Generated_Source\PSoC5/cyfitter_cfg.c **** 	(void)memset(s, 0, n);
  65:.\Generated_Source\PSoC5/cyfitter_cfg.c **** }
  66:.\Generated_Source\PSoC5/cyfitter_cfg.c **** CY_CFG_UNUSED
  67:.\Generated_Source\PSoC5/cyfitter_cfg.c **** static void CYCONFIGCPY(void *dest, const void *src, size_t n);
  68:.\Generated_Source\PSoC5/cyfitter_cfg.c **** CY_CFG_UNUSED
  69:.\Generated_Source\PSoC5/cyfitter_cfg.c **** static void CYCONFIGCPY(void *dest, const void *src, size_t n)
  70:.\Generated_Source\PSoC5/cyfitter_cfg.c **** {
  71:.\Generated_Source\PSoC5/cyfitter_cfg.c **** 	(void)memcpy(dest, src, n);
  72:.\Generated_Source\PSoC5/cyfitter_cfg.c **** }
  73:.\Generated_Source\PSoC5/cyfitter_cfg.c **** CY_CFG_UNUSED
  74:.\Generated_Source\PSoC5/cyfitter_cfg.c **** static void CYCONFIGCPYCODE(void *dest, const void *src, size_t n);
  75:.\Generated_Source\PSoC5/cyfitter_cfg.c **** CY_CFG_UNUSED
  76:.\Generated_Source\PSoC5/cyfitter_cfg.c **** static void CYCONFIGCPYCODE(void *dest, const void *src, size_t n)
  77:.\Generated_Source\PSoC5/cyfitter_cfg.c **** {
  78:.\Generated_Source\PSoC5/cyfitter_cfg.c **** 	(void)memcpy(dest, src, n);
  79:.\Generated_Source\PSoC5/cyfitter_cfg.c **** }
  80:.\Generated_Source\PSoC5/cyfitter_cfg.c **** 
  81:.\Generated_Source\PSoC5/cyfitter_cfg.c **** 
  82:.\Generated_Source\PSoC5/cyfitter_cfg.c **** 
  83:.\Generated_Source\PSoC5/cyfitter_cfg.c **** /* Clock startup error codes                                                   */
  84:.\Generated_Source\PSoC5/cyfitter_cfg.c **** #define CYCLOCKSTART_NO_ERROR    0u
  85:.\Generated_Source\PSoC5/cyfitter_cfg.c **** #define CYCLOCKSTART_XTAL_ERROR  1u
  86:.\Generated_Source\PSoC5/cyfitter_cfg.c **** #define CYCLOCKSTART_32KHZ_ERROR 2u
  87:.\Generated_Source\PSoC5/cyfitter_cfg.c **** #define CYCLOCKSTART_PLL_ERROR   3u
  88:.\Generated_Source\PSoC5/cyfitter_cfg.c **** 
  89:.\Generated_Source\PSoC5/cyfitter_cfg.c **** #ifdef CY_NEED_CYCLOCKSTARTUPERROR
ARM GAS  C:\Users\user\AppData\Local\Temp\ccYiXozg.s 			page 3


  90:.\Generated_Source\PSoC5/cyfitter_cfg.c **** /*******************************************************************************
  91:.\Generated_Source\PSoC5/cyfitter_cfg.c **** * Function Name: CyClockStartupError
  92:.\Generated_Source\PSoC5/cyfitter_cfg.c **** ********************************************************************************
  93:.\Generated_Source\PSoC5/cyfitter_cfg.c **** * Summary:
  94:.\Generated_Source\PSoC5/cyfitter_cfg.c **** *  If an error is encountered during clock configuration (crystal startup error,
  95:.\Generated_Source\PSoC5/cyfitter_cfg.c **** *  PLL lock error, etc.), the system will end up here.  Unless reimplemented by
  96:.\Generated_Source\PSoC5/cyfitter_cfg.c **** *  the customer, this function will stop in an infinite loop.
  97:.\Generated_Source\PSoC5/cyfitter_cfg.c **** *
  98:.\Generated_Source\PSoC5/cyfitter_cfg.c **** * Parameters:
  99:.\Generated_Source\PSoC5/cyfitter_cfg.c **** *   void
 100:.\Generated_Source\PSoC5/cyfitter_cfg.c **** *
 101:.\Generated_Source\PSoC5/cyfitter_cfg.c **** * Return:
 102:.\Generated_Source\PSoC5/cyfitter_cfg.c **** *   void
 103:.\Generated_Source\PSoC5/cyfitter_cfg.c **** *
 104:.\Generated_Source\PSoC5/cyfitter_cfg.c **** *******************************************************************************/
 105:.\Generated_Source\PSoC5/cyfitter_cfg.c **** CY_CFG_UNUSED
 106:.\Generated_Source\PSoC5/cyfitter_cfg.c **** static void CyClockStartupError(uint8 errorCode);
 107:.\Generated_Source\PSoC5/cyfitter_cfg.c **** CY_CFG_UNUSED
 108:.\Generated_Source\PSoC5/cyfitter_cfg.c **** static void CyClockStartupError(uint8 errorCode)
 109:.\Generated_Source\PSoC5/cyfitter_cfg.c **** {
  26              		.loc 1 109 0
  27              		.cfi_startproc
  28              		@ Volatile: function does not return.
  29              		@ args = 0, pretend = 0, frame = 0
  30              		@ frame_needed = 0, uses_anonymous_args = 0
  31              		@ link register save eliminated.
  32              	.LVL0:
  33              	.L2:
 110:.\Generated_Source\PSoC5/cyfitter_cfg.c ****     /* To remove the compiler warning if errorCode not used.                */
 111:.\Generated_Source\PSoC5/cyfitter_cfg.c ****     errorCode = errorCode;
 112:.\Generated_Source\PSoC5/cyfitter_cfg.c **** 
 113:.\Generated_Source\PSoC5/cyfitter_cfg.c ****     /* `#START CyClockStartupError` */
 114:.\Generated_Source\PSoC5/cyfitter_cfg.c **** 
 115:.\Generated_Source\PSoC5/cyfitter_cfg.c ****     /* If we have a clock startup error (bad MHz crystal, PLL lock, etc.),  */
 116:.\Generated_Source\PSoC5/cyfitter_cfg.c ****     /* we will end up here to allow the customer to implement something to  */
 117:.\Generated_Source\PSoC5/cyfitter_cfg.c ****     /* deal with the clock condition.                                       */
 118:.\Generated_Source\PSoC5/cyfitter_cfg.c **** 
 119:.\Generated_Source\PSoC5/cyfitter_cfg.c ****     /* `#END` */
 120:.\Generated_Source\PSoC5/cyfitter_cfg.c **** 
 121:.\Generated_Source\PSoC5/cyfitter_cfg.c ****     /* If nothing else, stop here since the clocks have not started         */
 122:.\Generated_Source\PSoC5/cyfitter_cfg.c ****     /* correctly.                                                           */
 123:.\Generated_Source\PSoC5/cyfitter_cfg.c ****     while(1) {}
  34              		.loc 1 123 0 discriminator 1
  35 0000 FEE7     		b	.L2
  36              		.cfi_endproc
  37              	.LFE3:
  38              		.size	CyClockStartupError, .-CyClockStartupError
  39 0002 00BF     		.section	.text.AnalogSetDefault,"ax",%progbits
  40              		.align	2
  41              		.thumb
  42              		.thumb_func
  43              		.type	AnalogSetDefault, %function
  44              	AnalogSetDefault:
  45              	.LFB5:
 124:.\Generated_Source\PSoC5/cyfitter_cfg.c **** }
 125:.\Generated_Source\PSoC5/cyfitter_cfg.c **** #endif
 126:.\Generated_Source\PSoC5/cyfitter_cfg.c **** 
ARM GAS  C:\Users\user\AppData\Local\Temp\ccYiXozg.s 			page 4


 127:.\Generated_Source\PSoC5/cyfitter_cfg.c **** /* IOPINS0_0 Address: CYREG_PRT0_DM0 Size (bytes): 8 */
 128:.\Generated_Source\PSoC5/cyfitter_cfg.c **** #define BS_IOPINS0_0_VAL ((const uint8 CYFAR *)0x48000000u)
 129:.\Generated_Source\PSoC5/cyfitter_cfg.c **** 
 130:.\Generated_Source\PSoC5/cyfitter_cfg.c **** 
 131:.\Generated_Source\PSoC5/cyfitter_cfg.c **** /*******************************************************************************
 132:.\Generated_Source\PSoC5/cyfitter_cfg.c **** * Function Name: ClockSetup
 133:.\Generated_Source\PSoC5/cyfitter_cfg.c **** ********************************************************************************
 134:.\Generated_Source\PSoC5/cyfitter_cfg.c **** *
 135:.\Generated_Source\PSoC5/cyfitter_cfg.c **** * Summary:
 136:.\Generated_Source\PSoC5/cyfitter_cfg.c **** *  Performs the initialization of all of the clocks in the device based on the
 137:.\Generated_Source\PSoC5/cyfitter_cfg.c **** *  settings in the Clock tab of the DWR.  This includes enabling the requested
 138:.\Generated_Source\PSoC5/cyfitter_cfg.c **** *  clocks and setting the necessary dividers to produce the desired frequency. 
 139:.\Generated_Source\PSoC5/cyfitter_cfg.c **** *
 140:.\Generated_Source\PSoC5/cyfitter_cfg.c **** * Parameters:
 141:.\Generated_Source\PSoC5/cyfitter_cfg.c **** *  void
 142:.\Generated_Source\PSoC5/cyfitter_cfg.c **** *
 143:.\Generated_Source\PSoC5/cyfitter_cfg.c **** * Return:
 144:.\Generated_Source\PSoC5/cyfitter_cfg.c **** *  void
 145:.\Generated_Source\PSoC5/cyfitter_cfg.c **** *
 146:.\Generated_Source\PSoC5/cyfitter_cfg.c **** *******************************************************************************/
 147:.\Generated_Source\PSoC5/cyfitter_cfg.c **** static void ClockSetup(void);
 148:.\Generated_Source\PSoC5/cyfitter_cfg.c **** static void ClockSetup(void)
 149:.\Generated_Source\PSoC5/cyfitter_cfg.c **** {
 150:.\Generated_Source\PSoC5/cyfitter_cfg.c **** 	uint32 timeout;
 151:.\Generated_Source\PSoC5/cyfitter_cfg.c **** 	uint8 pllLock;
 152:.\Generated_Source\PSoC5/cyfitter_cfg.c **** 
 153:.\Generated_Source\PSoC5/cyfitter_cfg.c **** 
 154:.\Generated_Source\PSoC5/cyfitter_cfg.c **** 	/* Configure ILO based on settings from Clock DWR */
 155:.\Generated_Source\PSoC5/cyfitter_cfg.c **** 	CY_SET_XTND_REG8((void CYFAR *)(CYREG_SLOWCLK_ILO_CR0), 0x02u);
 156:.\Generated_Source\PSoC5/cyfitter_cfg.c **** 	CY_SET_XTND_REG8((void CYFAR *)(CYREG_CLKDIST_CR), 0x08u);
 157:.\Generated_Source\PSoC5/cyfitter_cfg.c **** 
 158:.\Generated_Source\PSoC5/cyfitter_cfg.c **** 	/* Configure IMO based on settings from Clock DWR */
 159:.\Generated_Source\PSoC5/cyfitter_cfg.c **** 	CY_SET_XTND_REG8((void CYFAR *)(CYREG_FASTCLK_IMO_CR), 0x03u);
 160:.\Generated_Source\PSoC5/cyfitter_cfg.c **** 	CY_SET_XTND_REG8((void CYFAR *)(CYREG_IMO_TR1), (CY_GET_XTND_REG8((void CYFAR *)CYREG_FLSHID_CUST_
 161:.\Generated_Source\PSoC5/cyfitter_cfg.c **** 
 162:.\Generated_Source\PSoC5/cyfitter_cfg.c **** 	/* Configure PLL based on settings from Clock DWR */
 163:.\Generated_Source\PSoC5/cyfitter_cfg.c **** 	CY_SET_XTND_REG16((void CYFAR *)(CYREG_FASTCLK_PLL_P), 0x0008u);
 164:.\Generated_Source\PSoC5/cyfitter_cfg.c **** 	CY_SET_XTND_REG16((void CYFAR *)(CYREG_FASTCLK_PLL_CFG0), 0x1251u);
 165:.\Generated_Source\PSoC5/cyfitter_cfg.c **** 	/* Wait up to 250us for the PLL to lock */
 166:.\Generated_Source\PSoC5/cyfitter_cfg.c **** 	pllLock = 0u;
 167:.\Generated_Source\PSoC5/cyfitter_cfg.c **** 	for (timeout = 250u / 10u; (timeout > 0u) && (pllLock != 0x03u); timeout--)
 168:.\Generated_Source\PSoC5/cyfitter_cfg.c **** 	{ 
 169:.\Generated_Source\PSoC5/cyfitter_cfg.c **** 		pllLock = 0x03u & ((uint8)((uint8)pllLock << 1) | ((CY_GET_XTND_REG8((void CYFAR *)CYREG_FASTCLK_
 170:.\Generated_Source\PSoC5/cyfitter_cfg.c **** 		CyDelayCycles(10u * 48u); /* Delay 10us based on 48MHz clock */
 171:.\Generated_Source\PSoC5/cyfitter_cfg.c **** 	}
 172:.\Generated_Source\PSoC5/cyfitter_cfg.c **** 	/* If we ran out of time the PLL didn't lock so go to the error function */
 173:.\Generated_Source\PSoC5/cyfitter_cfg.c **** 	if (timeout == 0u)
 174:.\Generated_Source\PSoC5/cyfitter_cfg.c **** 	{
 175:.\Generated_Source\PSoC5/cyfitter_cfg.c **** 		CyClockStartupError(CYCLOCKSTART_PLL_ERROR);
 176:.\Generated_Source\PSoC5/cyfitter_cfg.c **** 	}
 177:.\Generated_Source\PSoC5/cyfitter_cfg.c **** 
 178:.\Generated_Source\PSoC5/cyfitter_cfg.c **** 	/* Configure Bus/Master Clock based on settings from Clock DWR */
 179:.\Generated_Source\PSoC5/cyfitter_cfg.c **** 	CY_SET_XTND_REG16((void CYFAR *)(CYREG_CLKDIST_MSTR0), 0x0100u);
 180:.\Generated_Source\PSoC5/cyfitter_cfg.c **** 	CY_SET_XTND_REG8((void CYFAR *)(CYREG_CLKDIST_MSTR0), 0x07u);
 181:.\Generated_Source\PSoC5/cyfitter_cfg.c **** 	CY_SET_XTND_REG8((void CYFAR *)(CYREG_CLKDIST_BCFG0), 0x00u);
 182:.\Generated_Source\PSoC5/cyfitter_cfg.c **** 	CY_SET_XTND_REG8((void CYFAR *)(CYREG_CLKDIST_BCFG2), 0x48u);
 183:.\Generated_Source\PSoC5/cyfitter_cfg.c **** 	CY_SET_XTND_REG8((void CYFAR *)(CYREG_CLKDIST_MSTR0), 0x00u);
ARM GAS  C:\Users\user\AppData\Local\Temp\ccYiXozg.s 			page 5


 184:.\Generated_Source\PSoC5/cyfitter_cfg.c **** 	CY_SET_XTND_REG8((void CYFAR *)(CYREG_CLKDIST_LD), 0x02u);
 185:.\Generated_Source\PSoC5/cyfitter_cfg.c **** }
 186:.\Generated_Source\PSoC5/cyfitter_cfg.c **** 
 187:.\Generated_Source\PSoC5/cyfitter_cfg.c **** 
 188:.\Generated_Source\PSoC5/cyfitter_cfg.c **** /* Analog API Functions */
 189:.\Generated_Source\PSoC5/cyfitter_cfg.c **** 
 190:.\Generated_Source\PSoC5/cyfitter_cfg.c **** 
 191:.\Generated_Source\PSoC5/cyfitter_cfg.c **** /*******************************************************************************
 192:.\Generated_Source\PSoC5/cyfitter_cfg.c **** * Function Name: AnalogSetDefault
 193:.\Generated_Source\PSoC5/cyfitter_cfg.c **** ********************************************************************************
 194:.\Generated_Source\PSoC5/cyfitter_cfg.c **** *
 195:.\Generated_Source\PSoC5/cyfitter_cfg.c **** * Summary:
 196:.\Generated_Source\PSoC5/cyfitter_cfg.c **** *  Sets up the analog portions of the chip to default values based on chip
 197:.\Generated_Source\PSoC5/cyfitter_cfg.c **** *  configuration options from the project.
 198:.\Generated_Source\PSoC5/cyfitter_cfg.c **** *
 199:.\Generated_Source\PSoC5/cyfitter_cfg.c **** * Parameters:
 200:.\Generated_Source\PSoC5/cyfitter_cfg.c **** *  void
 201:.\Generated_Source\PSoC5/cyfitter_cfg.c **** *
 202:.\Generated_Source\PSoC5/cyfitter_cfg.c **** * Return:
 203:.\Generated_Source\PSoC5/cyfitter_cfg.c **** *  void
 204:.\Generated_Source\PSoC5/cyfitter_cfg.c **** *
 205:.\Generated_Source\PSoC5/cyfitter_cfg.c **** *******************************************************************************/
 206:.\Generated_Source\PSoC5/cyfitter_cfg.c **** static void AnalogSetDefault(void);
 207:.\Generated_Source\PSoC5/cyfitter_cfg.c **** static void AnalogSetDefault(void)
 208:.\Generated_Source\PSoC5/cyfitter_cfg.c **** {
  46              		.loc 1 208 0
  47              		.cfi_startproc
  48              		@ args = 0, pretend = 0, frame = 0
  49              		@ frame_needed = 0, uses_anonymous_args = 0
  50              		@ link register save eliminated.
 209:.\Generated_Source\PSoC5/cyfitter_cfg.c **** 	uint8 bg_xover_inl_trim = CY_GET_XTND_REG8((void CYFAR *)(CYREG_FLSHID_MFG_CFG_BG_XOVER_INL_TRIM +
  51              		.loc 1 209 0
  52 0000 0C4B     		ldr	r3, .L4
  53 0002 1B78     		ldrb	r3, [r3]	@ zero_extendqisi2
  54 0004 DBB2     		uxtb	r3, r3
  55              	.LVL1:
 210:.\Generated_Source\PSoC5/cyfitter_cfg.c **** 	CY_SET_XTND_REG8((void CYFAR *)(CYREG_BG_DFT0), (bg_xover_inl_trim & 0x07u));
  56              		.loc 1 210 0
  57 0006 03F00701 		and	r1, r3, #7
  58 000a 0B4A     		ldr	r2, .L4+4
  59 000c 1170     		strb	r1, [r2]
 211:.\Generated_Source\PSoC5/cyfitter_cfg.c **** 	CY_SET_XTND_REG8((void CYFAR *)(CYREG_BG_DFT1), ((bg_xover_inl_trim >> 4) & 0x0Fu));
  60              		.loc 1 211 0
  61 000e 1B09     		lsrs	r3, r3, #4
  62              	.LVL2:
  63 0010 0132     		adds	r2, r2, #1
  64 0012 1370     		strb	r3, [r2]
 212:.\Generated_Source\PSoC5/cyfitter_cfg.c **** 	CY_SET_XTND_REG8((void CYFAR *)CYREG_PRT0_AG, 0x24u);
  65              		.loc 1 212 0
  66 0014 2422     		movs	r2, #36
  67 0016 094B     		ldr	r3, .L4+8
  68 0018 1A70     		strb	r2, [r3]
 213:.\Generated_Source\PSoC5/cyfitter_cfg.c **** 	CY_SET_XTND_REG8((void CYFAR *)CYREG_SC0_SW0, 0x40u);
  69              		.loc 1 213 0
  70 001a 4022     		movs	r2, #64
  71 001c 03F6F303 		addw	r3, r3, #2291
  72 0020 1A70     		strb	r2, [r3]
ARM GAS  C:\Users\user\AppData\Local\Temp\ccYiXozg.s 			page 6


 214:.\Generated_Source\PSoC5/cyfitter_cfg.c **** 	CY_SET_XTND_REG8((void CYFAR *)CYREG_SC0_SW8, 0x20u);
  73              		.loc 1 214 0
  74 0022 2022     		movs	r2, #32
  75 0024 0833     		adds	r3, r3, #8
  76 0026 1A70     		strb	r2, [r3]
 215:.\Generated_Source\PSoC5/cyfitter_cfg.c **** 	CY_SET_XTND_REG8((void CYFAR *)CYREG_PUMP_CR0, 0x44u);
  77              		.loc 1 215 0
  78 0028 4422     		movs	r2, #68
  79 002a A3F5C973 		sub	r3, r3, #402
  80 002e 1A70     		strb	r2, [r3]
  81 0030 7047     		bx	lr
  82              	.L5:
  83 0032 00BF     		.align	2
  84              	.L4:
  85 0034 CF010049 		.word	1224737231
  86 0038 6E580040 		.word	1073764462
  87 003c 0D510040 		.word	1073762573
  88              		.cfi_endproc
  89              	.LFE5:
  90              		.size	AnalogSetDefault, .-AnalogSetDefault
  91              		.section	.text.CYMEMZERO,"ax",%progbits
  92              		.align	2
  93              		.thumb
  94              		.thumb_func
  95              		.type	CYMEMZERO, %function
  96              	CYMEMZERO:
  97              	.LFB0:
  63:.\Generated_Source\PSoC5/cyfitter_cfg.c **** 	(void)memset(s, 0, n);
  98              		.loc 1 63 0
  99              		.cfi_startproc
 100              		@ args = 0, pretend = 0, frame = 0
 101              		@ frame_needed = 0, uses_anonymous_args = 0
 102              	.LVL3:
 103 0000 08B5     		push	{r3, lr}
 104              		.cfi_def_cfa_offset 8
 105              		.cfi_offset 3, -8
 106              		.cfi_offset 14, -4
 107 0002 0A46     		mov	r2, r1
  64:.\Generated_Source\PSoC5/cyfitter_cfg.c **** }
 108              		.loc 1 64 0
 109 0004 0021     		movs	r1, #0
 110              	.LVL4:
 111 0006 FFF7FEFF 		bl	memset
 112              	.LVL5:
 113 000a 08BD     		pop	{r3, pc}
 114              		.cfi_endproc
 115              	.LFE0:
 116              		.size	CYMEMZERO, .-CYMEMZERO
 117              		.section	.text.ClockSetup,"ax",%progbits
 118              		.align	2
 119              		.thumb
 120              		.thumb_func
 121              		.type	ClockSetup, %function
 122              	ClockSetup:
 123              	.LFB4:
 149:.\Generated_Source\PSoC5/cyfitter_cfg.c **** 	uint32 timeout;
 124              		.loc 1 149 0
ARM GAS  C:\Users\user\AppData\Local\Temp\ccYiXozg.s 			page 7


 125              		.cfi_startproc
 126              		@ args = 0, pretend = 0, frame = 0
 127              		@ frame_needed = 0, uses_anonymous_args = 0
 128 0000 38B5     		push	{r3, r4, r5, lr}
 129              		.cfi_def_cfa_offset 16
 130              		.cfi_offset 3, -16
 131              		.cfi_offset 4, -12
 132              		.cfi_offset 5, -8
 133              		.cfi_offset 14, -4
 155:.\Generated_Source\PSoC5/cyfitter_cfg.c **** 	CY_SET_XTND_REG8((void CYFAR *)(CYREG_CLKDIST_CR), 0x08u);
 134              		.loc 1 155 0
 135 0002 0222     		movs	r2, #2
 136 0004 1E4B     		ldr	r3, .L14
 137 0006 1A70     		strb	r2, [r3]
 156:.\Generated_Source\PSoC5/cyfitter_cfg.c **** 
 138              		.loc 1 156 0
 139 0008 0822     		movs	r2, #8
 140 000a 4FF04023 		mov	r3, #1073758208
 141 000e 1A70     		strb	r2, [r3]
 159:.\Generated_Source\PSoC5/cyfitter_cfg.c **** 	CY_SET_XTND_REG8((void CYFAR *)(CYREG_IMO_TR1), (CY_GET_XTND_REG8((void CYFAR *)CYREG_FLSHID_CUST_
 142              		.loc 1 159 0
 143 0010 0321     		movs	r1, #3
 144 0012 03F50073 		add	r3, r3, #512
 145 0016 1970     		strb	r1, [r3]
 160:.\Generated_Source\PSoC5/cyfitter_cfg.c **** 
 146              		.loc 1 160 0
 147 0018 1A4B     		ldr	r3, .L14+4
 148 001a 1B78     		ldrb	r3, [r3]	@ zero_extendqisi2
 149 001c DBB2     		uxtb	r3, r3
 150 001e 1A49     		ldr	r1, .L14+8
 151 0020 0B70     		strb	r3, [r1]
 163:.\Generated_Source\PSoC5/cyfitter_cfg.c **** 	CY_SET_XTND_REG16((void CYFAR *)(CYREG_FASTCLK_PLL_CFG0), 0x1251u);
 152              		.loc 1 163 0
 153 0022 1A4B     		ldr	r3, .L14+12
 154 0024 1A80     		strh	r2, [r3]	@ movhi
 164:.\Generated_Source\PSoC5/cyfitter_cfg.c **** 	/* Wait up to 250us for the PLL to lock */
 155              		.loc 1 164 0
 156 0026 41F25122 		movw	r2, #4689
 157 002a 023B     		subs	r3, r3, #2
 158 002c 1A80     		strh	r2, [r3]	@ movhi
 159              	.LVL6:
 166:.\Generated_Source\PSoC5/cyfitter_cfg.c **** 	for (timeout = 250u / 10u; (timeout > 0u) && (pllLock != 0x03u); timeout--)
 160              		.loc 1 166 0
 161 002e 0024     		movs	r4, #0
 167:.\Generated_Source\PSoC5/cyfitter_cfg.c **** 	{ 
 162              		.loc 1 167 0
 163 0030 1925     		movs	r5, #25
 164 0032 0CE0     		b	.L9
 165              	.LVL7:
 166              	.L11:
 169:.\Generated_Source\PSoC5/cyfitter_cfg.c **** 		CyDelayCycles(10u * 48u); /* Delay 10us based on 48MHz clock */
 167              		.loc 1 169 0 discriminator 4
 168 0034 164B     		ldr	r3, .L14+16
 169 0036 1B78     		ldrb	r3, [r3]	@ zero_extendqisi2
 170 0038 03F00103 		and	r3, r3, #1
 171 003c 43EA4404 		orr	r4, r3, r4, lsl #1
 172              	.LVL8:
ARM GAS  C:\Users\user\AppData\Local\Temp\ccYiXozg.s 			page 8


 173 0040 04F00304 		and	r4, r4, #3
 174              	.LVL9:
 170:.\Generated_Source\PSoC5/cyfitter_cfg.c **** 	}
 175              		.loc 1 170 0 discriminator 4
 176 0044 4FF4F070 		mov	r0, #480
 177 0048 FFF7FEFF 		bl	CyDelayCycles
 178              	.LVL10:
 167:.\Generated_Source\PSoC5/cyfitter_cfg.c **** 	{ 
 179              		.loc 1 167 0 discriminator 4
 180 004c 013D     		subs	r5, r5, #1
 181              	.LVL11:
 182              	.L9:
 167:.\Generated_Source\PSoC5/cyfitter_cfg.c **** 	{ 
 183              		.loc 1 167 0 is_stmt 0 discriminator 1
 184 004e 0DB1     		cbz	r5, .L10
 167:.\Generated_Source\PSoC5/cyfitter_cfg.c **** 	{ 
 185              		.loc 1 167 0 discriminator 3
 186 0050 032C     		cmp	r4, #3
 187 0052 EFD1     		bne	.L11
 188              	.L10:
 173:.\Generated_Source\PSoC5/cyfitter_cfg.c **** 	{
 189              		.loc 1 173 0 is_stmt 1
 190 0054 15B9     		cbnz	r5, .L12
 175:.\Generated_Source\PSoC5/cyfitter_cfg.c **** 	}
 191              		.loc 1 175 0
 192 0056 0320     		movs	r0, #3
 193 0058 FFF7FEFF 		bl	CyClockStartupError
 194              	.LVL12:
 195              	.L12:
 179:.\Generated_Source\PSoC5/cyfitter_cfg.c **** 	CY_SET_XTND_REG8((void CYFAR *)(CYREG_CLKDIST_MSTR0), 0x07u);
 196              		.loc 1 179 0
 197 005c 0D4B     		ldr	r3, .L14+20
 198 005e 4FF48072 		mov	r2, #256
 199 0062 1A80     		strh	r2, [r3]	@ movhi
 180:.\Generated_Source\PSoC5/cyfitter_cfg.c **** 	CY_SET_XTND_REG8((void CYFAR *)(CYREG_CLKDIST_BCFG0), 0x00u);
 200              		.loc 1 180 0
 201 0064 0722     		movs	r2, #7
 202 0066 1A70     		strb	r2, [r3]
 181:.\Generated_Source\PSoC5/cyfitter_cfg.c **** 	CY_SET_XTND_REG8((void CYFAR *)(CYREG_CLKDIST_BCFG2), 0x48u);
 203              		.loc 1 181 0
 204 0068 0022     		movs	r2, #0
 205 006a 0B49     		ldr	r1, .L14+24
 206 006c 0A70     		strb	r2, [r1]
 182:.\Generated_Source\PSoC5/cyfitter_cfg.c **** 	CY_SET_XTND_REG8((void CYFAR *)(CYREG_CLKDIST_MSTR0), 0x00u);
 207              		.loc 1 182 0
 208 006e 4820     		movs	r0, #72
 209 0070 0231     		adds	r1, r1, #2
 210 0072 0870     		strb	r0, [r1]
 183:.\Generated_Source\PSoC5/cyfitter_cfg.c **** 	CY_SET_XTND_REG8((void CYFAR *)(CYREG_CLKDIST_LD), 0x02u);
 211              		.loc 1 183 0
 212 0074 1A70     		strb	r2, [r3]
 184:.\Generated_Source\PSoC5/cyfitter_cfg.c **** }
 213              		.loc 1 184 0
 214 0076 0222     		movs	r2, #2
 215 0078 033B     		subs	r3, r3, #3
 216 007a 1A70     		strb	r2, [r3]
 217 007c 38BD     		pop	{r3, r4, r5, pc}
ARM GAS  C:\Users\user\AppData\Local\Temp\ccYiXozg.s 			page 9


 218              	.LVL13:
 219              	.L15:
 220 007e 00BF     		.align	2
 221              	.L14:
 222 0080 00430040 		.word	1073758976
 223 0084 08010049 		.word	1224737032
 224 0088 A1460040 		.word	1073759905
 225 008c 22420040 		.word	1073758754
 226 0090 25420040 		.word	1073758757
 227 0094 04400040 		.word	1073758212
 228 0098 06400040 		.word	1073758214
 229              		.cfi_endproc
 230              	.LFE4:
 231              		.size	ClockSetup, .-ClockSetup
 232              		.section	.text.CYCONFIGCPY,"ax",%progbits
 233              		.align	2
 234              		.thumb
 235              		.thumb_func
 236              		.type	CYCONFIGCPY, %function
 237              	CYCONFIGCPY:
 238              	.LFB1:
  70:.\Generated_Source\PSoC5/cyfitter_cfg.c **** 	(void)memcpy(dest, src, n);
 239              		.loc 1 70 0
 240              		.cfi_startproc
 241              		@ args = 0, pretend = 0, frame = 0
 242              		@ frame_needed = 0, uses_anonymous_args = 0
 243              	.LVL14:
 244 0000 08B5     		push	{r3, lr}
 245              		.cfi_def_cfa_offset 8
 246              		.cfi_offset 3, -8
 247              		.cfi_offset 14, -4
  71:.\Generated_Source\PSoC5/cyfitter_cfg.c **** }
 248              		.loc 1 71 0
 249 0002 FFF7FEFF 		bl	memcpy
 250              	.LVL15:
 251 0006 08BD     		pop	{r3, pc}
 252              		.cfi_endproc
 253              	.LFE1:
 254              		.size	CYCONFIGCPY, .-CYCONFIGCPY
 255              		.section	.text.SetAnalogRoutingPumps,"ax",%progbits
 256              		.align	2
 257              		.global	SetAnalogRoutingPumps
 258              		.thumb
 259              		.thumb_func
 260              		.type	SetAnalogRoutingPumps, %function
 261              	SetAnalogRoutingPumps:
 262              	.LFB6:
 216:.\Generated_Source\PSoC5/cyfitter_cfg.c **** }
 217:.\Generated_Source\PSoC5/cyfitter_cfg.c **** 
 218:.\Generated_Source\PSoC5/cyfitter_cfg.c **** 
 219:.\Generated_Source\PSoC5/cyfitter_cfg.c **** /*******************************************************************************
 220:.\Generated_Source\PSoC5/cyfitter_cfg.c **** * Function Name: SetAnalogRoutingPumps
 221:.\Generated_Source\PSoC5/cyfitter_cfg.c **** ********************************************************************************
 222:.\Generated_Source\PSoC5/cyfitter_cfg.c **** *
 223:.\Generated_Source\PSoC5/cyfitter_cfg.c **** * Summary:
 224:.\Generated_Source\PSoC5/cyfitter_cfg.c **** * Enables or disables the analog pumps feeding analog routing switches.
 225:.\Generated_Source\PSoC5/cyfitter_cfg.c **** * Intended to be called at startup, based on the Vdda system configuration;
ARM GAS  C:\Users\user\AppData\Local\Temp\ccYiXozg.s 			page 10


 226:.\Generated_Source\PSoC5/cyfitter_cfg.c **** * may be called during operation when the user informs us that the Vdda voltage
 227:.\Generated_Source\PSoC5/cyfitter_cfg.c **** * crossed the pump threshold.
 228:.\Generated_Source\PSoC5/cyfitter_cfg.c **** *
 229:.\Generated_Source\PSoC5/cyfitter_cfg.c **** * Parameters:
 230:.\Generated_Source\PSoC5/cyfitter_cfg.c **** *  enabled - 1 to enable the pumps, 0 to disable the pumps
 231:.\Generated_Source\PSoC5/cyfitter_cfg.c **** *
 232:.\Generated_Source\PSoC5/cyfitter_cfg.c **** * Return:
 233:.\Generated_Source\PSoC5/cyfitter_cfg.c **** *  void
 234:.\Generated_Source\PSoC5/cyfitter_cfg.c **** *
 235:.\Generated_Source\PSoC5/cyfitter_cfg.c **** *******************************************************************************/
 236:.\Generated_Source\PSoC5/cyfitter_cfg.c **** void SetAnalogRoutingPumps(uint8 enabled)
 237:.\Generated_Source\PSoC5/cyfitter_cfg.c **** {
 263              		.loc 1 237 0
 264              		.cfi_startproc
 265              		@ args = 0, pretend = 0, frame = 0
 266              		@ frame_needed = 0, uses_anonymous_args = 0
 267              		@ link register save eliminated.
 268              	.LVL16:
 238:.\Generated_Source\PSoC5/cyfitter_cfg.c **** 	uint8 regValue = CY_GET_XTND_REG8((void CYFAR *)CYREG_PUMP_CR0);
 269              		.loc 1 238 0
 270 0000 054B     		ldr	r3, .L21
 271 0002 1B78     		ldrb	r3, [r3]	@ zero_extendqisi2
 272 0004 DBB2     		uxtb	r3, r3
 273              	.LVL17:
 239:.\Generated_Source\PSoC5/cyfitter_cfg.c **** 	if (enabled != 0u)
 274              		.loc 1 239 0
 275 0006 10B1     		cbz	r0, .L19
 240:.\Generated_Source\PSoC5/cyfitter_cfg.c **** 	{
 241:.\Generated_Source\PSoC5/cyfitter_cfg.c **** 		regValue |= 0x22u;
 276              		.loc 1 241 0
 277 0008 43F02203 		orr	r3, r3, #34
 278              	.LVL18:
 279 000c 01E0     		b	.L20
 280              	.L19:
 242:.\Generated_Source\PSoC5/cyfitter_cfg.c **** 	}
 243:.\Generated_Source\PSoC5/cyfitter_cfg.c **** 	else
 244:.\Generated_Source\PSoC5/cyfitter_cfg.c **** 	{
 245:.\Generated_Source\PSoC5/cyfitter_cfg.c **** 		regValue &= (uint8)~0x22u;
 281              		.loc 1 245 0
 282 000e 03F0DD03 		and	r3, r3, #221
 283              	.LVL19:
 284              	.L20:
 246:.\Generated_Source\PSoC5/cyfitter_cfg.c **** 	}
 247:.\Generated_Source\PSoC5/cyfitter_cfg.c **** 	CY_SET_XTND_REG8((void CYFAR *)CYREG_PUMP_CR0, regValue);
 285              		.loc 1 247 0
 286 0012 014A     		ldr	r2, .L21
 287 0014 1370     		strb	r3, [r2]
 288 0016 7047     		bx	lr
 289              	.L22:
 290              		.align	2
 291              	.L21:
 292 0018 76580040 		.word	1073764470
 293              		.cfi_endproc
 294              	.LFE6:
 295              		.size	SetAnalogRoutingPumps, .-SetAnalogRoutingPumps
 296              		.section	.text.cyfitter_cfg,"ax",%progbits
 297              		.align	2
ARM GAS  C:\Users\user\AppData\Local\Temp\ccYiXozg.s 			page 11


 298              		.global	cyfitter_cfg
 299              		.thumb
 300              		.thumb_func
 301              		.type	cyfitter_cfg, %function
 302              	cyfitter_cfg:
 303              	.LFB7:
 248:.\Generated_Source\PSoC5/cyfitter_cfg.c **** }
 249:.\Generated_Source\PSoC5/cyfitter_cfg.c **** 
 250:.\Generated_Source\PSoC5/cyfitter_cfg.c **** #define CY_AMUX_UNUSED CYREG_BOOST_SR
 251:.\Generated_Source\PSoC5/cyfitter_cfg.c **** 
 252:.\Generated_Source\PSoC5/cyfitter_cfg.c **** 
 253:.\Generated_Source\PSoC5/cyfitter_cfg.c **** /*******************************************************************************
 254:.\Generated_Source\PSoC5/cyfitter_cfg.c **** * Function Name: cyfitter_cfg
 255:.\Generated_Source\PSoC5/cyfitter_cfg.c **** ********************************************************************************
 256:.\Generated_Source\PSoC5/cyfitter_cfg.c **** * Summary:
 257:.\Generated_Source\PSoC5/cyfitter_cfg.c **** *  This function is called by the start-up code for the selected device. It
 258:.\Generated_Source\PSoC5/cyfitter_cfg.c **** *  performs all of the necessary device configuration based on the design
 259:.\Generated_Source\PSoC5/cyfitter_cfg.c **** *  settings.  This includes settings from the Design Wide Resources (DWR) such
 260:.\Generated_Source\PSoC5/cyfitter_cfg.c **** *  as Clocks and Pins as well as any component configuration that is necessary.
 261:.\Generated_Source\PSoC5/cyfitter_cfg.c **** *
 262:.\Generated_Source\PSoC5/cyfitter_cfg.c **** * Parameters:  
 263:.\Generated_Source\PSoC5/cyfitter_cfg.c **** *   void
 264:.\Generated_Source\PSoC5/cyfitter_cfg.c **** *
 265:.\Generated_Source\PSoC5/cyfitter_cfg.c **** * Return:
 266:.\Generated_Source\PSoC5/cyfitter_cfg.c **** *   void
 267:.\Generated_Source\PSoC5/cyfitter_cfg.c **** *
 268:.\Generated_Source\PSoC5/cyfitter_cfg.c **** *******************************************************************************/
 269:.\Generated_Source\PSoC5/cyfitter_cfg.c **** 
 270:.\Generated_Source\PSoC5/cyfitter_cfg.c **** void cyfitter_cfg(void)
 271:.\Generated_Source\PSoC5/cyfitter_cfg.c **** {
 304              		.loc 1 271 0
 305              		.cfi_startproc
 306              		@ args = 0, pretend = 0, frame = 0
 307              		@ frame_needed = 0, uses_anonymous_args = 0
 308 0000 38B5     		push	{r3, r4, r5, lr}
 309              		.cfi_def_cfa_offset 16
 310              		.cfi_offset 3, -16
 311              		.cfi_offset 4, -12
 312              		.cfi_offset 5, -8
 313              		.cfi_offset 14, -4
 272:.\Generated_Source\PSoC5/cyfitter_cfg.c **** #ifdef CYGlobalIntDisable
 273:.\Generated_Source\PSoC5/cyfitter_cfg.c **** 	/* Disable interrupts by default. Let user enable if/when they want. */
 274:.\Generated_Source\PSoC5/cyfitter_cfg.c **** 	CYGlobalIntDisable
 314              		.loc 1 274 0
 315              	@ 274 ".\Generated_Source\PSoC5\cyfitter_cfg.c" 1
 316 0002 72B6     		CPSID   i
 317              	@ 0 "" 2
 275:.\Generated_Source\PSoC5/cyfitter_cfg.c **** #endif
 276:.\Generated_Source\PSoC5/cyfitter_cfg.c **** 
 277:.\Generated_Source\PSoC5/cyfitter_cfg.c **** 	/* Enable/Disable Debug functionality based on settings from System DWR */
 278:.\Generated_Source\PSoC5/cyfitter_cfg.c **** 	CY_SET_XTND_REG8((void CYFAR *)CYREG_MLOGIC_DEBUG, (CY_GET_XTND_REG8((void CYFAR *)CYREG_MLOGIC_DE
 318              		.loc 1 278 0
 319              		.thumb
 320 0004 244A     		ldr	r2, .L27
 321 0006 1378     		ldrb	r3, [r2]	@ zero_extendqisi2
 322 0008 43F00403 		orr	r3, r3, #4
 323 000c 1370     		strb	r3, [r2]
ARM GAS  C:\Users\user\AppData\Local\Temp\ccYiXozg.s 			page 12


 324              	.LVL20:
 325              	.LBB2:
 279:.\Generated_Source\PSoC5/cyfitter_cfg.c **** 
 280:.\Generated_Source\PSoC5/cyfitter_cfg.c **** 	{
 281:.\Generated_Source\PSoC5/cyfitter_cfg.c **** 
 282:.\Generated_Source\PSoC5/cyfitter_cfg.c **** 		CYPACKED typedef struct {
 283:.\Generated_Source\PSoC5/cyfitter_cfg.c **** 			void CYFAR *address;
 284:.\Generated_Source\PSoC5/cyfitter_cfg.c **** 			uint16 size;
 285:.\Generated_Source\PSoC5/cyfitter_cfg.c **** 		} CYPACKED_ATTR cfg_memset_t;
 286:.\Generated_Source\PSoC5/cyfitter_cfg.c **** 
 287:.\Generated_Source\PSoC5/cyfitter_cfg.c **** 		static const cfg_memset_t CYCODE cfg_memset_list [] = {
 288:.\Generated_Source\PSoC5/cyfitter_cfg.c **** 			/* address, size */
 289:.\Generated_Source\PSoC5/cyfitter_cfg.c **** 			{(void CYFAR *)(CYREG_PRT1_DR), 96u},
 290:.\Generated_Source\PSoC5/cyfitter_cfg.c **** 			{(void CYFAR *)(CYREG_PRT12_DR), 16u},
 291:.\Generated_Source\PSoC5/cyfitter_cfg.c **** 			{(void CYFAR *)(CYREG_PRT15_DR), 16u},
 292:.\Generated_Source\PSoC5/cyfitter_cfg.c **** 			{(void CYFAR *)(CYDEV_UCFG_B0_P0_U0_BASE), 4096u},
 293:.\Generated_Source\PSoC5/cyfitter_cfg.c **** 			{(void CYFAR *)(CYDEV_UCFG_B1_P2_U0_BASE), 2048u},
 294:.\Generated_Source\PSoC5/cyfitter_cfg.c **** 			{(void CYFAR *)(CYDEV_UCFG_DSI0_BASE), 2560u},
 295:.\Generated_Source\PSoC5/cyfitter_cfg.c **** 			{(void CYFAR *)(CYDEV_UCFG_DSI12_BASE), 512u},
 296:.\Generated_Source\PSoC5/cyfitter_cfg.c **** 			{(void CYFAR *)(CYREG_BCTL0_MDCLK_EN), 32u},
 297:.\Generated_Source\PSoC5/cyfitter_cfg.c **** 		};
 298:.\Generated_Source\PSoC5/cyfitter_cfg.c **** 
 299:.\Generated_Source\PSoC5/cyfitter_cfg.c **** 		uint8 CYDATA i;
 300:.\Generated_Source\PSoC5/cyfitter_cfg.c **** 
 301:.\Generated_Source\PSoC5/cyfitter_cfg.c **** 		/* Zero out critical memory blocks before beginning configuration */
 302:.\Generated_Source\PSoC5/cyfitter_cfg.c **** 		for (i = 0u; i < (sizeof(cfg_memset_list)/sizeof(cfg_memset_list[0])); i++)
 326              		.loc 1 302 0
 327 000e 0024     		movs	r4, #0
 328 0010 0CE0     		b	.L24
 329              	.LVL21:
 330              	.L25:
 331              	.LBB3:
 303:.\Generated_Source\PSoC5/cyfitter_cfg.c **** 		{
 304:.\Generated_Source\PSoC5/cyfitter_cfg.c **** 			const cfg_memset_t CYCODE * CYDATA ms = &cfg_memset_list[i];
 305:.\Generated_Source\PSoC5/cyfitter_cfg.c **** 			CYMEMZERO(ms->address, (size_t)(uint32)(ms->size));
 332              		.loc 1 305 0 discriminator 3
 333 0012 2249     		ldr	r1, .L27+4
 334 0014 6300     		lsls	r3, r4, #1
 335 0016 1A19     		adds	r2, r3, r4
 336 0018 5200     		lsls	r2, r2, #1
 337 001a 0A44     		add	r2, r2, r1
 338 001c 2344     		add	r3, r3, r4
 339 001e 5B00     		lsls	r3, r3, #1
 340 0020 C858     		ldr	r0, [r1, r3]	@ unaligned
 341 0022 9188     		ldrh	r1, [r2, #4]
 342 0024 FFF7FEFF 		bl	CYMEMZERO
 343              	.LVL22:
 344              	.LBE3:
 302:.\Generated_Source\PSoC5/cyfitter_cfg.c **** 		{
 345              		.loc 1 302 0 discriminator 3
 346 0028 0134     		adds	r4, r4, #1
 347              	.LVL23:
 348 002a E4B2     		uxtb	r4, r4
 349              	.LVL24:
 350              	.L24:
 302:.\Generated_Source\PSoC5/cyfitter_cfg.c **** 		{
 351              		.loc 1 302 0 is_stmt 0 discriminator 1
ARM GAS  C:\Users\user\AppData\Local\Temp\ccYiXozg.s 			page 13


 352 002c 072C     		cmp	r4, #7
 353 002e F0D9     		bls	.L25
 306:.\Generated_Source\PSoC5/cyfitter_cfg.c **** 		}
 307:.\Generated_Source\PSoC5/cyfitter_cfg.c **** 
 308:.\Generated_Source\PSoC5/cyfitter_cfg.c **** 		/* Enable digital routing */
 309:.\Generated_Source\PSoC5/cyfitter_cfg.c **** 		CY_SET_XTND_REG8((void CYFAR *)CYREG_BCTL0_BANK_CTL, CY_GET_XTND_REG8((void CYFAR *)CYREG_BCTL0_B
 354              		.loc 1 309 0 is_stmt 1
 355 0030 1B4A     		ldr	r2, .L27+8
 356 0032 1378     		ldrb	r3, [r2]	@ zero_extendqisi2
 357 0034 43F00203 		orr	r3, r3, #2
 358 0038 1370     		strb	r3, [r2]
 310:.\Generated_Source\PSoC5/cyfitter_cfg.c **** 		CY_SET_XTND_REG8((void CYFAR *)CYREG_BCTL1_BANK_CTL, CY_GET_XTND_REG8((void CYFAR *)CYREG_BCTL1_B
 359              		.loc 1 310 0
 360 003a 1032     		adds	r2, r2, #16
 361 003c 1378     		ldrb	r3, [r2]	@ zero_extendqisi2
 362 003e 43F00203 		orr	r3, r3, #2
 363 0042 1370     		strb	r3, [r2]
 311:.\Generated_Source\PSoC5/cyfitter_cfg.c **** 
 312:.\Generated_Source\PSoC5/cyfitter_cfg.c **** 		/* Enable UDB array */
 313:.\Generated_Source\PSoC5/cyfitter_cfg.c **** 		CY_SET_XTND_REG8((void CYFAR *)CYREG_PM_ACT_CFG0, CY_GET_XTND_REG8((void CYFAR *)CYREG_PM_ACT_CFG
 364              		.loc 1 313 0
 365 0044 174C     		ldr	r4, .L27+12
 366              	.LVL25:
 367 0046 2378     		ldrb	r3, [r4]	@ zero_extendqisi2
 368 0048 43F04003 		orr	r3, r3, #64
 369 004c 2370     		strb	r3, [r4]
 314:.\Generated_Source\PSoC5/cyfitter_cfg.c **** 		CY_SET_XTND_REG8((void CYFAR *)CYREG_PM_AVAIL_CR2, CY_GET_XTND_REG8((void CYFAR *)CYREG_PM_AVAIL_
 370              		.loc 1 314 0
 371 004e A2F58632 		sub	r2, r2, #68608
 372 0052 513A     		subs	r2, r2, #81
 373 0054 1378     		ldrb	r3, [r2]	@ zero_extendqisi2
 374 0056 43F01003 		orr	r3, r3, #16
 375 005a 1370     		strb	r3, [r2]
 376              	.LBE2:
 315:.\Generated_Source\PSoC5/cyfitter_cfg.c **** 	}
 316:.\Generated_Source\PSoC5/cyfitter_cfg.c **** 
 317:.\Generated_Source\PSoC5/cyfitter_cfg.c **** 
 318:.\Generated_Source\PSoC5/cyfitter_cfg.c **** 	/* Perform second pass device configuration. These items must be configured in specific order afte
 319:.\Generated_Source\PSoC5/cyfitter_cfg.c **** 	CYCONFIGCPY((void CYFAR *)(CYREG_PRT0_DM0), (const void CYFAR *)(BS_IOPINS0_0_VAL), 8u);
 377              		.loc 1 319 0
 378 005c 1248     		ldr	r0, .L27+16
 379 005e 4FF09041 		mov	r1, #1207959552
 380 0062 0822     		movs	r2, #8
 381 0064 FFF7FEFF 		bl	CYCONFIGCPY
 382              	.LVL26:
 320:.\Generated_Source\PSoC5/cyfitter_cfg.c **** 	/* Switch Boost to the precision bandgap reference from its internal reference */
 321:.\Generated_Source\PSoC5/cyfitter_cfg.c **** 	CY_SET_REG8((void CYXDATA *)CYREG_BOOST_CR2, (CY_GET_REG8((void CYXDATA *)CYREG_BOOST_CR2) | 0x08u
 383              		.loc 1 321 0
 384 0068 104A     		ldr	r2, .L27+20
 385 006a 1378     		ldrb	r3, [r2]	@ zero_extendqisi2
 386 006c 43F00803 		orr	r3, r3, #8
 387 0070 1370     		strb	r3, [r2]
 322:.\Generated_Source\PSoC5/cyfitter_cfg.c **** 
 323:.\Generated_Source\PSoC5/cyfitter_cfg.c **** 	/* Set Flash Cycles based on max possible frequency in case a glitch occurs during ClockSetup(). *
 324:.\Generated_Source\PSoC5/cyfitter_cfg.c **** 	CY_SET_XTND_REG8((void CYFAR *)(CYREG_CACHE_CC_CTL), (((CYDEV_INSTRUCT_CACHE_ENABLED) != 0) ? 0x61
 388              		.loc 1 324 0
 389 0072 0F4D     		ldr	r5, .L27+24
ARM GAS  C:\Users\user\AppData\Local\Temp\ccYiXozg.s 			page 14


 390 0074 6123     		movs	r3, #97
 391 0076 2B70     		strb	r3, [r5]
 325:.\Generated_Source\PSoC5/cyfitter_cfg.c **** 	/* Setup clocks based on selections from Clock DWR */
 326:.\Generated_Source\PSoC5/cyfitter_cfg.c **** 	ClockSetup();
 392              		.loc 1 326 0
 393 0078 FFF7FEFF 		bl	ClockSetup
 394              	.LVL27:
 327:.\Generated_Source\PSoC5/cyfitter_cfg.c **** 	/* Set Flash Cycles based on newly configured 24.00MHz Bus Clock. */
 328:.\Generated_Source\PSoC5/cyfitter_cfg.c **** 	CY_SET_XTND_REG8((void CYFAR *)(CYREG_CACHE_CC_CTL), (((CYDEV_INSTRUCT_CACHE_ENABLED) != 0) ? 0x81
 395              		.loc 1 328 0
 396 007c 8123     		movs	r3, #129
 397 007e 2B70     		strb	r3, [r5]
 329:.\Generated_Source\PSoC5/cyfitter_cfg.c **** 	CY_SET_XTND_REG8((void CYFAR *)(CYREG_PANTHER_WAITPIPE), 0x01u);
 398              		.loc 1 329 0
 399 0080 0122     		movs	r2, #1
 400 0082 0C4B     		ldr	r3, .L27+28
 401 0084 1A70     		strb	r2, [r3]
 330:.\Generated_Source\PSoC5/cyfitter_cfg.c **** 
 331:.\Generated_Source\PSoC5/cyfitter_cfg.c **** 	/* Perform basic analog initialization to defaults */
 332:.\Generated_Source\PSoC5/cyfitter_cfg.c **** 	AnalogSetDefault();
 402              		.loc 1 332 0
 403 0086 FFF7FEFF 		bl	AnalogSetDefault
 404              	.LVL28:
 333:.\Generated_Source\PSoC5/cyfitter_cfg.c **** 
 334:.\Generated_Source\PSoC5/cyfitter_cfg.c **** 	/* Configure alternate active mode */
 335:.\Generated_Source\PSoC5/cyfitter_cfg.c **** 	CYCONFIGCPY((void CYFAR *)CYDEV_PM_STBY_BASE, (const void CYFAR *)CYDEV_PM_ACT_BASE, 14u);
 405              		.loc 1 335 0
 406 008a 0B48     		ldr	r0, .L27+32
 407 008c 2146     		mov	r1, r4
 408 008e 0E22     		movs	r2, #14
 409 0090 FFF7FEFF 		bl	CYCONFIGCPY
 410              	.LVL29:
 411 0094 38BD     		pop	{r3, r4, r5, pc}
 412              	.L28:
 413 0096 00BF     		.align	2
 414              	.L27:
 415 0098 E8460040 		.word	1073759976
 416 009c 00000000 		.word	.LANCHOR0
 417 00a0 03500140 		.word	1073827843
 418 00a4 A0430040 		.word	1073759136
 419 00a8 02510040 		.word	1073762562
 420 00ac 22430040 		.word	1073759010
 421 00b0 00480040 		.word	1073760256
 422 00b4 04000840 		.word	1074266116
 423 00b8 B0430040 		.word	1073759152
 424              		.cfi_endproc
 425              	.LFE7:
 426              		.size	cyfitter_cfg, .-cyfitter_cfg
 427              		.section	.rodata
 428              		.align	2
 429              		.set	.LANCHOR0,. + 0
 430              		.type	cfg_memset_list.4859, %object
 431              		.size	cfg_memset_list.4859, 48
 432              	cfg_memset_list.4859:
 433 0000 10510040 		.word	1073762576
 434 0004 6000     		.short	96
 435 0006 C0510040 		.4byte	1073762752
ARM GAS  C:\Users\user\AppData\Local\Temp\ccYiXozg.s 			page 15


 436 000a 1000     		.short	16
 437 000c F0510040 		.word	1073762800
 438 0010 1000     		.short	16
 439 0012 00000140 		.4byte	1073807360
 440 0016 0010     		.short	4096
 441 0018 00140140 		.word	1073812480
 442 001c 0008     		.short	2048
 443 001e 00400140 		.4byte	1073823744
 444 0022 000A     		.short	2560
 445 0024 004C0140 		.word	1073826816
 446 0028 0002     		.short	512
 447 002a 00500140 		.4byte	1073827840
 448 002e 2000     		.short	32
 449              		.text
 450              	.Letext0:
 451              		.file 2 "c:\\program files (x86)\\cypress\\psoc creator\\3.3\\psoc creator\\import\\gnu\\arm\\4.9.
 452              		.file 3 ".\\Generated_Source\\PSoC5\\cytypes.h"
 453              		.file 4 ".\\Generated_Source\\PSoC5\\CyLib.h"