ARM GAS  C:\Users\user\AppData\Local\Temp\ccVIJg3O.s 			page 1


   1              		.syntax unified
   2              		.cpu cortex-m3
   3              		.fpu softvfp
   4              		.eabi_attribute 20, 1
   5              		.eabi_attribute 21, 1
   6              		.eabi_attribute 23, 3
   7              		.eabi_attribute 24, 1
   8              		.eabi_attribute 25, 1
   9              		.eabi_attribute 26, 1
  10              		.eabi_attribute 30, 1
  11              		.eabi_attribute 34, 1
  12              		.eabi_attribute 18, 4
  13              		.thumb
  14              		.file	"main.c"
  15              		.text
  16              	.Ltext0:
  17              		.cfi_sections	.debug_frame
  18              		.section	.text.isr_1_interrupt,"ax",%progbits
  19              		.align	2
  20              		.global	isr_1_interrupt
  21              		.thumb
  22              		.thumb_func
  23              		.type	isr_1_interrupt, %function
  24              	isr_1_interrupt:
  25              	.LFB63:
  26              		.file 1 ".\\main.c"
   1:.\main.c      **** /* ========================================
   2:.\main.c      ****  *
   3:.\main.c      ****  * Copyright YOUR COMPANY, THE YEAR
   4:.\main.c      ****  * All Rights Reserved
   5:.\main.c      ****  * UNPUBLISHED, LICENSED SOFTWARE.
   6:.\main.c      ****  *
   7:.\main.c      ****  * CONFIDENTIAL AND PROPRIETARY INFORMATION
   8:.\main.c      ****  * WHICH IS THE PROPERTY OF your company.
   9:.\main.c      ****  *
  10:.\main.c      ****  * ========================================
  11:.\main.c      **** */
  12:.\main.c      **** #include <project.h>
  13:.\main.c      **** 
  14:.\main.c      **** uint16 tab_led_intensity[4] = {0, 85, 170, 255};
  15:.\main.c      **** uint8_t led_intensity_index = 0;
  16:.\main.c      **** 
  17:.\main.c      **** CY_ISR(isr_1_interrupt)
  18:.\main.c      **** {
  27              		.loc 1 18 0
  28              		.cfi_startproc
  29              		@ args = 0, pretend = 0, frame = 0
  30              		@ frame_needed = 0, uses_anonymous_args = 0
  31 0000 08B5     		push	{r3, lr}
  32              		.cfi_def_cfa_offset 8
  33              		.cfi_offset 3, -8
  34              		.cfi_offset 14, -4
  19:.\main.c      ****  /* ISR Code here */
  20:.\main.c      ****     led_intensity_index = (led_intensity_index + 1) % 4;
  35              		.loc 1 20 0
  36 0002 094B     		ldr	r3, .L4
  37 0004 1B78     		ldrb	r3, [r3]	@ zero_extendqisi2
ARM GAS  C:\Users\user\AppData\Local\Temp\ccVIJg3O.s 			page 2


  38 0006 0133     		adds	r3, r3, #1
  39 0008 03F00303 		and	r3, r3, #3
  40 000c DBB2     		uxtb	r3, r3
  41 000e 064A     		ldr	r2, .L4
  42 0010 1370     		strb	r3, [r2]
  21:.\main.c      ****     
  22:.\main.c      ****     PWM_2_WriteCompare(tab_led_intensity[led_intensity_index]);
  43              		.loc 1 22 0
  44 0012 064A     		ldr	r2, .L4+4
  45 0014 12F81300 		ldrb	r0, [r2, r3, lsl #1]	@ zero_extendqisi2
  46 0018 FFF7FEFF 		bl	PWM_2_WriteCompare
  47              	.LVL0:
  23:.\main.c      ****     CyDelay(1000);
  48              		.loc 1 23 0
  49 001c 4FF47A70 		mov	r0, #1000
  50 0020 FFF7FEFF 		bl	CyDelay
  51              	.LVL1:
  52 0024 08BD     		pop	{r3, pc}
  53              	.L5:
  54 0026 00BF     		.align	2
  55              	.L4:
  56 0028 00000000 		.word	.LANCHOR0
  57 002c 00000000 		.word	.LANCHOR1
  58              		.cfi_endproc
  59              	.LFE63:
  60              		.size	isr_1_interrupt, .-isr_1_interrupt
  61              		.section	.text.main,"ax",%progbits
  62              		.align	2
  63              		.global	main
  64              		.thumb
  65              		.thumb_func
  66              		.type	main, %function
  67              	main:
  68              	.LFB64:
  24:.\main.c      **** }
  25:.\main.c      **** int main()
  26:.\main.c      **** {
  69              		.loc 1 26 0
  70              		.cfi_startproc
  71              		@ Volatile: function does not return.
  72              		@ args = 0, pretend = 0, frame = 0
  73              		@ frame_needed = 0, uses_anonymous_args = 0
  74 0000 08B5     		push	{r3, lr}
  75              		.cfi_def_cfa_offset 8
  76              		.cfi_offset 3, -8
  77              		.cfi_offset 14, -4
  27:.\main.c      ****     CyGlobalIntEnable; /* Enable global interrupts. */
  78              		.loc 1 27 0
  79              	@ 27 ".\main.c" 1
  80 0002 62B6     		CPSIE   i
  81              	@ 0 "" 2
  28:.\main.c      **** 
  29:.\main.c      ****     /* Place your initialization/startup code here (e.g. MyInst_Start()) */
  30:.\main.c      ****     PWM_1_Start();
  82              		.loc 1 30 0
  83              		.thumb
  84 0004 FFF7FEFF 		bl	PWM_1_Start
ARM GAS  C:\Users\user\AppData\Local\Temp\ccVIJg3O.s 			page 3


  85              	.LVL2:
  31:.\main.c      ****     
  32:.\main.c      ****     PWM_2_Start();
  86              		.loc 1 32 0
  87 0008 FFF7FEFF 		bl	PWM_2_Start
  88              	.LVL3:
  33:.\main.c      **** 
  34:.\main.c      ****     PGA_1_Start();
  89              		.loc 1 34 0
  90 000c FFF7FEFF 		bl	PGA_1_Start
  91              	.LVL4:
  35:.\main.c      ****     
  36:.\main.c      ****     Comp_1_Start();
  92              		.loc 1 36 0
  93 0010 FFF7FEFF 		bl	Comp_1_Start
  94              	.LVL5:
  37:.\main.c      ****     
  38:.\main.c      ****         //Start extern interrupt
  39:.\main.c      ****     isr_1_StartEx(isr_1_interrupt);
  95              		.loc 1 39 0
  96 0014 0148     		ldr	r0, .L9
  97 0016 FFF7FEFF 		bl	isr_1_StartEx
  98              	.LVL6:
  99              	.L7:
  40:.\main.c      ****     
  41:.\main.c      ****     for(;;)
  42:.\main.c      ****     {
  43:.\main.c      ****         /* Place your application code here. */
  44:.\main.c      ****     }
 100              		.loc 1 44 0 discriminator 1
 101 001a FEE7     		b	.L7
 102              	.L10:
 103              		.align	2
 104              	.L9:
 105 001c 00000000 		.word	isr_1_interrupt
 106              		.cfi_endproc
 107              	.LFE64:
 108              		.size	main, .-main
 109              		.global	led_intensity_index
 110              		.global	tab_led_intensity
 111              		.data
 112              		.align	2
 113              		.set	.LANCHOR1,. + 0
 114              		.type	tab_led_intensity, %object
 115              		.size	tab_led_intensity, 8
 116              	tab_led_intensity:
 117 0000 0000     		.short	0
 118 0002 5500     		.short	85
 119 0004 AA00     		.short	170
 120 0006 FF00     		.short	255
 121              		.bss
 122              		.set	.LANCHOR0,. + 0
 123              		.type	led_intensity_index, %object
 124              		.size	led_intensity_index, 1
 125              	led_intensity_index:
 126 0000 00       		.space	1
 127              		.text
ARM GAS  C:\Users\user\AppData\Local\Temp\ccVIJg3O.s 			page 4


 128              	.Letext0:
 129              		.file 2 "c:\\program files (x86)\\cypress\\psoc creator\\3.3\\psoc creator\\import\\gnu\\arm\\4.9.
 130              		.file 3 "c:\\program files (x86)\\cypress\\psoc creator\\3.3\\psoc creator\\import\\gnu\\arm\\4.9.
 131              		.file 4 "Generated_Source\\PSoC5/cytypes.h"
 132              		.file 5 "Generated_Source\\PSoC5/core_cm3.h"
 133              		.file 6 "Generated_Source\\PSoC5/PWM_2.h"
 134              		.file 7 "Generated_Source\\PSoC5/CyLib.h"
 135              		.file 8 "Generated_Source\\PSoC5/PWM_1.h"
 136              		.file 9 "Generated_Source\\PSoC5/PGA_1.h"
 137              		.file 10 "Generated_Source\\PSoC5/Comp_1.h"
 138              		.file 11 "Generated_Source\\PSoC5/isr_1.h"