ARM GAS  C:\Users\user\AppData\Local\Temp\ccdjtUDM.s 			page 1


   1              		.syntax unified
   2              		.cpu cortex-m3
   3              		.fpu softvfp
   4              		.eabi_attribute 20, 1
   5              		.eabi_attribute 21, 1
   6              		.eabi_attribute 23, 3
   7              		.eabi_attribute 24, 1
   8              		.eabi_attribute 25, 1
   9              		.eabi_attribute 26, 1
  10              		.eabi_attribute 30, 1
  11              		.eabi_attribute 34, 1
  12              		.eabi_attribute 18, 4
  13              		.thumb
  14              		.file	"cyfitter_cfg.c"
  15              		.text
  16              	.Ltext0:
  17              		.cfi_sections	.debug_frame
  18              		.section	.text.CyClockStartupError,"ax",%progbits
  19              		.align	2
  20              		.thumb
  21              		.thumb_func
  22              		.type	CyClockStartupError, %function
  23              	CyClockStartupError:
  24              	.LFB3:
  25              		.file 1 ".\\Generated_Source\\PSoC5\\cyfitter_cfg.c"
   1:.\Generated_Source\PSoC5/cyfitter_cfg.c **** /*******************************************************************************
   2:.\Generated_Source\PSoC5/cyfitter_cfg.c **** * File Name: cyfitter_cfg.c
   3:.\Generated_Source\PSoC5/cyfitter_cfg.c **** * 
   4:.\Generated_Source\PSoC5/cyfitter_cfg.c **** * PSoC Creator  3.3 CP2
   5:.\Generated_Source\PSoC5/cyfitter_cfg.c **** *
   6:.\Generated_Source\PSoC5/cyfitter_cfg.c **** * Description:
   7:.\Generated_Source\PSoC5/cyfitter_cfg.c **** * This file contains device initialization code.
   8:.\Generated_Source\PSoC5/cyfitter_cfg.c **** * Except for the user defined sections in CyClockStartupError(), this file should not be modified.
   9:.\Generated_Source\PSoC5/cyfitter_cfg.c **** * This file is automatically generated by PSoC Creator.
  10:.\Generated_Source\PSoC5/cyfitter_cfg.c **** *
  11:.\Generated_Source\PSoC5/cyfitter_cfg.c **** ********************************************************************************
  12:.\Generated_Source\PSoC5/cyfitter_cfg.c **** * Copyright (c) 2007-2015 Cypress Semiconductor.  All rights reserved.
  13:.\Generated_Source\PSoC5/cyfitter_cfg.c **** * You may use this file only in accordance with the license, terms, conditions, 
  14:.\Generated_Source\PSoC5/cyfitter_cfg.c **** * disclaimers, and limitations in the end user license agreement accompanying 
  15:.\Generated_Source\PSoC5/cyfitter_cfg.c **** * the software package with which this file was provided.
  16:.\Generated_Source\PSoC5/cyfitter_cfg.c **** ********************************************************************************/
  17:.\Generated_Source\PSoC5/cyfitter_cfg.c **** 
  18:.\Generated_Source\PSoC5/cyfitter_cfg.c **** #include <string.h>
  19:.\Generated_Source\PSoC5/cyfitter_cfg.c **** #include "cytypes.h"
  20:.\Generated_Source\PSoC5/cyfitter_cfg.c **** #include "cydevice_trm.h"
  21:.\Generated_Source\PSoC5/cyfitter_cfg.c **** #include "cyfitter.h"
  22:.\Generated_Source\PSoC5/cyfitter_cfg.c **** #include "CyLib.h"
  23:.\Generated_Source\PSoC5/cyfitter_cfg.c **** #include "cyfitter_cfg.h"
  24:.\Generated_Source\PSoC5/cyfitter_cfg.c **** 
  25:.\Generated_Source\PSoC5/cyfitter_cfg.c **** #define CY_NEED_CYCLOCKSTARTUPERROR 1
  26:.\Generated_Source\PSoC5/cyfitter_cfg.c **** 
  27:.\Generated_Source\PSoC5/cyfitter_cfg.c **** 
  28:.\Generated_Source\PSoC5/cyfitter_cfg.c **** #if defined(__GNUC__) || defined(__ARMCC_VERSION)
  29:.\Generated_Source\PSoC5/cyfitter_cfg.c ****     #define CYPACKED 
  30:.\Generated_Source\PSoC5/cyfitter_cfg.c ****     #define CYPACKED_ATTR __attribute__ ((packed))
  31:.\Generated_Source\PSoC5/cyfitter_cfg.c ****     #define CYALIGNED __attribute__ ((aligned))
  32:.\Generated_Source\PSoC5/cyfitter_cfg.c ****     #define CY_CFG_UNUSED __attribute__ ((unused))
ARM GAS  C:\Users\user\AppData\Local\Temp\ccdjtUDM.s 			page 2


  33:.\Generated_Source\PSoC5/cyfitter_cfg.c ****     #ifndef CY_CFG_SECTION
  34:.\Generated_Source\PSoC5/cyfitter_cfg.c ****         #define CY_CFG_SECTION __attribute__ ((section(".psocinit")))
  35:.\Generated_Source\PSoC5/cyfitter_cfg.c ****     #endif
  36:.\Generated_Source\PSoC5/cyfitter_cfg.c ****     
  37:.\Generated_Source\PSoC5/cyfitter_cfg.c ****     #if defined(__ARMCC_VERSION)
  38:.\Generated_Source\PSoC5/cyfitter_cfg.c ****         #define CY_CFG_MEMORY_BARRIER() __memory_changed()
  39:.\Generated_Source\PSoC5/cyfitter_cfg.c ****     #else
  40:.\Generated_Source\PSoC5/cyfitter_cfg.c ****         #define CY_CFG_MEMORY_BARRIER() __sync_synchronize()
  41:.\Generated_Source\PSoC5/cyfitter_cfg.c ****     #endif
  42:.\Generated_Source\PSoC5/cyfitter_cfg.c ****     
  43:.\Generated_Source\PSoC5/cyfitter_cfg.c **** #elif defined(__ICCARM__)
  44:.\Generated_Source\PSoC5/cyfitter_cfg.c ****     #include <intrinsics.h>
  45:.\Generated_Source\PSoC5/cyfitter_cfg.c **** 
  46:.\Generated_Source\PSoC5/cyfitter_cfg.c ****     #define CYPACKED __packed
  47:.\Generated_Source\PSoC5/cyfitter_cfg.c ****     #define CYPACKED_ATTR 
  48:.\Generated_Source\PSoC5/cyfitter_cfg.c ****     #define CYALIGNED _Pragma("data_alignment=4")
  49:.\Generated_Source\PSoC5/cyfitter_cfg.c ****     #define CY_CFG_UNUSED _Pragma("diag_suppress=Pe177")
  50:.\Generated_Source\PSoC5/cyfitter_cfg.c ****     #define CY_CFG_SECTION _Pragma("location=\".psocinit\"")
  51:.\Generated_Source\PSoC5/cyfitter_cfg.c ****     
  52:.\Generated_Source\PSoC5/cyfitter_cfg.c ****     #define CY_CFG_MEMORY_BARRIER() __DMB()
  53:.\Generated_Source\PSoC5/cyfitter_cfg.c ****     
  54:.\Generated_Source\PSoC5/cyfitter_cfg.c **** #else
  55:.\Generated_Source\PSoC5/cyfitter_cfg.c ****     #error Unsupported toolchain
  56:.\Generated_Source\PSoC5/cyfitter_cfg.c **** #endif
  57:.\Generated_Source\PSoC5/cyfitter_cfg.c **** 
  58:.\Generated_Source\PSoC5/cyfitter_cfg.c **** 
  59:.\Generated_Source\PSoC5/cyfitter_cfg.c **** CY_CFG_UNUSED
  60:.\Generated_Source\PSoC5/cyfitter_cfg.c **** static void CYMEMZERO(void *s, size_t n);
  61:.\Generated_Source\PSoC5/cyfitter_cfg.c **** CY_CFG_UNUSED
  62:.\Generated_Source\PSoC5/cyfitter_cfg.c **** static void CYMEMZERO(void *s, size_t n)
  63:.\Generated_Source\PSoC5/cyfitter_cfg.c **** {
  64:.\Generated_Source\PSoC5/cyfitter_cfg.c **** 	(void)memset(s, 0, n);
  65:.\Generated_Source\PSoC5/cyfitter_cfg.c **** }
  66:.\Generated_Source\PSoC5/cyfitter_cfg.c **** CY_CFG_UNUSED
  67:.\Generated_Source\PSoC5/cyfitter_cfg.c **** static void CYCONFIGCPY(void *dest, const void *src, size_t n);
  68:.\Generated_Source\PSoC5/cyfitter_cfg.c **** CY_CFG_UNUSED
  69:.\Generated_Source\PSoC5/cyfitter_cfg.c **** static void CYCONFIGCPY(void *dest, const void *src, size_t n)
  70:.\Generated_Source\PSoC5/cyfitter_cfg.c **** {
  71:.\Generated_Source\PSoC5/cyfitter_cfg.c **** 	(void)memcpy(dest, src, n);
  72:.\Generated_Source\PSoC5/cyfitter_cfg.c **** }
  73:.\Generated_Source\PSoC5/cyfitter_cfg.c **** CY_CFG_UNUSED
  74:.\Generated_Source\PSoC5/cyfitter_cfg.c **** static void CYCONFIGCPYCODE(void *dest, const void *src, size_t n);
  75:.\Generated_Source\PSoC5/cyfitter_cfg.c **** CY_CFG_UNUSED
  76:.\Generated_Source\PSoC5/cyfitter_cfg.c **** static void CYCONFIGCPYCODE(void *dest, const void *src, size_t n)
  77:.\Generated_Source\PSoC5/cyfitter_cfg.c **** {
  78:.\Generated_Source\PSoC5/cyfitter_cfg.c **** 	(void)memcpy(dest, src, n);
  79:.\Generated_Source\PSoC5/cyfitter_cfg.c **** }
  80:.\Generated_Source\PSoC5/cyfitter_cfg.c **** 
  81:.\Generated_Source\PSoC5/cyfitter_cfg.c **** 
  82:.\Generated_Source\PSoC5/cyfitter_cfg.c **** 
  83:.\Generated_Source\PSoC5/cyfitter_cfg.c **** /* Clock startup error codes                                                   */
  84:.\Generated_Source\PSoC5/cyfitter_cfg.c **** #define CYCLOCKSTART_NO_ERROR    0u
  85:.\Generated_Source\PSoC5/cyfitter_cfg.c **** #define CYCLOCKSTART_XTAL_ERROR  1u
  86:.\Generated_Source\PSoC5/cyfitter_cfg.c **** #define CYCLOCKSTART_32KHZ_ERROR 2u
  87:.\Generated_Source\PSoC5/cyfitter_cfg.c **** #define CYCLOCKSTART_PLL_ERROR   3u
  88:.\Generated_Source\PSoC5/cyfitter_cfg.c **** 
  89:.\Generated_Source\PSoC5/cyfitter_cfg.c **** #ifdef CY_NEED_CYCLOCKSTARTUPERROR
ARM GAS  C:\Users\user\AppData\Local\Temp\ccdjtUDM.s 			page 3


  90:.\Generated_Source\PSoC5/cyfitter_cfg.c **** /*******************************************************************************
  91:.\Generated_Source\PSoC5/cyfitter_cfg.c **** * Function Name: CyClockStartupError
  92:.\Generated_Source\PSoC5/cyfitter_cfg.c **** ********************************************************************************
  93:.\Generated_Source\PSoC5/cyfitter_cfg.c **** * Summary:
  94:.\Generated_Source\PSoC5/cyfitter_cfg.c **** *  If an error is encountered during clock configuration (crystal startup error,
  95:.\Generated_Source\PSoC5/cyfitter_cfg.c **** *  PLL lock error, etc.), the system will end up here.  Unless reimplemented by
  96:.\Generated_Source\PSoC5/cyfitter_cfg.c **** *  the customer, this function will stop in an infinite loop.
  97:.\Generated_Source\PSoC5/cyfitter_cfg.c **** *
  98:.\Generated_Source\PSoC5/cyfitter_cfg.c **** * Parameters:
  99:.\Generated_Source\PSoC5/cyfitter_cfg.c **** *   void
 100:.\Generated_Source\PSoC5/cyfitter_cfg.c **** *
 101:.\Generated_Source\PSoC5/cyfitter_cfg.c **** * Return:
 102:.\Generated_Source\PSoC5/cyfitter_cfg.c **** *   void
 103:.\Generated_Source\PSoC5/cyfitter_cfg.c **** *
 104:.\Generated_Source\PSoC5/cyfitter_cfg.c **** *******************************************************************************/
 105:.\Generated_Source\PSoC5/cyfitter_cfg.c **** CY_CFG_UNUSED
 106:.\Generated_Source\PSoC5/cyfitter_cfg.c **** static void CyClockStartupError(uint8 errorCode);
 107:.\Generated_Source\PSoC5/cyfitter_cfg.c **** CY_CFG_UNUSED
 108:.\Generated_Source\PSoC5/cyfitter_cfg.c **** static void CyClockStartupError(uint8 errorCode)
 109:.\Generated_Source\PSoC5/cyfitter_cfg.c **** {
  26              		.loc 1 109 0
  27              		.cfi_startproc
  28              		@ Volatile: function does not return.
  29              		@ args = 0, pretend = 0, frame = 0
  30              		@ frame_needed = 0, uses_anonymous_args = 0
  31              		@ link register save eliminated.
  32              	.LVL0:
  33              	.L2:
 110:.\Generated_Source\PSoC5/cyfitter_cfg.c ****     /* To remove the compiler warning if errorCode not used.                */
 111:.\Generated_Source\PSoC5/cyfitter_cfg.c ****     errorCode = errorCode;
 112:.\Generated_Source\PSoC5/cyfitter_cfg.c **** 
 113:.\Generated_Source\PSoC5/cyfitter_cfg.c ****     /* `#START CyClockStartupError` */
 114:.\Generated_Source\PSoC5/cyfitter_cfg.c **** 
 115:.\Generated_Source\PSoC5/cyfitter_cfg.c ****     /* If we have a clock startup error (bad MHz crystal, PLL lock, etc.),  */
 116:.\Generated_Source\PSoC5/cyfitter_cfg.c ****     /* we will end up here to allow the customer to implement something to  */
 117:.\Generated_Source\PSoC5/cyfitter_cfg.c ****     /* deal with the clock condition.                                       */
 118:.\Generated_Source\PSoC5/cyfitter_cfg.c **** 
 119:.\Generated_Source\PSoC5/cyfitter_cfg.c ****     /* `#END` */
 120:.\Generated_Source\PSoC5/cyfitter_cfg.c **** 
 121:.\Generated_Source\PSoC5/cyfitter_cfg.c ****     /* If nothing else, stop here since the clocks have not started         */
 122:.\Generated_Source\PSoC5/cyfitter_cfg.c ****     /* correctly.                                                           */
 123:.\Generated_Source\PSoC5/cyfitter_cfg.c ****     while(1) {}
  34              		.loc 1 123 0 discriminator 1
  35 0000 FEE7     		b	.L2
  36              		.cfi_endproc
  37              	.LFE3:
  38              		.size	CyClockStartupError, .-CyClockStartupError
  39 0002 00BF     		.section	.text.cfg_write_bytes32,"ax",%progbits
  40              		.align	2
  41              		.thumb
  42              		.thumb_func
  43              		.type	cfg_write_bytes32, %function
  44              	cfg_write_bytes32:
  45              	.LFB4:
 124:.\Generated_Source\PSoC5/cyfitter_cfg.c **** }
 125:.\Generated_Source\PSoC5/cyfitter_cfg.c **** #endif
 126:.\Generated_Source\PSoC5/cyfitter_cfg.c **** 
ARM GAS  C:\Users\user\AppData\Local\Temp\ccdjtUDM.s 			page 4


 127:.\Generated_Source\PSoC5/cyfitter_cfg.c **** #define CY_CFG_BASE_ADDR_COUNT 23u
 128:.\Generated_Source\PSoC5/cyfitter_cfg.c **** CYPACKED typedef struct
 129:.\Generated_Source\PSoC5/cyfitter_cfg.c **** {
 130:.\Generated_Source\PSoC5/cyfitter_cfg.c **** 	uint8 offset;
 131:.\Generated_Source\PSoC5/cyfitter_cfg.c **** 	uint8 value;
 132:.\Generated_Source\PSoC5/cyfitter_cfg.c **** } CYPACKED_ATTR cy_cfg_addrvalue_t;
 133:.\Generated_Source\PSoC5/cyfitter_cfg.c **** 
 134:.\Generated_Source\PSoC5/cyfitter_cfg.c **** #define cy_cfg_addr_table ((const uint32 CYFAR *)0x48000000u)
 135:.\Generated_Source\PSoC5/cyfitter_cfg.c **** #define cy_cfg_data_table ((const cy_cfg_addrvalue_t CYFAR *)0x4800005Cu)
 136:.\Generated_Source\PSoC5/cyfitter_cfg.c **** 
 137:.\Generated_Source\PSoC5/cyfitter_cfg.c **** /* IOPINS0_8 Address: CYREG_PRT15_DR Size (bytes): 10 */
 138:.\Generated_Source\PSoC5/cyfitter_cfg.c **** #define BS_IOPINS0_8_VAL ((const uint8 CYFAR *)0x4800012Cu)
 139:.\Generated_Source\PSoC5/cyfitter_cfg.c **** 
 140:.\Generated_Source\PSoC5/cyfitter_cfg.c **** /* IOPINS0_1 Address: CYREG_PRT1_DM0 Size (bytes): 8 */
 141:.\Generated_Source\PSoC5/cyfitter_cfg.c **** #define BS_IOPINS0_1_VAL ((const uint8 CYFAR *)0x48000138u)
 142:.\Generated_Source\PSoC5/cyfitter_cfg.c **** 
 143:.\Generated_Source\PSoC5/cyfitter_cfg.c **** /* IOPINS0_2 Address: CYREG_PRT2_DM0 Size (bytes): 8 */
 144:.\Generated_Source\PSoC5/cyfitter_cfg.c **** #define BS_IOPINS0_2_VAL ((const uint8 CYFAR *)0x48000140u)
 145:.\Generated_Source\PSoC5/cyfitter_cfg.c **** 
 146:.\Generated_Source\PSoC5/cyfitter_cfg.c **** /* IOPINS0_3 Address: CYREG_PRT3_DM0 Size (bytes): 8 */
 147:.\Generated_Source\PSoC5/cyfitter_cfg.c **** #define BS_IOPINS0_3_VAL ((const uint8 CYFAR *)0x48000148u)
 148:.\Generated_Source\PSoC5/cyfitter_cfg.c **** 
 149:.\Generated_Source\PSoC5/cyfitter_cfg.c **** /* CYDEV_CLKDIST_ACFG0_CFG0 Address: CYREG_CLKDIST_ACFG0_CFG0 Size (bytes): 4 */
 150:.\Generated_Source\PSoC5/cyfitter_cfg.c **** #define BS_CYDEV_CLKDIST_ACFG0_CFG0_VAL ((const uint8 CYFAR *)0x48000150u)
 151:.\Generated_Source\PSoC5/cyfitter_cfg.c **** 
 152:.\Generated_Source\PSoC5/cyfitter_cfg.c **** 
 153:.\Generated_Source\PSoC5/cyfitter_cfg.c **** /*******************************************************************************
 154:.\Generated_Source\PSoC5/cyfitter_cfg.c **** * Function Name: cfg_write_bytes32
 155:.\Generated_Source\PSoC5/cyfitter_cfg.c **** ********************************************************************************
 156:.\Generated_Source\PSoC5/cyfitter_cfg.c **** * Summary:
 157:.\Generated_Source\PSoC5/cyfitter_cfg.c **** *  This function is used for setting up the chip configuration areas that
 158:.\Generated_Source\PSoC5/cyfitter_cfg.c **** *  contain relatively sparse data.
 159:.\Generated_Source\PSoC5/cyfitter_cfg.c **** *
 160:.\Generated_Source\PSoC5/cyfitter_cfg.c **** * Parameters:
 161:.\Generated_Source\PSoC5/cyfitter_cfg.c **** *   void
 162:.\Generated_Source\PSoC5/cyfitter_cfg.c **** *
 163:.\Generated_Source\PSoC5/cyfitter_cfg.c **** * Return:
 164:.\Generated_Source\PSoC5/cyfitter_cfg.c **** *   void
 165:.\Generated_Source\PSoC5/cyfitter_cfg.c **** *
 166:.\Generated_Source\PSoC5/cyfitter_cfg.c **** *******************************************************************************/
 167:.\Generated_Source\PSoC5/cyfitter_cfg.c **** static void cfg_write_bytes32(const uint32 addr_table[], const cy_cfg_addrvalue_t data_table[]);
 168:.\Generated_Source\PSoC5/cyfitter_cfg.c **** static void cfg_write_bytes32(const uint32 addr_table[], const cy_cfg_addrvalue_t data_table[])
 169:.\Generated_Source\PSoC5/cyfitter_cfg.c **** {
  46              		.loc 1 169 0
  47              		.cfi_startproc
  48              		@ args = 0, pretend = 0, frame = 0
  49              		@ frame_needed = 0, uses_anonymous_args = 0
  50              		@ link register save eliminated.
  51              	.LVL1:
  52 0000 F0B4     		push	{r4, r5, r6, r7}
  53              		.cfi_def_cfa_offset 16
  54              		.cfi_offset 4, -16
  55              		.cfi_offset 5, -12
  56              		.cfi_offset 6, -8
  57              		.cfi_offset 7, -4
  58              	.LVL2:
 170:.\Generated_Source\PSoC5/cyfitter_cfg.c **** 	/* For 32-bit little-endian architectures */
ARM GAS  C:\Users\user\AppData\Local\Temp\ccdjtUDM.s 			page 5


 171:.\Generated_Source\PSoC5/cyfitter_cfg.c **** 	uint32 i, j = 0u;
  59              		.loc 1 171 0
  60 0002 0022     		movs	r2, #0
 172:.\Generated_Source\PSoC5/cyfitter_cfg.c **** 	for (i = 0u; i < CY_CFG_BASE_ADDR_COUNT; i++)
  61              		.loc 1 172 0
  62 0004 1746     		mov	r7, r2
  63 0006 11E0     		b	.L4
  64              	.LVL3:
  65              	.L7:
  66              	.LBB2:
 173:.\Generated_Source\PSoC5/cyfitter_cfg.c **** 	{
 174:.\Generated_Source\PSoC5/cyfitter_cfg.c **** 		uint32 baseAddr = addr_table[i];
  67              		.loc 1 174 0
  68 0008 50F82760 		ldr	r6, [r0, r7, lsl #2]
  69              	.LVL4:
 175:.\Generated_Source\PSoC5/cyfitter_cfg.c **** 		uint8 count = (uint8)baseAddr;
  70              		.loc 1 175 0
  71 000c F3B2     		uxtb	r3, r6
  72              	.LVL5:
 176:.\Generated_Source\PSoC5/cyfitter_cfg.c **** 		baseAddr &= 0xFFFFFF00u;
  73              		.loc 1 176 0
  74 000e 26F0FF06 		bic	r6, r6, #255
  75              	.LVL6:
 177:.\Generated_Source\PSoC5/cyfitter_cfg.c **** 		while (count != 0u)
  76              		.loc 1 177 0
  77 0012 08E0     		b	.L5
  78              	.L6:
 178:.\Generated_Source\PSoC5/cyfitter_cfg.c **** 		{
 179:.\Generated_Source\PSoC5/cyfitter_cfg.c **** 			CY_SET_XTND_REG8((void CYFAR *)(baseAddr + data_table[j].offset), data_table[j].value);
  79              		.loc 1 179 0
  80 0014 01EB4205 		add	r5, r1, r2, lsl #1
  81 0018 11F81240 		ldrb	r4, [r1, r2, lsl #1]	@ zero_extendqisi2
  82 001c 6D78     		ldrb	r5, [r5, #1]	@ zero_extendqisi2
  83 001e A555     		strb	r5, [r4, r6]
 180:.\Generated_Source\PSoC5/cyfitter_cfg.c **** 			j++;
  84              		.loc 1 180 0
  85 0020 0132     		adds	r2, r2, #1
  86              	.LVL7:
 181:.\Generated_Source\PSoC5/cyfitter_cfg.c **** 			count--;
  87              		.loc 1 181 0
  88 0022 013B     		subs	r3, r3, #1
  89              	.LVL8:
  90 0024 DBB2     		uxtb	r3, r3
  91              	.LVL9:
  92              	.L5:
 177:.\Generated_Source\PSoC5/cyfitter_cfg.c **** 		{
  93              		.loc 1 177 0
  94 0026 002B     		cmp	r3, #0
  95 0028 F4D1     		bne	.L6
  96              	.LBE2:
 172:.\Generated_Source\PSoC5/cyfitter_cfg.c **** 	{
  97              		.loc 1 172 0 discriminator 2
  98 002a 0137     		adds	r7, r7, #1
  99              	.LVL10:
 100              	.L4:
 172:.\Generated_Source\PSoC5/cyfitter_cfg.c **** 	{
 101              		.loc 1 172 0 is_stmt 0 discriminator 1
ARM GAS  C:\Users\user\AppData\Local\Temp\ccdjtUDM.s 			page 6


 102 002c 162F     		cmp	r7, #22
 103 002e EBD9     		bls	.L7
 182:.\Generated_Source\PSoC5/cyfitter_cfg.c **** 		}
 183:.\Generated_Source\PSoC5/cyfitter_cfg.c **** 	}
 184:.\Generated_Source\PSoC5/cyfitter_cfg.c **** }
 104              		.loc 1 184 0 is_stmt 1
 105 0030 F0BC     		pop	{r4, r5, r6, r7}
 106              		.cfi_restore 7
 107              		.cfi_restore 6
 108              		.cfi_restore 5
 109              		.cfi_restore 4
 110              		.cfi_def_cfa_offset 0
 111              	.LVL11:
 112 0032 7047     		bx	lr
 113              		.cfi_endproc
 114              	.LFE4:
 115              		.size	cfg_write_bytes32, .-cfg_write_bytes32
 116              		.section	.text.AnalogSetDefault,"ax",%progbits
 117              		.align	2
 118              		.thumb
 119              		.thumb_func
 120              		.type	AnalogSetDefault, %function
 121              	AnalogSetDefault:
 122              	.LFB6:
 185:.\Generated_Source\PSoC5/cyfitter_cfg.c **** 
 186:.\Generated_Source\PSoC5/cyfitter_cfg.c **** /*******************************************************************************
 187:.\Generated_Source\PSoC5/cyfitter_cfg.c **** * Function Name: ClockSetup
 188:.\Generated_Source\PSoC5/cyfitter_cfg.c **** ********************************************************************************
 189:.\Generated_Source\PSoC5/cyfitter_cfg.c **** *
 190:.\Generated_Source\PSoC5/cyfitter_cfg.c **** * Summary:
 191:.\Generated_Source\PSoC5/cyfitter_cfg.c **** *  Performs the initialization of all of the clocks in the device based on the
 192:.\Generated_Source\PSoC5/cyfitter_cfg.c **** *  settings in the Clock tab of the DWR.  This includes enabling the requested
 193:.\Generated_Source\PSoC5/cyfitter_cfg.c **** *  clocks and setting the necessary dividers to produce the desired frequency. 
 194:.\Generated_Source\PSoC5/cyfitter_cfg.c **** *
 195:.\Generated_Source\PSoC5/cyfitter_cfg.c **** * Parameters:
 196:.\Generated_Source\PSoC5/cyfitter_cfg.c **** *  void
 197:.\Generated_Source\PSoC5/cyfitter_cfg.c **** *
 198:.\Generated_Source\PSoC5/cyfitter_cfg.c **** * Return:
 199:.\Generated_Source\PSoC5/cyfitter_cfg.c **** *  void
 200:.\Generated_Source\PSoC5/cyfitter_cfg.c **** *
 201:.\Generated_Source\PSoC5/cyfitter_cfg.c **** *******************************************************************************/
 202:.\Generated_Source\PSoC5/cyfitter_cfg.c **** static void ClockSetup(void);
 203:.\Generated_Source\PSoC5/cyfitter_cfg.c **** static void ClockSetup(void)
 204:.\Generated_Source\PSoC5/cyfitter_cfg.c **** {
 205:.\Generated_Source\PSoC5/cyfitter_cfg.c **** 	uint32 timeout;
 206:.\Generated_Source\PSoC5/cyfitter_cfg.c **** 	uint8 pllLock;
 207:.\Generated_Source\PSoC5/cyfitter_cfg.c **** 
 208:.\Generated_Source\PSoC5/cyfitter_cfg.c **** 
 209:.\Generated_Source\PSoC5/cyfitter_cfg.c **** 	/* Configure Digital Clocks based on settings from Clock DWR */
 210:.\Generated_Source\PSoC5/cyfitter_cfg.c **** 	CY_SET_XTND_REG16((void CYFAR *)(CYREG_CLKDIST_DCFG0_CFG0), 0x0000u);
 211:.\Generated_Source\PSoC5/cyfitter_cfg.c **** 	CY_SET_XTND_REG8((void CYFAR *)(CYREG_CLKDIST_DCFG0_CFG0 + 0x2u), 0x50u);
 212:.\Generated_Source\PSoC5/cyfitter_cfg.c **** 	CY_SET_XTND_REG16((void CYFAR *)(CYREG_CLKDIST_DCFG1_CFG0), 0x03E7u);
 213:.\Generated_Source\PSoC5/cyfitter_cfg.c **** 	CY_SET_XTND_REG8((void CYFAR *)(CYREG_CLKDIST_DCFG1_CFG0 + 0x2u), 0x1Bu);
 214:.\Generated_Source\PSoC5/cyfitter_cfg.c **** 
 215:.\Generated_Source\PSoC5/cyfitter_cfg.c **** 	/* Configure Analog Clocks based on settings from Clock DWR */
 216:.\Generated_Source\PSoC5/cyfitter_cfg.c **** 	CYCONFIGCPY((void CYFAR *)(CYREG_CLKDIST_ACFG0_CFG0), (const void CYFAR *)(BS_CYDEV_CLKDIST_ACFG0_
 217:.\Generated_Source\PSoC5/cyfitter_cfg.c **** 
ARM GAS  C:\Users\user\AppData\Local\Temp\ccdjtUDM.s 			page 7


 218:.\Generated_Source\PSoC5/cyfitter_cfg.c **** 	/* Configure ILO based on settings from Clock DWR */
 219:.\Generated_Source\PSoC5/cyfitter_cfg.c **** 	CY_SET_XTND_REG8((void CYFAR *)(CYREG_SLOWCLK_ILO_CR0), 0x06u);
 220:.\Generated_Source\PSoC5/cyfitter_cfg.c **** 
 221:.\Generated_Source\PSoC5/cyfitter_cfg.c **** 	/* Configure IMO based on settings from Clock DWR */
 222:.\Generated_Source\PSoC5/cyfitter_cfg.c **** 	CY_SET_XTND_REG8((void CYFAR *)(CYREG_FASTCLK_IMO_CR), 0x52u);
 223:.\Generated_Source\PSoC5/cyfitter_cfg.c **** 	CY_SET_XTND_REG8((void CYFAR *)(CYREG_IMO_TR1), (CY_GET_XTND_REG8((void CYFAR *)CYREG_FLSHID_CUST_
 224:.\Generated_Source\PSoC5/cyfitter_cfg.c **** 
 225:.\Generated_Source\PSoC5/cyfitter_cfg.c **** 	/* Configure PLL based on settings from Clock DWR */
 226:.\Generated_Source\PSoC5/cyfitter_cfg.c **** 	CY_SET_XTND_REG16((void CYFAR *)(CYREG_FASTCLK_PLL_P), 0x0708u);
 227:.\Generated_Source\PSoC5/cyfitter_cfg.c **** 	CY_SET_XTND_REG16((void CYFAR *)(CYREG_FASTCLK_PLL_CFG0), 0x1251u);
 228:.\Generated_Source\PSoC5/cyfitter_cfg.c **** 	/* Wait up to 250us for the PLL to lock */
 229:.\Generated_Source\PSoC5/cyfitter_cfg.c **** 	pllLock = 0u;
 230:.\Generated_Source\PSoC5/cyfitter_cfg.c **** 	for (timeout = 250u / 10u; (timeout > 0u) && (pllLock != 0x03u); timeout--)
 231:.\Generated_Source\PSoC5/cyfitter_cfg.c **** 	{ 
 232:.\Generated_Source\PSoC5/cyfitter_cfg.c **** 		pllLock = 0x03u & ((uint8)((uint8)pllLock << 1) | ((CY_GET_XTND_REG8((void CYFAR *)CYREG_FASTCLK_
 233:.\Generated_Source\PSoC5/cyfitter_cfg.c **** 		CyDelayCycles(10u * 48u); /* Delay 10us based on 48MHz clock */
 234:.\Generated_Source\PSoC5/cyfitter_cfg.c **** 	}
 235:.\Generated_Source\PSoC5/cyfitter_cfg.c **** 	/* If we ran out of time the PLL didn't lock so go to the error function */
 236:.\Generated_Source\PSoC5/cyfitter_cfg.c **** 	if (timeout == 0u)
 237:.\Generated_Source\PSoC5/cyfitter_cfg.c **** 	{
 238:.\Generated_Source\PSoC5/cyfitter_cfg.c **** 		CyClockStartupError(CYCLOCKSTART_PLL_ERROR);
 239:.\Generated_Source\PSoC5/cyfitter_cfg.c **** 	}
 240:.\Generated_Source\PSoC5/cyfitter_cfg.c **** 
 241:.\Generated_Source\PSoC5/cyfitter_cfg.c **** 	/* Configure Bus/Master Clock based on settings from Clock DWR */
 242:.\Generated_Source\PSoC5/cyfitter_cfg.c **** 	CY_SET_XTND_REG16((void CYFAR *)(CYREG_CLKDIST_MSTR0), 0x0100u);
 243:.\Generated_Source\PSoC5/cyfitter_cfg.c **** 	CY_SET_XTND_REG8((void CYFAR *)(CYREG_CLKDIST_MSTR0), 0x07u);
 244:.\Generated_Source\PSoC5/cyfitter_cfg.c **** 	CY_SET_XTND_REG8((void CYFAR *)(CYREG_CLKDIST_BCFG0), 0x00u);
 245:.\Generated_Source\PSoC5/cyfitter_cfg.c **** 	CY_SET_XTND_REG8((void CYFAR *)(CYREG_CLKDIST_BCFG2), 0x48u);
 246:.\Generated_Source\PSoC5/cyfitter_cfg.c **** 	CY_SET_XTND_REG8((void CYFAR *)(CYREG_CLKDIST_MSTR0), 0x00u);
 247:.\Generated_Source\PSoC5/cyfitter_cfg.c **** 
 248:.\Generated_Source\PSoC5/cyfitter_cfg.c **** 	/* Configure USB Clock based on settings from Clock DWR */
 249:.\Generated_Source\PSoC5/cyfitter_cfg.c **** 	CY_SET_XTND_REG8((void CYFAR *)(CYREG_CLKDIST_UCFG), 0x00u);
 250:.\Generated_Source\PSoC5/cyfitter_cfg.c **** 	CY_SET_XTND_REG8((void CYFAR *)(CYREG_CLKDIST_LD), 0x02u);
 251:.\Generated_Source\PSoC5/cyfitter_cfg.c **** 	CY_SET_XTND_REG8((void CYFAR *)(CYREG_CLKDIST_DLY1), 0x04u);
 252:.\Generated_Source\PSoC5/cyfitter_cfg.c **** 
 253:.\Generated_Source\PSoC5/cyfitter_cfg.c **** 	CY_SET_XTND_REG8((void CYFAR *)(CYREG_PM_ACT_CFG2), ((CY_GET_XTND_REG8((void CYFAR *)CYREG_PM_ACT_
 254:.\Generated_Source\PSoC5/cyfitter_cfg.c **** 	CY_SET_XTND_REG8((void CYFAR *)(CYREG_PM_ACT_CFG1), ((CY_GET_XTND_REG8((void CYFAR *)CYREG_PM_ACT_
 255:.\Generated_Source\PSoC5/cyfitter_cfg.c **** 	CY_SET_XTND_REG8((void CYFAR *)(CYREG_PM_ACT_CFG0), ((CY_GET_XTND_REG8((void CYFAR *)CYREG_PM_ACT_
 256:.\Generated_Source\PSoC5/cyfitter_cfg.c **** }
 257:.\Generated_Source\PSoC5/cyfitter_cfg.c **** 
 258:.\Generated_Source\PSoC5/cyfitter_cfg.c **** 
 259:.\Generated_Source\PSoC5/cyfitter_cfg.c **** /* Analog API Functions */
 260:.\Generated_Source\PSoC5/cyfitter_cfg.c **** 
 261:.\Generated_Source\PSoC5/cyfitter_cfg.c **** 
 262:.\Generated_Source\PSoC5/cyfitter_cfg.c **** /*******************************************************************************
 263:.\Generated_Source\PSoC5/cyfitter_cfg.c **** * Function Name: AnalogSetDefault
 264:.\Generated_Source\PSoC5/cyfitter_cfg.c **** ********************************************************************************
 265:.\Generated_Source\PSoC5/cyfitter_cfg.c **** *
 266:.\Generated_Source\PSoC5/cyfitter_cfg.c **** * Summary:
 267:.\Generated_Source\PSoC5/cyfitter_cfg.c **** *  Sets up the analog portions of the chip to default values based on chip
 268:.\Generated_Source\PSoC5/cyfitter_cfg.c **** *  configuration options from the project.
 269:.\Generated_Source\PSoC5/cyfitter_cfg.c **** *
 270:.\Generated_Source\PSoC5/cyfitter_cfg.c **** * Parameters:
 271:.\Generated_Source\PSoC5/cyfitter_cfg.c **** *  void
 272:.\Generated_Source\PSoC5/cyfitter_cfg.c **** *
 273:.\Generated_Source\PSoC5/cyfitter_cfg.c **** * Return:
 274:.\Generated_Source\PSoC5/cyfitter_cfg.c **** *  void
ARM GAS  C:\Users\user\AppData\Local\Temp\ccdjtUDM.s 			page 8


 275:.\Generated_Source\PSoC5/cyfitter_cfg.c **** *
 276:.\Generated_Source\PSoC5/cyfitter_cfg.c **** *******************************************************************************/
 277:.\Generated_Source\PSoC5/cyfitter_cfg.c **** static void AnalogSetDefault(void);
 278:.\Generated_Source\PSoC5/cyfitter_cfg.c **** static void AnalogSetDefault(void)
 279:.\Generated_Source\PSoC5/cyfitter_cfg.c **** {
 123              		.loc 1 279 0
 124              		.cfi_startproc
 125              		@ args = 0, pretend = 0, frame = 0
 126              		@ frame_needed = 0, uses_anonymous_args = 0
 127              		@ link register save eliminated.
 280:.\Generated_Source\PSoC5/cyfitter_cfg.c **** 	uint8 bg_xover_inl_trim = CY_GET_XTND_REG8((void CYFAR *)(CYREG_FLSHID_MFG_CFG_BG_XOVER_INL_TRIM +
 128              		.loc 1 280 0
 129 0000 0B4B     		ldr	r3, .L10
 130 0002 1B78     		ldrb	r3, [r3]	@ zero_extendqisi2
 131 0004 DBB2     		uxtb	r3, r3
 132              	.LVL12:
 281:.\Generated_Source\PSoC5/cyfitter_cfg.c **** 	CY_SET_XTND_REG8((void CYFAR *)(CYREG_BG_DFT0), (bg_xover_inl_trim & 0x07u));
 133              		.loc 1 281 0
 134 0006 03F00701 		and	r1, r3, #7
 135 000a 0A4A     		ldr	r2, .L10+4
 136 000c 1170     		strb	r1, [r2]
 282:.\Generated_Source\PSoC5/cyfitter_cfg.c **** 	CY_SET_XTND_REG8((void CYFAR *)(CYREG_BG_DFT1), ((bg_xover_inl_trim >> 4) & 0x0Fu));
 137              		.loc 1 282 0
 138 000e 1B09     		lsrs	r3, r3, #4
 139              	.LVL13:
 140 0010 0132     		adds	r2, r2, #1
 141 0012 1370     		strb	r3, [r2]
 283:.\Generated_Source\PSoC5/cyfitter_cfg.c **** 	CY_SET_XTND_REG16((void CYFAR *)CYREG_PRT3_AMUX, 0x0202u);
 142              		.loc 1 283 0
 143 0014 40F20222 		movw	r2, #514
 144 0018 074B     		ldr	r3, .L10+8
 145 001a 1A80     		strh	r2, [r3]	@ movhi
 284:.\Generated_Source\PSoC5/cyfitter_cfg.c **** 	CY_SET_XTND_REG8((void CYFAR *)CYREG_DSM0_SW0, 0x20u);
 146              		.loc 1 284 0
 147 001c 2023     		movs	r3, #32
 148 001e 074A     		ldr	r2, .L10+12
 149 0020 1370     		strb	r3, [r2]
 285:.\Generated_Source\PSoC5/cyfitter_cfg.c **** 	CY_SET_XTND_REG8((void CYFAR *)CYREG_BUS_SW0, 0x20u);
 150              		.loc 1 285 0
 151 0022 5832     		adds	r2, r2, #88
 152 0024 1370     		strb	r3, [r2]
 286:.\Generated_Source\PSoC5/cyfitter_cfg.c **** 	CY_SET_XTND_REG8((void CYFAR *)CYREG_PUMP_CR0, 0x44u);
 153              		.loc 1 286 0
 154 0026 4422     		movs	r2, #68
 155 0028 054B     		ldr	r3, .L10+16
 156 002a 1A70     		strb	r2, [r3]
 157 002c 7047     		bx	lr
 158              	.L11:
 159 002e 00BF     		.align	2
 160              	.L10:
 161 0030 CF010049 		.word	1224737231
 162 0034 6E580040 		.word	1073764462
 163 0038 3C510040 		.word	1073762620
 164 003c 005B0040 		.word	1073765120
 165 0040 76580040 		.word	1073764470
 166              		.cfi_endproc
 167              	.LFE6:
ARM GAS  C:\Users\user\AppData\Local\Temp\ccdjtUDM.s 			page 9


 168              		.size	AnalogSetDefault, .-AnalogSetDefault
 169              		.section	.text.CYMEMZERO,"ax",%progbits
 170              		.align	2
 171              		.thumb
 172              		.thumb_func
 173              		.type	CYMEMZERO, %function
 174              	CYMEMZERO:
 175              	.LFB0:
  63:.\Generated_Source\PSoC5/cyfitter_cfg.c **** 	(void)memset(s, 0, n);
 176              		.loc 1 63 0
 177              		.cfi_startproc
 178              		@ args = 0, pretend = 0, frame = 0
 179              		@ frame_needed = 0, uses_anonymous_args = 0
 180              	.LVL14:
 181 0000 08B5     		push	{r3, lr}
 182              		.cfi_def_cfa_offset 8
 183              		.cfi_offset 3, -8
 184              		.cfi_offset 14, -4
 185 0002 0A46     		mov	r2, r1
  64:.\Generated_Source\PSoC5/cyfitter_cfg.c **** }
 186              		.loc 1 64 0
 187 0004 0021     		movs	r1, #0
 188              	.LVL15:
 189 0006 FFF7FEFF 		bl	memset
 190              	.LVL16:
 191 000a 08BD     		pop	{r3, pc}
 192              		.cfi_endproc
 193              	.LFE0:
 194              		.size	CYMEMZERO, .-CYMEMZERO
 195              		.section	.text.CYCONFIGCPY,"ax",%progbits
 196              		.align	2
 197              		.thumb
 198              		.thumb_func
 199              		.type	CYCONFIGCPY, %function
 200              	CYCONFIGCPY:
 201              	.LFB1:
  70:.\Generated_Source\PSoC5/cyfitter_cfg.c **** 	(void)memcpy(dest, src, n);
 202              		.loc 1 70 0
 203              		.cfi_startproc
 204              		@ args = 0, pretend = 0, frame = 0
 205              		@ frame_needed = 0, uses_anonymous_args = 0
 206              	.LVL17:
 207 0000 08B5     		push	{r3, lr}
 208              		.cfi_def_cfa_offset 8
 209              		.cfi_offset 3, -8
 210              		.cfi_offset 14, -4
  71:.\Generated_Source\PSoC5/cyfitter_cfg.c **** }
 211              		.loc 1 71 0
 212 0002 FFF7FEFF 		bl	memcpy
 213              	.LVL18:
 214 0006 08BD     		pop	{r3, pc}
 215              		.cfi_endproc
 216              	.LFE1:
 217              		.size	CYCONFIGCPY, .-CYCONFIGCPY
 218              		.section	.text.ClockSetup,"ax",%progbits
 219              		.align	2
 220              		.thumb
ARM GAS  C:\Users\user\AppData\Local\Temp\ccdjtUDM.s 			page 10


 221              		.thumb_func
 222              		.type	ClockSetup, %function
 223              	ClockSetup:
 224              	.LFB5:
 204:.\Generated_Source\PSoC5/cyfitter_cfg.c **** 	uint32 timeout;
 225              		.loc 1 204 0
 226              		.cfi_startproc
 227              		@ args = 0, pretend = 0, frame = 0
 228              		@ frame_needed = 0, uses_anonymous_args = 0
 229 0000 38B5     		push	{r3, r4, r5, lr}
 230              		.cfi_def_cfa_offset 16
 231              		.cfi_offset 3, -16
 232              		.cfi_offset 4, -12
 233              		.cfi_offset 5, -8
 234              		.cfi_offset 14, -4
 210:.\Generated_Source\PSoC5/cyfitter_cfg.c **** 	CY_SET_XTND_REG8((void CYFAR *)(CYREG_CLKDIST_DCFG0_CFG0 + 0x2u), 0x50u);
 235              		.loc 1 210 0
 236 0002 0024     		movs	r4, #0
 237 0004 2F4B     		ldr	r3, .L22
 238 0006 1C80     		strh	r4, [r3]	@ movhi
 211:.\Generated_Source\PSoC5/cyfitter_cfg.c **** 	CY_SET_XTND_REG16((void CYFAR *)(CYREG_CLKDIST_DCFG1_CFG0), 0x03E7u);
 239              		.loc 1 211 0
 240 0008 5022     		movs	r2, #80
 241 000a 0233     		adds	r3, r3, #2
 242 000c 1A70     		strb	r2, [r3]
 212:.\Generated_Source\PSoC5/cyfitter_cfg.c **** 	CY_SET_XTND_REG8((void CYFAR *)(CYREG_CLKDIST_DCFG1_CFG0 + 0x2u), 0x1Bu);
 243              		.loc 1 212 0
 244 000e 40F2E732 		movw	r2, #999
 245 0012 0233     		adds	r3, r3, #2
 246 0014 1A80     		strh	r2, [r3]	@ movhi
 213:.\Generated_Source\PSoC5/cyfitter_cfg.c **** 
 247              		.loc 1 213 0
 248 0016 1B22     		movs	r2, #27
 249 0018 0233     		adds	r3, r3, #2
 250 001a 1A70     		strb	r2, [r3]
 216:.\Generated_Source\PSoC5/cyfitter_cfg.c **** 
 251              		.loc 1 216 0
 252 001c 2A48     		ldr	r0, .L22+4
 253 001e 2B49     		ldr	r1, .L22+8
 254 0020 0422     		movs	r2, #4
 255 0022 FFF7FEFF 		bl	CYCONFIGCPY
 256              	.LVL19:
 219:.\Generated_Source\PSoC5/cyfitter_cfg.c **** 
 257              		.loc 1 219 0
 258 0026 0622     		movs	r2, #6
 259 0028 294B     		ldr	r3, .L22+12
 260 002a 1A70     		strb	r2, [r3]
 222:.\Generated_Source\PSoC5/cyfitter_cfg.c **** 	CY_SET_XTND_REG8((void CYFAR *)(CYREG_IMO_TR1), (CY_GET_XTND_REG8((void CYFAR *)CYREG_FLSHID_CUST_
 261              		.loc 1 222 0
 262 002c 5222     		movs	r2, #82
 263 002e A3F58073 		sub	r3, r3, #256
 264 0032 1A70     		strb	r2, [r3]
 223:.\Generated_Source\PSoC5/cyfitter_cfg.c **** 
 265              		.loc 1 223 0
 266 0034 274B     		ldr	r3, .L22+16
 267 0036 1B78     		ldrb	r3, [r3]	@ zero_extendqisi2
 268 0038 DBB2     		uxtb	r3, r3
ARM GAS  C:\Users\user\AppData\Local\Temp\ccdjtUDM.s 			page 11


 269 003a 274A     		ldr	r2, .L22+20
 270 003c 1370     		strb	r3, [r2]
 226:.\Generated_Source\PSoC5/cyfitter_cfg.c **** 	CY_SET_XTND_REG16((void CYFAR *)(CYREG_FASTCLK_PLL_CFG0), 0x1251u);
 271              		.loc 1 226 0
 272 003e 4FF4E162 		mov	r2, #1800
 273 0042 264B     		ldr	r3, .L22+24
 274 0044 1A80     		strh	r2, [r3]	@ movhi
 227:.\Generated_Source\PSoC5/cyfitter_cfg.c **** 	/* Wait up to 250us for the PLL to lock */
 275              		.loc 1 227 0
 276 0046 41F25122 		movw	r2, #4689
 277 004a 023B     		subs	r3, r3, #2
 278 004c 1A80     		strh	r2, [r3]	@ movhi
 279              	.LVL20:
 230:.\Generated_Source\PSoC5/cyfitter_cfg.c **** 	{ 
 280              		.loc 1 230 0
 281 004e 1925     		movs	r5, #25
 282 0050 0CE0     		b	.L17
 283              	.LVL21:
 284              	.L19:
 232:.\Generated_Source\PSoC5/cyfitter_cfg.c **** 		CyDelayCycles(10u * 48u); /* Delay 10us based on 48MHz clock */
 285              		.loc 1 232 0 discriminator 4
 286 0052 234B     		ldr	r3, .L22+28
 287 0054 1B78     		ldrb	r3, [r3]	@ zero_extendqisi2
 288 0056 03F00103 		and	r3, r3, #1
 289 005a 43EA4404 		orr	r4, r3, r4, lsl #1
 290              	.LVL22:
 291 005e 04F00304 		and	r4, r4, #3
 292              	.LVL23:
 233:.\Generated_Source\PSoC5/cyfitter_cfg.c **** 	}
 293              		.loc 1 233 0 discriminator 4
 294 0062 4FF4F070 		mov	r0, #480
 295 0066 FFF7FEFF 		bl	CyDelayCycles
 296              	.LVL24:
 230:.\Generated_Source\PSoC5/cyfitter_cfg.c **** 	{ 
 297              		.loc 1 230 0 discriminator 4
 298 006a 013D     		subs	r5, r5, #1
 299              	.LVL25:
 300              	.L17:
 230:.\Generated_Source\PSoC5/cyfitter_cfg.c **** 	{ 
 301              		.loc 1 230 0 is_stmt 0 discriminator 1
 302 006c 0DB1     		cbz	r5, .L18
 230:.\Generated_Source\PSoC5/cyfitter_cfg.c **** 	{ 
 303              		.loc 1 230 0 discriminator 3
 304 006e 032C     		cmp	r4, #3
 305 0070 EFD1     		bne	.L19
 306              	.L18:
 236:.\Generated_Source\PSoC5/cyfitter_cfg.c **** 	{
 307              		.loc 1 236 0 is_stmt 1
 308 0072 15B9     		cbnz	r5, .L20
 238:.\Generated_Source\PSoC5/cyfitter_cfg.c **** 	}
 309              		.loc 1 238 0
 310 0074 0320     		movs	r0, #3
 311 0076 FFF7FEFF 		bl	CyClockStartupError
 312              	.LVL26:
 313              	.L20:
 242:.\Generated_Source\PSoC5/cyfitter_cfg.c **** 	CY_SET_XTND_REG8((void CYFAR *)(CYREG_CLKDIST_MSTR0), 0x07u);
 314              		.loc 1 242 0
ARM GAS  C:\Users\user\AppData\Local\Temp\ccdjtUDM.s 			page 12


 315 007a 1A4A     		ldr	r2, .L22+32
 316 007c 4FF48073 		mov	r3, #256
 317 0080 1380     		strh	r3, [r2]	@ movhi
 243:.\Generated_Source\PSoC5/cyfitter_cfg.c **** 	CY_SET_XTND_REG8((void CYFAR *)(CYREG_CLKDIST_BCFG0), 0x00u);
 318              		.loc 1 243 0
 319 0082 0723     		movs	r3, #7
 320 0084 1370     		strb	r3, [r2]
 244:.\Generated_Source\PSoC5/cyfitter_cfg.c **** 	CY_SET_XTND_REG8((void CYFAR *)(CYREG_CLKDIST_BCFG2), 0x48u);
 321              		.loc 1 244 0
 322 0086 0023     		movs	r3, #0
 323 0088 1749     		ldr	r1, .L22+36
 324 008a 0B70     		strb	r3, [r1]
 245:.\Generated_Source\PSoC5/cyfitter_cfg.c **** 	CY_SET_XTND_REG8((void CYFAR *)(CYREG_CLKDIST_MSTR0), 0x00u);
 325              		.loc 1 245 0
 326 008c 4820     		movs	r0, #72
 327 008e 0231     		adds	r1, r1, #2
 328 0090 0870     		strb	r0, [r1]
 246:.\Generated_Source\PSoC5/cyfitter_cfg.c **** 
 329              		.loc 1 246 0
 330 0092 1370     		strb	r3, [r2]
 249:.\Generated_Source\PSoC5/cyfitter_cfg.c **** 	CY_SET_XTND_REG8((void CYFAR *)(CYREG_CLKDIST_LD), 0x02u);
 331              		.loc 1 249 0
 332 0094 0532     		adds	r2, r2, #5
 333 0096 1370     		strb	r3, [r2]
 250:.\Generated_Source\PSoC5/cyfitter_cfg.c **** 	CY_SET_XTND_REG8((void CYFAR *)(CYREG_CLKDIST_DLY1), 0x04u);
 334              		.loc 1 250 0
 335 0098 0222     		movs	r2, #2
 336 009a 144B     		ldr	r3, .L22+40
 337 009c 1A70     		strb	r2, [r3]
 251:.\Generated_Source\PSoC5/cyfitter_cfg.c **** 
 338              		.loc 1 251 0
 339 009e 0422     		movs	r2, #4
 340 00a0 0A33     		adds	r3, r3, #10
 341 00a2 1A70     		strb	r2, [r3]
 253:.\Generated_Source\PSoC5/cyfitter_cfg.c **** 	CY_SET_XTND_REG8((void CYFAR *)(CYREG_PM_ACT_CFG1), ((CY_GET_XTND_REG8((void CYFAR *)CYREG_PM_ACT_
 342              		.loc 1 253 0
 343 00a4 124A     		ldr	r2, .L22+44
 344 00a6 1378     		ldrb	r3, [r2]	@ zero_extendqisi2
 345 00a8 43F00303 		orr	r3, r3, #3
 346 00ac 1370     		strb	r3, [r2]
 254:.\Generated_Source\PSoC5/cyfitter_cfg.c **** 	CY_SET_XTND_REG8((void CYFAR *)(CYREG_PM_ACT_CFG0), ((CY_GET_XTND_REG8((void CYFAR *)CYREG_PM_ACT_
 347              		.loc 1 254 0
 348 00ae 013A     		subs	r2, r2, #1
 349 00b0 1378     		ldrb	r3, [r2]	@ zero_extendqisi2
 350 00b2 43F00103 		orr	r3, r3, #1
 351 00b6 1370     		strb	r3, [r2]
 255:.\Generated_Source\PSoC5/cyfitter_cfg.c **** }
 352              		.loc 1 255 0
 353 00b8 013A     		subs	r2, r2, #1
 354 00ba 1378     		ldrb	r3, [r2]	@ zero_extendqisi2
 355 00bc 43F08003 		orr	r3, r3, #128
 356 00c0 1370     		strb	r3, [r2]
 357 00c2 38BD     		pop	{r3, r4, r5, pc}
 358              	.LVL27:
 359              	.L23:
 360              		.align	2
 361              	.L22:
ARM GAS  C:\Users\user\AppData\Local\Temp\ccdjtUDM.s 			page 13


 362 00c4 80400040 		.word	1073758336
 363 00c8 00410040 		.word	1073758464
 364 00cc 50010048 		.word	1207959888
 365 00d0 00430040 		.word	1073758976
 366 00d4 0F010049 		.word	1224737039
 367 00d8 A1460040 		.word	1073759905
 368 00dc 22420040 		.word	1073758754
 369 00e0 25420040 		.word	1073758757
 370 00e4 04400040 		.word	1073758212
 371 00e8 06400040 		.word	1073758214
 372 00ec 01400040 		.word	1073758209
 373 00f0 A2430040 		.word	1073759138
 374              		.cfi_endproc
 375              	.LFE5:
 376              		.size	ClockSetup, .-ClockSetup
 377              		.section	.text.SetAnalogRoutingPumps,"ax",%progbits
 378              		.align	2
 379              		.global	SetAnalogRoutingPumps
 380              		.thumb
 381              		.thumb_func
 382              		.type	SetAnalogRoutingPumps, %function
 383              	SetAnalogRoutingPumps:
 384              	.LFB7:
 287:.\Generated_Source\PSoC5/cyfitter_cfg.c **** }
 288:.\Generated_Source\PSoC5/cyfitter_cfg.c **** 
 289:.\Generated_Source\PSoC5/cyfitter_cfg.c **** 
 290:.\Generated_Source\PSoC5/cyfitter_cfg.c **** /*******************************************************************************
 291:.\Generated_Source\PSoC5/cyfitter_cfg.c **** * Function Name: SetAnalogRoutingPumps
 292:.\Generated_Source\PSoC5/cyfitter_cfg.c **** ********************************************************************************
 293:.\Generated_Source\PSoC5/cyfitter_cfg.c **** *
 294:.\Generated_Source\PSoC5/cyfitter_cfg.c **** * Summary:
 295:.\Generated_Source\PSoC5/cyfitter_cfg.c **** * Enables or disables the analog pumps feeding analog routing switches.
 296:.\Generated_Source\PSoC5/cyfitter_cfg.c **** * Intended to be called at startup, based on the Vdda system configuration;
 297:.\Generated_Source\PSoC5/cyfitter_cfg.c **** * may be called during operation when the user informs us that the Vdda voltage
 298:.\Generated_Source\PSoC5/cyfitter_cfg.c **** * crossed the pump threshold.
 299:.\Generated_Source\PSoC5/cyfitter_cfg.c **** *
 300:.\Generated_Source\PSoC5/cyfitter_cfg.c **** * Parameters:
 301:.\Generated_Source\PSoC5/cyfitter_cfg.c **** *  enabled - 1 to enable the pumps, 0 to disable the pumps
 302:.\Generated_Source\PSoC5/cyfitter_cfg.c **** *
 303:.\Generated_Source\PSoC5/cyfitter_cfg.c **** * Return:
 304:.\Generated_Source\PSoC5/cyfitter_cfg.c **** *  void
 305:.\Generated_Source\PSoC5/cyfitter_cfg.c **** *
 306:.\Generated_Source\PSoC5/cyfitter_cfg.c **** *******************************************************************************/
 307:.\Generated_Source\PSoC5/cyfitter_cfg.c **** void SetAnalogRoutingPumps(uint8 enabled)
 308:.\Generated_Source\PSoC5/cyfitter_cfg.c **** {
 385              		.loc 1 308 0
 386              		.cfi_startproc
 387              		@ args = 0, pretend = 0, frame = 0
 388              		@ frame_needed = 0, uses_anonymous_args = 0
 389              		@ link register save eliminated.
 390              	.LVL28:
 309:.\Generated_Source\PSoC5/cyfitter_cfg.c **** 	uint8 regValue = CY_GET_XTND_REG8((void CYFAR *)CYREG_PUMP_CR0);
 391              		.loc 1 309 0
 392 0000 054B     		ldr	r3, .L27
 393 0002 1B78     		ldrb	r3, [r3]	@ zero_extendqisi2
 394 0004 DBB2     		uxtb	r3, r3
 395              	.LVL29:
ARM GAS  C:\Users\user\AppData\Local\Temp\ccdjtUDM.s 			page 14


 310:.\Generated_Source\PSoC5/cyfitter_cfg.c **** 	if (enabled != 0u)
 396              		.loc 1 310 0
 397 0006 10B1     		cbz	r0, .L25
 311:.\Generated_Source\PSoC5/cyfitter_cfg.c **** 	{
 312:.\Generated_Source\PSoC5/cyfitter_cfg.c **** 		regValue |= 0x22u;
 398              		.loc 1 312 0
 399 0008 43F02203 		orr	r3, r3, #34
 400              	.LVL30:
 401 000c 01E0     		b	.L26
 402              	.L25:
 313:.\Generated_Source\PSoC5/cyfitter_cfg.c **** 	}
 314:.\Generated_Source\PSoC5/cyfitter_cfg.c **** 	else
 315:.\Generated_Source\PSoC5/cyfitter_cfg.c **** 	{
 316:.\Generated_Source\PSoC5/cyfitter_cfg.c **** 		regValue &= (uint8)~0x22u;
 403              		.loc 1 316 0
 404 000e 03F0DD03 		and	r3, r3, #221
 405              	.LVL31:
 406              	.L26:
 317:.\Generated_Source\PSoC5/cyfitter_cfg.c **** 	}
 318:.\Generated_Source\PSoC5/cyfitter_cfg.c **** 	CY_SET_XTND_REG8((void CYFAR *)CYREG_PUMP_CR0, regValue);
 407              		.loc 1 318 0
 408 0012 014A     		ldr	r2, .L27
 409 0014 1370     		strb	r3, [r2]
 410 0016 7047     		bx	lr
 411              	.L28:
 412              		.align	2
 413              	.L27:
 414 0018 76580040 		.word	1073764470
 415              		.cfi_endproc
 416              	.LFE7:
 417              		.size	SetAnalogRoutingPumps, .-SetAnalogRoutingPumps
 418              		.section	.text.AMux_1_Set,"ax",%progbits
 419              		.align	2
 420              		.global	AMux_1_Set
 421              		.thumb
 422              		.thumb_func
 423              		.type	AMux_1_Set, %function
 424              	AMux_1_Set:
 425              	.LFB8:
 319:.\Generated_Source\PSoC5/cyfitter_cfg.c **** }
 320:.\Generated_Source\PSoC5/cyfitter_cfg.c **** 
 321:.\Generated_Source\PSoC5/cyfitter_cfg.c **** #define CY_AMUX_UNUSED CYREG_BOOST_SR
 322:.\Generated_Source\PSoC5/cyfitter_cfg.c **** /* This is an implementation detail of the AMux. Code that depends on it may be
 323:.\Generated_Source\PSoC5/cyfitter_cfg.c ****    incompatible with other versions of PSoC Creator. */
 324:.\Generated_Source\PSoC5/cyfitter_cfg.c **** uint8 CYXDATA * const CYCODE AMux_1__addrTable[6] = {
 325:.\Generated_Source\PSoC5/cyfitter_cfg.c **** 	(uint8 CYXDATA *)CYREG_PRT3_AMUX, (uint8 CYXDATA *)CY_AMUX_UNUSED, 
 326:.\Generated_Source\PSoC5/cyfitter_cfg.c **** 	(uint8 CYXDATA *)CYREG_PRT1_AMUX, (uint8 CYXDATA *)CY_AMUX_UNUSED, 
 327:.\Generated_Source\PSoC5/cyfitter_cfg.c **** 	(uint8 CYXDATA *)CYREG_PRT2_AG, (uint8 CYXDATA *)CYREG_DSM0_SW0, 
 328:.\Generated_Source\PSoC5/cyfitter_cfg.c **** };
 329:.\Generated_Source\PSoC5/cyfitter_cfg.c **** 
 330:.\Generated_Source\PSoC5/cyfitter_cfg.c **** /* This is an implementation detail of the AMux. Code that depends on it may be
 331:.\Generated_Source\PSoC5/cyfitter_cfg.c ****    incompatible with other versions of PSoC Creator. */
 332:.\Generated_Source\PSoC5/cyfitter_cfg.c **** const uint8 CYCODE AMux_1__maskTable[6] = {
 333:.\Generated_Source\PSoC5/cyfitter_cfg.c **** 	0x40u, 0x00u, 
 334:.\Generated_Source\PSoC5/cyfitter_cfg.c **** 	0x80u, 0x00u, 
 335:.\Generated_Source\PSoC5/cyfitter_cfg.c **** 	0x80u, 0x08u, 
 336:.\Generated_Source\PSoC5/cyfitter_cfg.c **** };
ARM GAS  C:\Users\user\AppData\Local\Temp\ccdjtUDM.s 			page 15


 337:.\Generated_Source\PSoC5/cyfitter_cfg.c **** 
 338:.\Generated_Source\PSoC5/cyfitter_cfg.c **** /*******************************************************************************
 339:.\Generated_Source\PSoC5/cyfitter_cfg.c **** * Function Name: AMux_1_Set
 340:.\Generated_Source\PSoC5/cyfitter_cfg.c **** ********************************************************************************
 341:.\Generated_Source\PSoC5/cyfitter_cfg.c **** * Summary:
 342:.\Generated_Source\PSoC5/cyfitter_cfg.c **** *  This function is used to set a particular channel as active on the AMux.
 343:.\Generated_Source\PSoC5/cyfitter_cfg.c **** *
 344:.\Generated_Source\PSoC5/cyfitter_cfg.c **** * Parameters:  
 345:.\Generated_Source\PSoC5/cyfitter_cfg.c **** *   channel - The mux channel input to set as active
 346:.\Generated_Source\PSoC5/cyfitter_cfg.c **** *
 347:.\Generated_Source\PSoC5/cyfitter_cfg.c **** * Return:
 348:.\Generated_Source\PSoC5/cyfitter_cfg.c **** *   void
 349:.\Generated_Source\PSoC5/cyfitter_cfg.c **** *
 350:.\Generated_Source\PSoC5/cyfitter_cfg.c **** *******************************************************************************/
 351:.\Generated_Source\PSoC5/cyfitter_cfg.c **** void AMux_1_Set(uint8 channel)
 352:.\Generated_Source\PSoC5/cyfitter_cfg.c **** {
 426              		.loc 1 352 0
 427              		.cfi_startproc
 428              		@ args = 0, pretend = 0, frame = 0
 429              		@ frame_needed = 0, uses_anonymous_args = 0
 430              		@ link register save eliminated.
 353:.\Generated_Source\PSoC5/cyfitter_cfg.c **** 	if (channel < 3)
 431              		.loc 1 353 0
 432 0000 0228     		cmp	r0, #2
 433 0002 15D8     		bhi	.L33
 352:.\Generated_Source\PSoC5/cyfitter_cfg.c **** 	if (channel < 3)
 434              		.loc 1 352 0
 435 0004 10B4     		push	{r4}
 436              		.cfi_def_cfa_offset 4
 437              		.cfi_offset 4, -4
 354:.\Generated_Source\PSoC5/cyfitter_cfg.c **** 	{
 355:.\Generated_Source\PSoC5/cyfitter_cfg.c **** 		channel += channel;
 438              		.loc 1 355 0
 439 0006 4000     		lsls	r0, r0, #1
 440 0008 C0B2     		uxtb	r0, r0
 356:.\Generated_Source\PSoC5/cyfitter_cfg.c **** 		*AMux_1__addrTable[channel] |= AMux_1__maskTable[channel];
 441              		.loc 1 356 0
 442 000a 0A4B     		ldr	r3, .L34
 443 000c 53F82010 		ldr	r1, [r3, r0, lsl #2]
 444 0010 1A18     		adds	r2, r3, r0
 445 0012 147E     		ldrb	r4, [r2, #24]	@ zero_extendqisi2
 446 0014 0A78     		ldrb	r2, [r1]	@ zero_extendqisi2
 447 0016 2243     		orrs	r2, r2, r4
 448 0018 0A70     		strb	r2, [r1]
 357:.\Generated_Source\PSoC5/cyfitter_cfg.c **** 		channel++;
 449              		.loc 1 357 0
 450 001a 0130     		adds	r0, r0, #1
 451 001c C0B2     		uxtb	r0, r0
 358:.\Generated_Source\PSoC5/cyfitter_cfg.c **** 		*AMux_1__addrTable[channel] |= AMux_1__maskTable[channel];
 452              		.loc 1 358 0
 453 001e 53F82020 		ldr	r2, [r3, r0, lsl #2]
 454 0022 1844     		add	r0, r0, r3
 455 0024 017E     		ldrb	r1, [r0, #24]	@ zero_extendqisi2
 456 0026 1378     		ldrb	r3, [r2]	@ zero_extendqisi2
 457 0028 0B43     		orrs	r3, r3, r1
 458 002a 1370     		strb	r3, [r2]
 359:.\Generated_Source\PSoC5/cyfitter_cfg.c **** 	}
ARM GAS  C:\Users\user\AppData\Local\Temp\ccdjtUDM.s 			page 16


 360:.\Generated_Source\PSoC5/cyfitter_cfg.c **** }
 459              		.loc 1 360 0
 460 002c 5DF8044B 		ldr	r4, [sp], #4
 461              		.cfi_restore 4
 462              		.cfi_def_cfa_offset 0
 463              	.L33:
 464 0030 7047     		bx	lr
 465              	.L35:
 466 0032 00BF     		.align	2
 467              	.L34:
 468 0034 00000000 		.word	.LANCHOR0
 469              		.cfi_endproc
 470              	.LFE8:
 471              		.size	AMux_1_Set, .-AMux_1_Set
 472              		.section	.text.AMux_1_Unset,"ax",%progbits
 473              		.align	2
 474              		.global	AMux_1_Unset
 475              		.thumb
 476              		.thumb_func
 477              		.type	AMux_1_Unset, %function
 478              	AMux_1_Unset:
 479              	.LFB9:
 361:.\Generated_Source\PSoC5/cyfitter_cfg.c **** 
 362:.\Generated_Source\PSoC5/cyfitter_cfg.c **** /*******************************************************************************
 363:.\Generated_Source\PSoC5/cyfitter_cfg.c **** * Function Name: AMux_1_Unset
 364:.\Generated_Source\PSoC5/cyfitter_cfg.c **** ********************************************************************************
 365:.\Generated_Source\PSoC5/cyfitter_cfg.c **** * Summary:
 366:.\Generated_Source\PSoC5/cyfitter_cfg.c **** *  This function is used to clear a particular channel from being active on the
 367:.\Generated_Source\PSoC5/cyfitter_cfg.c **** *  AMux.
 368:.\Generated_Source\PSoC5/cyfitter_cfg.c **** *
 369:.\Generated_Source\PSoC5/cyfitter_cfg.c **** * Parameters:  
 370:.\Generated_Source\PSoC5/cyfitter_cfg.c **** *   channel - The mux channel input to mark inactive
 371:.\Generated_Source\PSoC5/cyfitter_cfg.c **** *
 372:.\Generated_Source\PSoC5/cyfitter_cfg.c **** * Return:
 373:.\Generated_Source\PSoC5/cyfitter_cfg.c **** *   void
 374:.\Generated_Source\PSoC5/cyfitter_cfg.c **** *
 375:.\Generated_Source\PSoC5/cyfitter_cfg.c **** *******************************************************************************/
 376:.\Generated_Source\PSoC5/cyfitter_cfg.c **** void AMux_1_Unset(uint8 channel)
 377:.\Generated_Source\PSoC5/cyfitter_cfg.c **** {
 480              		.loc 1 377 0
 481              		.cfi_startproc
 482              		@ args = 0, pretend = 0, frame = 0
 483              		@ frame_needed = 0, uses_anonymous_args = 0
 484              		@ link register save eliminated.
 378:.\Generated_Source\PSoC5/cyfitter_cfg.c **** 	if (channel < 3)
 485              		.loc 1 378 0
 486 0000 0228     		cmp	r0, #2
 487 0002 17D8     		bhi	.L40
 377:.\Generated_Source\PSoC5/cyfitter_cfg.c **** 	if (channel < 3)
 488              		.loc 1 377 0
 489 0004 10B4     		push	{r4}
 490              		.cfi_def_cfa_offset 4
 491              		.cfi_offset 4, -4
 379:.\Generated_Source\PSoC5/cyfitter_cfg.c **** 	{
 380:.\Generated_Source\PSoC5/cyfitter_cfg.c **** 		channel += channel;
 492              		.loc 1 380 0
 493 0006 4000     		lsls	r0, r0, #1
ARM GAS  C:\Users\user\AppData\Local\Temp\ccdjtUDM.s 			page 17


 494 0008 C0B2     		uxtb	r0, r0
 381:.\Generated_Source\PSoC5/cyfitter_cfg.c **** 		*AMux_1__addrTable[channel] &= (uint8)~AMux_1__maskTable[channel];
 495              		.loc 1 381 0
 496 000a 0B4B     		ldr	r3, .L41
 497 000c 53F82010 		ldr	r1, [r3, r0, lsl #2]
 498 0010 1A18     		adds	r2, r3, r0
 499 0012 147E     		ldrb	r4, [r2, #24]	@ zero_extendqisi2
 500 0014 0A78     		ldrb	r2, [r1]	@ zero_extendqisi2
 501 0016 22EA0402 		bic	r2, r2, r4
 502 001a 0A70     		strb	r2, [r1]
 382:.\Generated_Source\PSoC5/cyfitter_cfg.c **** 		channel++;
 503              		.loc 1 382 0
 504 001c 0130     		adds	r0, r0, #1
 505 001e C0B2     		uxtb	r0, r0
 383:.\Generated_Source\PSoC5/cyfitter_cfg.c **** 		*AMux_1__addrTable[channel] &= (uint8)~AMux_1__maskTable[channel];
 506              		.loc 1 383 0
 507 0020 53F82020 		ldr	r2, [r3, r0, lsl #2]
 508 0024 1844     		add	r0, r0, r3
 509 0026 017E     		ldrb	r1, [r0, #24]	@ zero_extendqisi2
 510 0028 1378     		ldrb	r3, [r2]	@ zero_extendqisi2
 511 002a 23EA0103 		bic	r3, r3, r1
 512 002e 1370     		strb	r3, [r2]
 384:.\Generated_Source\PSoC5/cyfitter_cfg.c **** 	}
 385:.\Generated_Source\PSoC5/cyfitter_cfg.c **** }
 513              		.loc 1 385 0
 514 0030 5DF8044B 		ldr	r4, [sp], #4
 515              		.cfi_restore 4
 516              		.cfi_def_cfa_offset 0
 517              	.L40:
 518 0034 7047     		bx	lr
 519              	.L42:
 520 0036 00BF     		.align	2
 521              	.L41:
 522 0038 00000000 		.word	.LANCHOR0
 523              		.cfi_endproc
 524              	.LFE9:
 525              		.size	AMux_1_Unset, .-AMux_1_Unset
 526              		.section	.text.ADC_DelSig_1_AMux_Set,"ax",%progbits
 527              		.align	2
 528              		.global	ADC_DelSig_1_AMux_Set
 529              		.thumb
 530              		.thumb_func
 531              		.type	ADC_DelSig_1_AMux_Set, %function
 532              	ADC_DelSig_1_AMux_Set:
 533              	.LFB10:
 386:.\Generated_Source\PSoC5/cyfitter_cfg.c **** 
 387:.\Generated_Source\PSoC5/cyfitter_cfg.c **** /* This is an implementation detail of the AMux. Code that depends on it may be
 388:.\Generated_Source\PSoC5/cyfitter_cfg.c ****    incompatible with other versions of PSoC Creator. */
 389:.\Generated_Source\PSoC5/cyfitter_cfg.c **** uint8 CYXDATA * const CYCODE ADC_DelSig_1_AMux__addrTable[2] = {
 390:.\Generated_Source\PSoC5/cyfitter_cfg.c **** 	(uint8 CYXDATA *)CYREG_DSM0_SW3, 
 391:.\Generated_Source\PSoC5/cyfitter_cfg.c **** 	(uint8 CYXDATA *)CY_AMUX_UNUSED, 
 392:.\Generated_Source\PSoC5/cyfitter_cfg.c **** };
 393:.\Generated_Source\PSoC5/cyfitter_cfg.c **** 
 394:.\Generated_Source\PSoC5/cyfitter_cfg.c **** /* This is an implementation detail of the AMux. Code that depends on it may be
 395:.\Generated_Source\PSoC5/cyfitter_cfg.c ****    incompatible with other versions of PSoC Creator. */
 396:.\Generated_Source\PSoC5/cyfitter_cfg.c **** const uint8 CYCODE ADC_DelSig_1_AMux__maskTable[2] = {
 397:.\Generated_Source\PSoC5/cyfitter_cfg.c **** 	0x40u, 
ARM GAS  C:\Users\user\AppData\Local\Temp\ccdjtUDM.s 			page 18


 398:.\Generated_Source\PSoC5/cyfitter_cfg.c **** 	0x00u, 
 399:.\Generated_Source\PSoC5/cyfitter_cfg.c **** };
 400:.\Generated_Source\PSoC5/cyfitter_cfg.c **** 
 401:.\Generated_Source\PSoC5/cyfitter_cfg.c **** /*******************************************************************************
 402:.\Generated_Source\PSoC5/cyfitter_cfg.c **** * Function Name: ADC_DelSig_1_AMux_Set
 403:.\Generated_Source\PSoC5/cyfitter_cfg.c **** ********************************************************************************
 404:.\Generated_Source\PSoC5/cyfitter_cfg.c **** * Summary:
 405:.\Generated_Source\PSoC5/cyfitter_cfg.c **** *  This function is used to set a particular channel as active on the AMux.
 406:.\Generated_Source\PSoC5/cyfitter_cfg.c **** *
 407:.\Generated_Source\PSoC5/cyfitter_cfg.c **** * Parameters:  
 408:.\Generated_Source\PSoC5/cyfitter_cfg.c **** *   channel - The mux channel input to set as active
 409:.\Generated_Source\PSoC5/cyfitter_cfg.c **** *
 410:.\Generated_Source\PSoC5/cyfitter_cfg.c **** * Return:
 411:.\Generated_Source\PSoC5/cyfitter_cfg.c **** *   void
 412:.\Generated_Source\PSoC5/cyfitter_cfg.c **** *
 413:.\Generated_Source\PSoC5/cyfitter_cfg.c **** *******************************************************************************/
 414:.\Generated_Source\PSoC5/cyfitter_cfg.c **** void ADC_DelSig_1_AMux_Set(uint8 channel)
 415:.\Generated_Source\PSoC5/cyfitter_cfg.c **** {
 534              		.loc 1 415 0
 535              		.cfi_startproc
 536              		@ args = 0, pretend = 0, frame = 0
 537              		@ frame_needed = 0, uses_anonymous_args = 0
 538              		@ link register save eliminated.
 539              	.LVL32:
 416:.\Generated_Source\PSoC5/cyfitter_cfg.c **** 	if (channel < 2)
 540              		.loc 1 416 0
 541 0000 0128     		cmp	r0, #1
 542 0002 09D8     		bhi	.L43
 417:.\Generated_Source\PSoC5/cyfitter_cfg.c **** 	{
 418:.\Generated_Source\PSoC5/cyfitter_cfg.c **** 		*ADC_DelSig_1_AMux__addrTable[channel] |= ADC_DelSig_1_AMux__maskTable[channel];
 543              		.loc 1 418 0
 544 0004 054B     		ldr	r3, .L45
 545 0006 03EB8002 		add	r2, r3, r0, lsl #2
 546 000a 126A     		ldr	r2, [r2, #32]
 547 000c 1844     		add	r0, r0, r3
 548              	.LVL33:
 549 000e 90F82810 		ldrb	r1, [r0, #40]	@ zero_extendqisi2
 550 0012 1378     		ldrb	r3, [r2]	@ zero_extendqisi2
 551 0014 0B43     		orrs	r3, r3, r1
 552 0016 1370     		strb	r3, [r2]
 553              	.L43:
 554 0018 7047     		bx	lr
 555              	.L46:
 556 001a 00BF     		.align	2
 557              	.L45:
 558 001c 00000000 		.word	.LANCHOR0
 559              		.cfi_endproc
 560              	.LFE10:
 561              		.size	ADC_DelSig_1_AMux_Set, .-ADC_DelSig_1_AMux_Set
 562              		.section	.text.ADC_DelSig_1_AMux_Unset,"ax",%progbits
 563              		.align	2
 564              		.global	ADC_DelSig_1_AMux_Unset
 565              		.thumb
 566              		.thumb_func
 567              		.type	ADC_DelSig_1_AMux_Unset, %function
 568              	ADC_DelSig_1_AMux_Unset:
 569              	.LFB11:
ARM GAS  C:\Users\user\AppData\Local\Temp\ccdjtUDM.s 			page 19


 419:.\Generated_Source\PSoC5/cyfitter_cfg.c **** 	}
 420:.\Generated_Source\PSoC5/cyfitter_cfg.c **** }
 421:.\Generated_Source\PSoC5/cyfitter_cfg.c **** 
 422:.\Generated_Source\PSoC5/cyfitter_cfg.c **** /*******************************************************************************
 423:.\Generated_Source\PSoC5/cyfitter_cfg.c **** * Function Name: ADC_DelSig_1_AMux_Unset
 424:.\Generated_Source\PSoC5/cyfitter_cfg.c **** ********************************************************************************
 425:.\Generated_Source\PSoC5/cyfitter_cfg.c **** * Summary:
 426:.\Generated_Source\PSoC5/cyfitter_cfg.c **** *  This function is used to clear a particular channel from being active on the
 427:.\Generated_Source\PSoC5/cyfitter_cfg.c **** *  AMux.
 428:.\Generated_Source\PSoC5/cyfitter_cfg.c **** *
 429:.\Generated_Source\PSoC5/cyfitter_cfg.c **** * Parameters:  
 430:.\Generated_Source\PSoC5/cyfitter_cfg.c **** *   channel - The mux channel input to mark inactive
 431:.\Generated_Source\PSoC5/cyfitter_cfg.c **** *
 432:.\Generated_Source\PSoC5/cyfitter_cfg.c **** * Return:
 433:.\Generated_Source\PSoC5/cyfitter_cfg.c **** *   void
 434:.\Generated_Source\PSoC5/cyfitter_cfg.c **** *
 435:.\Generated_Source\PSoC5/cyfitter_cfg.c **** *******************************************************************************/
 436:.\Generated_Source\PSoC5/cyfitter_cfg.c **** void ADC_DelSig_1_AMux_Unset(uint8 channel)
 437:.\Generated_Source\PSoC5/cyfitter_cfg.c **** {
 570              		.loc 1 437 0
 571              		.cfi_startproc
 572              		@ args = 0, pretend = 0, frame = 0
 573              		@ frame_needed = 0, uses_anonymous_args = 0
 574              		@ link register save eliminated.
 575              	.LVL34:
 438:.\Generated_Source\PSoC5/cyfitter_cfg.c **** 	if (channel < 2)
 576              		.loc 1 438 0
 577 0000 0128     		cmp	r0, #1
 578 0002 0AD8     		bhi	.L47
 439:.\Generated_Source\PSoC5/cyfitter_cfg.c **** 	{
 440:.\Generated_Source\PSoC5/cyfitter_cfg.c **** 		*ADC_DelSig_1_AMux__addrTable[channel] &= (uint8)~ADC_DelSig_1_AMux__maskTable[channel];
 579              		.loc 1 440 0
 580 0004 054B     		ldr	r3, .L49
 581 0006 03EB8002 		add	r2, r3, r0, lsl #2
 582 000a 126A     		ldr	r2, [r2, #32]
 583 000c 1844     		add	r0, r0, r3
 584              	.LVL35:
 585 000e 90F82810 		ldrb	r1, [r0, #40]	@ zero_extendqisi2
 586 0012 1378     		ldrb	r3, [r2]	@ zero_extendqisi2
 587 0014 23EA0103 		bic	r3, r3, r1
 588 0018 1370     		strb	r3, [r2]
 589              	.L47:
 590 001a 7047     		bx	lr
 591              	.L50:
 592              		.align	2
 593              	.L49:
 594 001c 00000000 		.word	.LANCHOR0
 595              		.cfi_endproc
 596              	.LFE11:
 597              		.size	ADC_DelSig_1_AMux_Unset, .-ADC_DelSig_1_AMux_Unset
 598              		.section	.text.cyfitter_cfg,"ax",%progbits
 599              		.align	2
 600              		.global	cyfitter_cfg
 601              		.thumb
 602              		.thumb_func
 603              		.type	cyfitter_cfg, %function
 604              	cyfitter_cfg:
ARM GAS  C:\Users\user\AppData\Local\Temp\ccdjtUDM.s 			page 20


 605              	.LFB12:
 441:.\Generated_Source\PSoC5/cyfitter_cfg.c **** 	}
 442:.\Generated_Source\PSoC5/cyfitter_cfg.c **** }
 443:.\Generated_Source\PSoC5/cyfitter_cfg.c **** 
 444:.\Generated_Source\PSoC5/cyfitter_cfg.c **** 
 445:.\Generated_Source\PSoC5/cyfitter_cfg.c **** 
 446:.\Generated_Source\PSoC5/cyfitter_cfg.c **** /*******************************************************************************
 447:.\Generated_Source\PSoC5/cyfitter_cfg.c **** * Function Name: cyfitter_cfg
 448:.\Generated_Source\PSoC5/cyfitter_cfg.c **** ********************************************************************************
 449:.\Generated_Source\PSoC5/cyfitter_cfg.c **** * Summary:
 450:.\Generated_Source\PSoC5/cyfitter_cfg.c **** *  This function is called by the start-up code for the selected device. It
 451:.\Generated_Source\PSoC5/cyfitter_cfg.c **** *  performs all of the necessary device configuration based on the design
 452:.\Generated_Source\PSoC5/cyfitter_cfg.c **** *  settings.  This includes settings from the Design Wide Resources (DWR) such
 453:.\Generated_Source\PSoC5/cyfitter_cfg.c **** *  as Clocks and Pins as well as any component configuration that is necessary.
 454:.\Generated_Source\PSoC5/cyfitter_cfg.c **** *
 455:.\Generated_Source\PSoC5/cyfitter_cfg.c **** * Parameters:  
 456:.\Generated_Source\PSoC5/cyfitter_cfg.c **** *   void
 457:.\Generated_Source\PSoC5/cyfitter_cfg.c **** *
 458:.\Generated_Source\PSoC5/cyfitter_cfg.c **** * Return:
 459:.\Generated_Source\PSoC5/cyfitter_cfg.c **** *   void
 460:.\Generated_Source\PSoC5/cyfitter_cfg.c **** *
 461:.\Generated_Source\PSoC5/cyfitter_cfg.c **** *******************************************************************************/
 462:.\Generated_Source\PSoC5/cyfitter_cfg.c **** 
 463:.\Generated_Source\PSoC5/cyfitter_cfg.c **** void cyfitter_cfg(void)
 464:.\Generated_Source\PSoC5/cyfitter_cfg.c **** {
 606              		.loc 1 464 0
 607              		.cfi_startproc
 608              		@ args = 0, pretend = 0, frame = 0
 609              		@ frame_needed = 0, uses_anonymous_args = 0
 610 0000 38B5     		push	{r3, r4, r5, lr}
 611              		.cfi_def_cfa_offset 16
 612              		.cfi_offset 3, -16
 613              		.cfi_offset 4, -12
 614              		.cfi_offset 5, -8
 615              		.cfi_offset 14, -4
 465:.\Generated_Source\PSoC5/cyfitter_cfg.c **** #ifdef CYGlobalIntDisable
 466:.\Generated_Source\PSoC5/cyfitter_cfg.c **** 	/* Disable interrupts by default. Let user enable if/when they want. */
 467:.\Generated_Source\PSoC5/cyfitter_cfg.c **** 	CYGlobalIntDisable
 616              		.loc 1 467 0
 617              	@ 467 ".\Generated_Source\PSoC5\cyfitter_cfg.c" 1
 618 0002 72B6     		CPSID   i
 619              	@ 0 "" 2
 468:.\Generated_Source\PSoC5/cyfitter_cfg.c **** #endif
 469:.\Generated_Source\PSoC5/cyfitter_cfg.c **** 
 470:.\Generated_Source\PSoC5/cyfitter_cfg.c **** 	/* Enable/Disable Debug functionality based on settings from System DWR */
 471:.\Generated_Source\PSoC5/cyfitter_cfg.c **** 	CY_SET_XTND_REG8((void CYFAR *)CYREG_MLOGIC_DEBUG, (CY_GET_XTND_REG8((void CYFAR *)CYREG_MLOGIC_DE
 620              		.loc 1 471 0
 621              		.thumb
 622 0004 2C4A     		ldr	r2, .L55
 623 0006 1378     		ldrb	r3, [r2]	@ zero_extendqisi2
 624 0008 43F00403 		orr	r3, r3, #4
 625 000c 1370     		strb	r3, [r2]
 626              	.LVL36:
 627              	.LBB3:
 472:.\Generated_Source\PSoC5/cyfitter_cfg.c **** 
 473:.\Generated_Source\PSoC5/cyfitter_cfg.c **** 	{
 474:.\Generated_Source\PSoC5/cyfitter_cfg.c **** 
ARM GAS  C:\Users\user\AppData\Local\Temp\ccdjtUDM.s 			page 21


 475:.\Generated_Source\PSoC5/cyfitter_cfg.c **** 		CYPACKED typedef struct {
 476:.\Generated_Source\PSoC5/cyfitter_cfg.c **** 			void CYFAR *address;
 477:.\Generated_Source\PSoC5/cyfitter_cfg.c **** 			uint16 size;
 478:.\Generated_Source\PSoC5/cyfitter_cfg.c **** 		} CYPACKED_ATTR cfg_memset_t;
 479:.\Generated_Source\PSoC5/cyfitter_cfg.c **** 
 480:.\Generated_Source\PSoC5/cyfitter_cfg.c **** 		static const cfg_memset_t CYCODE cfg_memset_list [] = {
 481:.\Generated_Source\PSoC5/cyfitter_cfg.c **** 			/* address, size */
 482:.\Generated_Source\PSoC5/cyfitter_cfg.c **** 			{(void CYFAR *)(CYREG_PRT0_DR), 16u},
 483:.\Generated_Source\PSoC5/cyfitter_cfg.c **** 			{(void CYFAR *)(CYREG_PRT4_DR), 48u},
 484:.\Generated_Source\PSoC5/cyfitter_cfg.c **** 			{(void CYFAR *)(CYREG_PRT12_DR), 16u},
 485:.\Generated_Source\PSoC5/cyfitter_cfg.c **** 			{(void CYFAR *)(CYDEV_UCFG_B0_P0_U0_BASE), 4096u},
 486:.\Generated_Source\PSoC5/cyfitter_cfg.c **** 			{(void CYFAR *)(CYDEV_UCFG_B1_P2_U0_BASE), 2048u},
 487:.\Generated_Source\PSoC5/cyfitter_cfg.c **** 			{(void CYFAR *)(CYDEV_UCFG_DSI0_BASE), 2560u},
 488:.\Generated_Source\PSoC5/cyfitter_cfg.c **** 			{(void CYFAR *)(CYDEV_UCFG_DSI12_BASE), 512u},
 489:.\Generated_Source\PSoC5/cyfitter_cfg.c **** 			{(void CYFAR *)(CYREG_BCTL0_MDCLK_EN), 32u},
 490:.\Generated_Source\PSoC5/cyfitter_cfg.c **** 		};
 491:.\Generated_Source\PSoC5/cyfitter_cfg.c **** 
 492:.\Generated_Source\PSoC5/cyfitter_cfg.c **** 		uint8 CYDATA i;
 493:.\Generated_Source\PSoC5/cyfitter_cfg.c **** 
 494:.\Generated_Source\PSoC5/cyfitter_cfg.c **** 		/* Zero out critical memory blocks before beginning configuration */
 495:.\Generated_Source\PSoC5/cyfitter_cfg.c **** 		for (i = 0u; i < (sizeof(cfg_memset_list)/sizeof(cfg_memset_list[0])); i++)
 628              		.loc 1 495 0
 629 000e 0024     		movs	r4, #0
 630 0010 0AE0     		b	.L52
 631              	.LVL37:
 632              	.L53:
 633              	.LBB4:
 496:.\Generated_Source\PSoC5/cyfitter_cfg.c **** 		{
 497:.\Generated_Source\PSoC5/cyfitter_cfg.c **** 			const cfg_memset_t CYCODE * CYDATA ms = &cfg_memset_list[i];
 498:.\Generated_Source\PSoC5/cyfitter_cfg.c **** 			CYMEMZERO(ms->address, (size_t)(uint32)(ms->size));
 634              		.loc 1 498 0 discriminator 3
 635 0012 2A49     		ldr	r1, .L55+4
 636 0014 6300     		lsls	r3, r4, #1
 637 0016 1A19     		adds	r2, r3, r4
 638 0018 5200     		lsls	r2, r2, #1
 639 001a 0A44     		add	r2, r2, r1
 640 001c D06A     		ldr	r0, [r2, #44]	@ unaligned
 641 001e 118E     		ldrh	r1, [r2, #48]
 642 0020 FFF7FEFF 		bl	CYMEMZERO
 643              	.LVL38:
 644              	.LBE4:
 495:.\Generated_Source\PSoC5/cyfitter_cfg.c **** 		{
 645              		.loc 1 495 0 discriminator 3
 646 0024 0134     		adds	r4, r4, #1
 647              	.LVL39:
 648 0026 E4B2     		uxtb	r4, r4
 649              	.LVL40:
 650              	.L52:
 495:.\Generated_Source\PSoC5/cyfitter_cfg.c **** 		{
 651              		.loc 1 495 0 is_stmt 0 discriminator 1
 652 0028 072C     		cmp	r4, #7
 653 002a F2D9     		bls	.L53
 499:.\Generated_Source\PSoC5/cyfitter_cfg.c **** 		}
 500:.\Generated_Source\PSoC5/cyfitter_cfg.c **** 
 501:.\Generated_Source\PSoC5/cyfitter_cfg.c **** 		cfg_write_bytes32(cy_cfg_addr_table, cy_cfg_data_table);
 654              		.loc 1 501 0 is_stmt 1
 655 002c 4FF09040 		mov	r0, #1207959552
ARM GAS  C:\Users\user\AppData\Local\Temp\ccdjtUDM.s 			page 22


 656 0030 2349     		ldr	r1, .L55+8
 657 0032 FFF7FEFF 		bl	cfg_write_bytes32
 658              	.LVL41:
 502:.\Generated_Source\PSoC5/cyfitter_cfg.c **** 
 503:.\Generated_Source\PSoC5/cyfitter_cfg.c **** 		/* Perform normal device configuration. Order is not critical for these items. */
 504:.\Generated_Source\PSoC5/cyfitter_cfg.c **** 		CY_SET_XTND_REG8((void CYFAR *)(CYREG_DSM0_CR3), 0x0Au);
 659              		.loc 1 504 0
 660 0036 0A22     		movs	r2, #10
 661 0038 224B     		ldr	r3, .L55+12
 662 003a 1A70     		strb	r2, [r3]
 505:.\Generated_Source\PSoC5/cyfitter_cfg.c **** 
 506:.\Generated_Source\PSoC5/cyfitter_cfg.c **** 		/* Enable digital routing */
 507:.\Generated_Source\PSoC5/cyfitter_cfg.c **** 		CY_SET_XTND_REG8((void CYFAR *)CYREG_BCTL0_BANK_CTL, CY_GET_XTND_REG8((void CYFAR *)CYREG_BCTL0_B
 663              		.loc 1 507 0
 664 003c 2249     		ldr	r1, .L55+16
 665 003e 0B78     		ldrb	r3, [r1]	@ zero_extendqisi2
 666 0040 43F00203 		orr	r3, r3, #2
 667 0044 0B70     		strb	r3, [r1]
 508:.\Generated_Source\PSoC5/cyfitter_cfg.c **** 		CY_SET_XTND_REG8((void CYFAR *)CYREG_BCTL1_BANK_CTL, CY_GET_XTND_REG8((void CYFAR *)CYREG_BCTL1_B
 668              		.loc 1 508 0
 669 0046 1031     		adds	r1, r1, #16
 670 0048 0B78     		ldrb	r3, [r1]	@ zero_extendqisi2
 671 004a 43F00203 		orr	r3, r3, #2
 672 004e 0B70     		strb	r3, [r1]
 509:.\Generated_Source\PSoC5/cyfitter_cfg.c **** 
 510:.\Generated_Source\PSoC5/cyfitter_cfg.c **** 		/* Enable UDB array */
 511:.\Generated_Source\PSoC5/cyfitter_cfg.c **** 		CY_SET_XTND_REG8((void CYFAR *)CYREG_PM_ACT_CFG0, CY_GET_XTND_REG8((void CYFAR *)CYREG_PM_ACT_CFG
 673              		.loc 1 511 0
 674 0050 1E4C     		ldr	r4, .L55+20
 675              	.LVL42:
 676 0052 2378     		ldrb	r3, [r4]	@ zero_extendqisi2
 677 0054 43F04003 		orr	r3, r3, #64
 678 0058 2370     		strb	r3, [r4]
 512:.\Generated_Source\PSoC5/cyfitter_cfg.c **** 		CY_SET_XTND_REG8((void CYFAR *)CYREG_PM_AVAIL_CR2, CY_GET_XTND_REG8((void CYFAR *)CYREG_PM_AVAIL_
 679              		.loc 1 512 0
 680 005a A1F58631 		sub	r1, r1, #68608
 681 005e 5139     		subs	r1, r1, #81
 682 0060 0B78     		ldrb	r3, [r1]	@ zero_extendqisi2
 683 0062 43F01003 		orr	r3, r3, #16
 684 0066 0B70     		strb	r3, [r1]
 685              	.LBE3:
 513:.\Generated_Source\PSoC5/cyfitter_cfg.c **** 	}
 514:.\Generated_Source\PSoC5/cyfitter_cfg.c **** 
 515:.\Generated_Source\PSoC5/cyfitter_cfg.c **** 
 516:.\Generated_Source\PSoC5/cyfitter_cfg.c **** 	/* Perform second pass device configuration. These items must be configured in specific order afte
 517:.\Generated_Source\PSoC5/cyfitter_cfg.c **** 	CYCONFIGCPY((void CYFAR *)(CYREG_PRT15_DR), (const void CYFAR *)(BS_IOPINS0_8_VAL), 10u);
 686              		.loc 1 517 0
 687 0068 1948     		ldr	r0, .L55+24
 688 006a 1A49     		ldr	r1, .L55+28
 689 006c FFF7FEFF 		bl	CYCONFIGCPY
 690              	.LVL43:
 518:.\Generated_Source\PSoC5/cyfitter_cfg.c **** 	CYCONFIGCPY((void CYFAR *)(CYREG_PRT1_DM0), (const void CYFAR *)(BS_IOPINS0_1_VAL), 8u);
 691              		.loc 1 518 0
 692 0070 1948     		ldr	r0, .L55+32
 693 0072 1A49     		ldr	r1, .L55+36
 694 0074 0822     		movs	r2, #8
 695 0076 FFF7FEFF 		bl	CYCONFIGCPY
ARM GAS  C:\Users\user\AppData\Local\Temp\ccdjtUDM.s 			page 23


 696              	.LVL44:
 519:.\Generated_Source\PSoC5/cyfitter_cfg.c **** 	CYCONFIGCPY((void CYFAR *)(CYREG_PRT2_DM0), (const void CYFAR *)(BS_IOPINS0_2_VAL), 8u);
 697              		.loc 1 519 0
 698 007a 1948     		ldr	r0, .L55+40
 699 007c 1949     		ldr	r1, .L55+44
 700 007e 0822     		movs	r2, #8
 701 0080 FFF7FEFF 		bl	CYCONFIGCPY
 702              	.LVL45:
 520:.\Generated_Source\PSoC5/cyfitter_cfg.c **** 	CYCONFIGCPY((void CYFAR *)(CYREG_PRT3_DM0), (const void CYFAR *)(BS_IOPINS0_3_VAL), 8u);
 703              		.loc 1 520 0
 704 0084 1848     		ldr	r0, .L55+48
 705 0086 1949     		ldr	r1, .L55+52
 706 0088 0822     		movs	r2, #8
 707 008a FFF7FEFF 		bl	CYCONFIGCPY
 708              	.LVL46:
 521:.\Generated_Source\PSoC5/cyfitter_cfg.c **** 	/* Switch Boost to the precision bandgap reference from its internal reference */
 522:.\Generated_Source\PSoC5/cyfitter_cfg.c **** 	CY_SET_REG8((void CYXDATA *)CYREG_BOOST_CR2, (CY_GET_REG8((void CYXDATA *)CYREG_BOOST_CR2) | 0x08u
 709              		.loc 1 522 0
 710 008e 184A     		ldr	r2, .L55+56
 711 0090 1378     		ldrb	r3, [r2]	@ zero_extendqisi2
 712 0092 43F00803 		orr	r3, r3, #8
 713 0096 1370     		strb	r3, [r2]
 523:.\Generated_Source\PSoC5/cyfitter_cfg.c **** 
 524:.\Generated_Source\PSoC5/cyfitter_cfg.c **** 	/* Set Flash Cycles based on max possible frequency in case a glitch occurs during ClockSetup(). *
 525:.\Generated_Source\PSoC5/cyfitter_cfg.c **** 	CY_SET_XTND_REG8((void CYFAR *)(CYREG_CACHE_CC_CTL), (((CYDEV_INSTRUCT_CACHE_ENABLED) != 0) ? 0x61
 714              		.loc 1 525 0
 715 0098 164D     		ldr	r5, .L55+60
 716 009a 6123     		movs	r3, #97
 717 009c 2B70     		strb	r3, [r5]
 526:.\Generated_Source\PSoC5/cyfitter_cfg.c **** 	/* Setup clocks based on selections from Clock DWR */
 527:.\Generated_Source\PSoC5/cyfitter_cfg.c **** 	ClockSetup();
 718              		.loc 1 527 0
 719 009e FFF7FEFF 		bl	ClockSetup
 720              	.LVL47:
 528:.\Generated_Source\PSoC5/cyfitter_cfg.c **** 	/* Set Flash Cycles based on newly configured 24.00MHz Bus Clock. */
 529:.\Generated_Source\PSoC5/cyfitter_cfg.c **** 	CY_SET_XTND_REG8((void CYFAR *)(CYREG_CACHE_CC_CTL), (((CYDEV_INSTRUCT_CACHE_ENABLED) != 0) ? 0x81
 721              		.loc 1 529 0
 722 00a2 8123     		movs	r3, #129
 723 00a4 2B70     		strb	r3, [r5]
 530:.\Generated_Source\PSoC5/cyfitter_cfg.c **** 
 531:.\Generated_Source\PSoC5/cyfitter_cfg.c **** 	/* Perform basic analog initialization to defaults */
 532:.\Generated_Source\PSoC5/cyfitter_cfg.c **** 	AnalogSetDefault();
 724              		.loc 1 532 0
 725 00a6 FFF7FEFF 		bl	AnalogSetDefault
 726              	.LVL48:
 533:.\Generated_Source\PSoC5/cyfitter_cfg.c **** 
 534:.\Generated_Source\PSoC5/cyfitter_cfg.c **** 	/* Configure alternate active mode */
 535:.\Generated_Source\PSoC5/cyfitter_cfg.c **** 	CYCONFIGCPY((void CYFAR *)CYDEV_PM_STBY_BASE, (const void CYFAR *)CYDEV_PM_ACT_BASE, 14u);
 727              		.loc 1 535 0
 728 00aa 1348     		ldr	r0, .L55+64
 729 00ac 2146     		mov	r1, r4
 730 00ae 0E22     		movs	r2, #14
 731 00b0 FFF7FEFF 		bl	CYCONFIGCPY
 732              	.LVL49:
 733 00b4 38BD     		pop	{r3, r4, r5, pc}
 734              	.L56:
 735 00b6 00BF     		.align	2
ARM GAS  C:\Users\user\AppData\Local\Temp\ccdjtUDM.s 			page 24


 736              	.L55:
 737 00b8 E8460040 		.word	1073759976
 738 00bc 00000000 		.word	.LANCHOR0
 739 00c0 5C000048 		.word	1207959644
 740 00c4 83580040 		.word	1073764483
 741 00c8 03500140 		.word	1073827843
 742 00cc A0430040 		.word	1073759136
 743 00d0 F0510040 		.word	1073762800
 744 00d4 2C010048 		.word	1207959852
 745 00d8 12510040 		.word	1073762578
 746 00dc 38010048 		.word	1207959864
 747 00e0 22510040 		.word	1073762594
 748 00e4 40010048 		.word	1207959872
 749 00e8 32510040 		.word	1073762610
 750 00ec 48010048 		.word	1207959880
 751 00f0 22430040 		.word	1073759010
 752 00f4 00480040 		.word	1073760256
 753 00f8 B0430040 		.word	1073759152
 754              		.cfi_endproc
 755              	.LFE12:
 756              		.size	cyfitter_cfg, .-cyfitter_cfg
 757              		.global	ADC_DelSig_1_AMux__maskTable
 758              		.global	ADC_DelSig_1_AMux__addrTable
 759              		.global	AMux_1__maskTable
 760              		.global	AMux_1__addrTable
 761              		.section	.rodata
 762              		.align	2
 763              		.set	.LANCHOR0,. + 0
 764              		.type	AMux_1__addrTable, %object
 765              		.size	AMux_1__addrTable, 24
 766              	AMux_1__addrTable:
 767 0000 3C510040 		.word	1073762620
 768 0004 24430040 		.word	1073759012
 769 0008 1C510040 		.word	1073762588
 770 000c 24430040 		.word	1073759012
 771 0010 2D510040 		.word	1073762605
 772 0014 005B0040 		.word	1073765120
 773              		.type	AMux_1__maskTable, %object
 774              		.size	AMux_1__maskTable, 6
 775              	AMux_1__maskTable:
 776 0018 40       		.byte	64
 777 0019 00       		.byte	0
 778 001a 80       		.byte	-128
 779 001b 00       		.byte	0
 780 001c 80       		.byte	-128
 781 001d 08       		.byte	8
 782 001e 0000     		.space	2
 783              		.type	ADC_DelSig_1_AMux__addrTable, %object
 784              		.size	ADC_DelSig_1_AMux__addrTable, 8
 785              	ADC_DelSig_1_AMux__addrTable:
 786 0020 035B0040 		.word	1073765123
 787 0024 24430040 		.word	1073759012
 788              		.type	ADC_DelSig_1_AMux__maskTable, %object
 789              		.size	ADC_DelSig_1_AMux__maskTable, 2
 790              	ADC_DelSig_1_AMux__maskTable:
 791 0028 40       		.byte	64
 792 0029 00       		.byte	0
ARM GAS  C:\Users\user\AppData\Local\Temp\ccdjtUDM.s 			page 25


 793 002a 0000     		.space	2
 794              		.type	cfg_memset_list.4908, %object
 795              		.size	cfg_memset_list.4908, 48
 796              	cfg_memset_list.4908:
 797 002c 00510040 		.word	1073762560
 798 0030 1000     		.short	16
 799 0032 40510040 		.4byte	1073762624
 800 0036 3000     		.short	48
 801 0038 C0510040 		.word	1073762752
 802 003c 1000     		.short	16
 803 003e 00000140 		.4byte	1073807360
 804 0042 0010     		.short	4096
 805 0044 00140140 		.word	1073812480
 806 0048 0008     		.short	2048
 807 004a 00400140 		.4byte	1073823744
 808 004e 000A     		.short	2560
 809 0050 004C0140 		.word	1073826816
 810 0054 0002     		.short	512
 811 0056 00500140 		.4byte	1073827840
 812 005a 2000     		.short	32
 813              		.text
 814              	.Letext0:
 815              		.file 2 "c:\\program files (x86)\\cypress\\psoc creator\\3.3\\psoc creator\\import\\gnu\\arm\\4.9.
 816              		.file 3 ".\\Generated_Source\\PSoC5\\cytypes.h"
 817              		.file 4 ".\\Generated_Source\\PSoC5\\CyLib.h"