ARM GAS  C:\Users\user\AppData\Local\Temp\ccTcE3ca.s 			page 1


   1              		.syntax unified
   2              		.cpu cortex-m3
   3              		.fpu softvfp
   4              		.eabi_attribute 20, 1
   5              		.eabi_attribute 21, 1
   6              		.eabi_attribute 23, 3
   7              		.eabi_attribute 24, 1
   8              		.eabi_attribute 25, 1
   9              		.eabi_attribute 26, 1
  10              		.eabi_attribute 30, 1
  11              		.eabi_attribute 34, 1
  12              		.eabi_attribute 18, 4
  13              		.thumb
  14              		.file	"main.c"
  15              		.text
  16              	.Ltext0:
  17              		.cfi_sections	.debug_frame
  18              		.section	.text.isr_1_interrupt,"ax",%progbits
  19              		.align	2
  20              		.global	isr_1_interrupt
  21              		.thumb
  22              		.thumb_func
  23              		.type	isr_1_interrupt, %function
  24              	isr_1_interrupt:
  25              	.LFB63:
  26              		.file 1 ".\\main.c"
   1:.\main.c      **** /* ========================================
   2:.\main.c      ****  *
   3:.\main.c      ****  * Copyright YOUR COMPANY, THE YEAR
   4:.\main.c      ****  * All Rights Reserved
   5:.\main.c      ****  * UNPUBLISHED, LICENSED SOFTWARE.
   6:.\main.c      ****  *
   7:.\main.c      ****  * CONFIDENTIAL AND PROPRIETARY INFORMATION
   8:.\main.c      ****  * WHICH IS THE PROPERTY OF your company.
   9:.\main.c      ****  *
  10:.\main.c      ****  * ========================================
  11:.\main.c      **** */
  12:.\main.c      **** #include <project.h>
  13:.\main.c      **** #include <stdio.h>
  14:.\main.c      **** 
  15:.\main.c      **** int val        = 0;
  16:.\main.c      **** int increment  = 1; 
  17:.\main.c      **** char valeur[8] = {0};
  18:.\main.c      **** 
  19:.\main.c      **** CY_ISR(isr_1_interrupt)
  20:.\main.c      **** {
  27              		.loc 1 20 0
  28              		.cfi_startproc
  29              		@ args = 0, pretend = 0, frame = 0
  30              		@ frame_needed = 0, uses_anonymous_args = 0
  31 0000 08B5     		push	{r3, lr}
  32              		.cfi_def_cfa_offset 8
  33              		.cfi_offset 3, -8
  34              		.cfi_offset 14, -4
  21:.\main.c      ****  /* ISR Code here */
  22:.\main.c      ****     increment = (-1) * increment;
  35              		.loc 1 22 0
ARM GAS  C:\Users\user\AppData\Local\Temp\ccTcE3ca.s 			page 2


  36 0002 034A     		ldr	r2, .L3
  37 0004 1368     		ldr	r3, [r2]
  38 0006 5B42     		negs	r3, r3
  39 0008 1360     		str	r3, [r2]
  23:.\main.c      ****     Pin_1_ClearInterrupt();
  40              		.loc 1 23 0
  41 000a FFF7FEFF 		bl	Pin_1_ClearInterrupt
  42              	.LVL0:
  43 000e 08BD     		pop	{r3, pc}
  44              	.L4:
  45              		.align	2
  46              	.L3:
  47 0010 00000000 		.word	.LANCHOR0
  48              		.cfi_endproc
  49              	.LFE63:
  50              		.size	isr_1_interrupt, .-isr_1_interrupt
  51              		.section	.text.main,"ax",%progbits
  52              		.align	2
  53              		.global	main
  54              		.thumb
  55              		.thumb_func
  56              		.type	main, %function
  57              	main:
  58              	.LFB64:
  24:.\main.c      **** }
  25:.\main.c      **** 
  26:.\main.c      **** int main()
  27:.\main.c      **** {
  59              		.loc 1 27 0
  60              		.cfi_startproc
  61              		@ Volatile: function does not return.
  62              		@ args = 0, pretend = 0, frame = 0
  63              		@ frame_needed = 0, uses_anonymous_args = 0
  64 0000 08B5     		push	{r3, lr}
  65              		.cfi_def_cfa_offset 8
  66              		.cfi_offset 3, -8
  67              		.cfi_offset 14, -4
  28:.\main.c      ****     CyGlobalIntEnable; /* Enable global interrupts. */
  68              		.loc 1 28 0
  69              	@ 28 ".\main.c" 1
  70 0002 62B6     		CPSIE   i
  71              	@ 0 "" 2
  29:.\main.c      **** 
  30:.\main.c      ****     /* Place your initialization/startup code here (e.g. MyInst_Start()) */
  31:.\main.c      ****     // Start UART
  32:.\main.c      ****     USBUART_1_Start(0, USBUART_1_5V_OPERATION);
  72              		.loc 1 32 0
  73              		.thumb
  74 0004 0020     		movs	r0, #0
  75 0006 0121     		movs	r1, #1
  76 0008 FFF7FEFF 		bl	USBUART_1_Start
  77              	.LVL1:
  78              	.L6:
  33:.\main.c      ****     while(0 == USBUART_1_GetConfiguration())
  79              		.loc 1 33 0 discriminator 1
  80 000c FFF7FEFF 		bl	USBUART_1_GetConfiguration
  81              	.LVL2:
ARM GAS  C:\Users\user\AppData\Local\Temp\ccTcE3ca.s 			page 3


  82 0010 0028     		cmp	r0, #0
  83 0012 FBD0     		beq	.L6
  34:.\main.c      ****     {
  35:.\main.c      ****     }
  36:.\main.c      ****     USBUART_1_CDC_Init();
  84              		.loc 1 36 0
  85 0014 FFF7FEFF 		bl	USBUART_1_CDC_Init
  86              	.LVL3:
  37:.\main.c      ****      
  38:.\main.c      ****     //Start extern interrupt
  39:.\main.c      ****     isr_1_StartEx(isr_1_interrupt);
  87              		.loc 1 39 0
  88 0018 0C48     		ldr	r0, .L9
  89 001a FFF7FEFF 		bl	isr_1_StartEx
  90              	.LVL4:
  91              	.L7:
  40:.\main.c      ****     
  41:.\main.c      ****     for(;;)
  42:.\main.c      ****     {
  43:.\main.c      ****         /* Place your application code here. */
  44:.\main.c      ****         CyDelay(100);
  92              		.loc 1 44 0 discriminator 1
  93 001e 6420     		movs	r0, #100
  94 0020 FFF7FEFF 		bl	CyDelay
  95              	.LVL5:
  45:.\main.c      ****         val += increment;
  96              		.loc 1 45 0 discriminator 1
  97 0024 0A4C     		ldr	r4, .L9+4
  98 0026 2268     		ldr	r2, [r4]
  99 0028 0A4B     		ldr	r3, .L9+8
 100 002a 1B68     		ldr	r3, [r3]
 101 002c 1A44     		add	r2, r2, r3
 102 002e 44F8042B 		str	r2, [r4], #4
  46:.\main.c      ****         
  47:.\main.c      ****         sprintf(valeur, "%d", val);
 103              		.loc 1 47 0 discriminator 1
 104 0032 2046     		mov	r0, r4
 105 0034 0849     		ldr	r1, .L9+12
 106 0036 FFF7FEFF 		bl	sprintf
 107              	.LVL6:
  48:.\main.c      ****         USBUART_1_PutString(valeur);
 108              		.loc 1 48 0 discriminator 1
 109 003a 2046     		mov	r0, r4
 110 003c FFF7FEFF 		bl	USBUART_1_PutString
 111              	.LVL7:
  49:.\main.c      ****         CyDelay(10);
 112              		.loc 1 49 0 discriminator 1
 113 0040 0A20     		movs	r0, #10
 114 0042 FFF7FEFF 		bl	CyDelay
 115              	.LVL8:
  50:.\main.c      ****         USBUART_1_PutCRLF();
 116              		.loc 1 50 0 discriminator 1
 117 0046 FFF7FEFF 		bl	USBUART_1_PutCRLF
 118              	.LVL9:
  51:.\main.c      ****     }
 119              		.loc 1 51 0 discriminator 1
 120 004a E8E7     		b	.L7
ARM GAS  C:\Users\user\AppData\Local\Temp\ccTcE3ca.s 			page 4


 121              	.L10:
 122              		.align	2
 123              	.L9:
 124 004c 00000000 		.word	isr_1_interrupt
 125 0050 00000000 		.word	.LANCHOR1
 126 0054 00000000 		.word	.LANCHOR0
 127 0058 00000000 		.word	.LC0
 128              		.cfi_endproc
 129              	.LFE64:
 130              		.size	main, .-main
 131              		.global	valeur
 132              		.global	increment
 133              		.global	val
 134              		.data
 135              		.align	2
 136              		.set	.LANCHOR0,. + 0
 137              		.type	increment, %object
 138              		.size	increment, 4
 139              	increment:
 140 0000 01000000 		.word	1
 141              		.section	.rodata.str1.4,"aMS",%progbits,1
 142              		.align	2
 143              	.LC0:
 144 0000 256400   		.ascii	"%d\000"
 145 0003 00       		.bss
 146              		.align	2
 147              		.set	.LANCHOR1,. + 0
 148              		.type	val, %object
 149              		.size	val, 4
 150              	val:
 151 0000 00000000 		.space	4
 152              		.type	valeur, %object
 153              		.size	valeur, 8
 154              	valeur:
 155 0004 00000000 		.space	8
 155      00000000 
 156              		.text
 157              	.Letext0:
 158              		.file 2 "c:\\program files (x86)\\cypress\\psoc creator\\3.3\\psoc creator\\import\\gnu\\arm\\4.9.
 159              		.file 3 "c:\\program files (x86)\\cypress\\psoc creator\\3.3\\psoc creator\\import\\gnu\\arm\\4.9.
 160              		.file 4 "Generated_Source\\PSoC5/cytypes.h"
 161              		.file 5 "Generated_Source\\PSoC5/core_cm3.h"
 162              		.file 6 "Generated_Source\\PSoC5/Pin_1.h"
 163              		.file 7 "Generated_Source\\PSoC5/USBUART_1.h"
 164              		.file 8 "Generated_Source\\PSoC5/USBUART_1_cdc.h"
 165              		.file 9 "Generated_Source\\PSoC5/isr_1.h"
 166              		.file 10 "Generated_Source\\PSoC5/CyLib.h"
 167              		.file 11 "c:\\program files (x86)\\cypress\\psoc creator\\3.3\\psoc creator\\import\\gnu\\arm\\4.9